
easy-phi_fw.elf:     file format elf32-littlearm

Sections:
Idx Name          Size      VMA       LMA       File off  Algn
  0 .text         0000ce60  00080000  00080000  00008000  2**3
                  CONTENTS, ALLOC, LOAD, READONLY, CODE
  1 .ARM.exidx    00000008  0008ce60  0008ce60  00014e60  2**2
                  CONTENTS, ALLOC, LOAD, READONLY, DATA
  2 .relocate     00000ae8  20070000  0008ce68  00018000  2**3
                  CONTENTS, ALLOC, LOAD, CODE
  3 .bss          0000114c  20070ae8  0008d950  00018ae8  2**2
                  ALLOC
  4 .stack        00002004  20071c34  0008ea9c  00018ae8  2**0
                  ALLOC
  5 .ARM.attributes 00000029  00000000  00000000  00018ae8  2**0
                  CONTENTS, READONLY
  6 .comment      00000071  00000000  00000000  00018b11  2**0
                  CONTENTS, READONLY
  7 .debug_info   0002d6e1  00000000  00000000  00018b82  2**0
                  CONTENTS, READONLY, DEBUGGING
  8 .debug_abbrev 000083b6  00000000  00000000  00046263  2**0
                  CONTENTS, READONLY, DEBUGGING
  9 .debug_loc    00017c68  00000000  00000000  0004e619  2**0
                  CONTENTS, READONLY, DEBUGGING
 10 .debug_aranges 00001b38  00000000  00000000  00066288  2**3
                  CONTENTS, READONLY, DEBUGGING
 11 .debug_ranges 00001f40  00000000  00000000  00067dc0  2**0
                  CONTENTS, READONLY, DEBUGGING
 12 .debug_macro  00024b31  00000000  00000000  00069d00  2**0
                  CONTENTS, READONLY, DEBUGGING
 13 .debug_line   0002f523  00000000  00000000  0008e831  2**0
                  CONTENTS, READONLY, DEBUGGING
 14 .debug_str    0007a71b  00000000  00000000  000bdd54  2**0
                  CONTENTS, READONLY, DEBUGGING
 15 .debug_frame  00003c04  00000000  00000000  00138470  2**2
                  CONTENTS, READONLY, DEBUGGING

Disassembly of section .text:

00080000 <_sfixed>:
   80000:	20073c38 	.word	0x20073c38
   80004:	0008946d 	.word	0x0008946d
   80008:	00089469 	.word	0x00089469
   8000c:	00084ba5 	.word	0x00084ba5
   80010:	00089469 	.word	0x00089469
   80014:	00089469 	.word	0x00089469
   80018:	00089469 	.word	0x00089469
	...
   8002c:	00089469 	.word	0x00089469
   80030:	00089469 	.word	0x00089469
   80034:	00000000 	.word	0x00000000
   80038:	00089469 	.word	0x00089469
   8003c:	00089469 	.word	0x00089469
   80040:	00089469 	.word	0x00089469
   80044:	00089469 	.word	0x00089469
   80048:	00089469 	.word	0x00089469
   8004c:	00089469 	.word	0x00089469
   80050:	00089469 	.word	0x00089469
   80054:	00089469 	.word	0x00089469
   80058:	00089469 	.word	0x00089469
   8005c:	00089469 	.word	0x00089469
   80060:	00089469 	.word	0x00089469
   80064:	00089469 	.word	0x00089469
   80068:	00000000 	.word	0x00000000
   8006c:	00087219 	.word	0x00087219
   80070:	00087235 	.word	0x00087235
   80074:	00087251 	.word	0x00087251
   80078:	0008726d 	.word	0x0008726d
	...
   80084:	00089469 	.word	0x00089469
   80088:	00089469 	.word	0x00089469
   8008c:	00089469 	.word	0x00089469
   80090:	00089469 	.word	0x00089469
   80094:	00089469 	.word	0x00089469
   80098:	00089469 	.word	0x00089469
   8009c:	00089469 	.word	0x00089469
   800a0:	00089469 	.word	0x00089469
   800a4:	00000000 	.word	0x00000000
   800a8:	00089469 	.word	0x00089469
   800ac:	00089469 	.word	0x00089469
   800b0:	00081ef1 	.word	0x00081ef1
   800b4:	00089469 	.word	0x00089469
   800b8:	00089469 	.word	0x00089469
   800bc:	00089469 	.word	0x00089469
   800c0:	00089469 	.word	0x00089469
   800c4:	00089469 	.word	0x00089469
   800c8:	00089469 	.word	0x00089469
   800cc:	00089469 	.word	0x00089469
   800d0:	00089469 	.word	0x00089469
   800d4:	00089469 	.word	0x00089469
   800d8:	00089469 	.word	0x00089469
   800dc:	00089469 	.word	0x00089469
   800e0:	00087d95 	.word	0x00087d95
   800e4:	00089469 	.word	0x00089469
   800e8:	00089469 	.word	0x00089469
   800ec:	00089469 	.word	0x00089469
   800f0:	00089469 	.word	0x00089469

000800f4 <deregister_tm_clones>:
   800f4:	b508      	push	{r3, lr}
   800f6:	4805      	ldr	r0, [pc, #20]	; (8010c <deregister_tm_clones+0x18>)
   800f8:	4b05      	ldr	r3, [pc, #20]	; (80110 <deregister_tm_clones+0x1c>)
   800fa:	1a19      	subs	r1, r3, r0
   800fc:	2906      	cmp	r1, #6
   800fe:	d800      	bhi.n	80102 <deregister_tm_clones+0xe>
   80100:	bd08      	pop	{r3, pc}
   80102:	4a04      	ldr	r2, [pc, #16]	; (80114 <deregister_tm_clones+0x20>)
   80104:	2a00      	cmp	r2, #0
   80106:	d0fb      	beq.n	80100 <deregister_tm_clones+0xc>
   80108:	4790      	blx	r2
   8010a:	e7f9      	b.n	80100 <deregister_tm_clones+0xc>
   8010c:	0008ce68 	.word	0x0008ce68
   80110:	0008ce6b 	.word	0x0008ce6b
   80114:	00000000 	.word	0x00000000

00080118 <register_tm_clones>:
   80118:	b508      	push	{r3, lr}
   8011a:	4807      	ldr	r0, [pc, #28]	; (80138 <register_tm_clones+0x20>)
   8011c:	4b07      	ldr	r3, [pc, #28]	; (8013c <register_tm_clones+0x24>)
   8011e:	1a19      	subs	r1, r3, r0
   80120:	108a      	asrs	r2, r1, #2
   80122:	eb02 73d2 	add.w	r3, r2, r2, lsr #31
   80126:	1059      	asrs	r1, r3, #1
   80128:	d100      	bne.n	8012c <register_tm_clones+0x14>
   8012a:	bd08      	pop	{r3, pc}
   8012c:	4a04      	ldr	r2, [pc, #16]	; (80140 <register_tm_clones+0x28>)
   8012e:	2a00      	cmp	r2, #0
   80130:	d0fb      	beq.n	8012a <register_tm_clones+0x12>
   80132:	4790      	blx	r2
   80134:	e7f9      	b.n	8012a <register_tm_clones+0x12>
   80136:	bf00      	nop
   80138:	0008ce68 	.word	0x0008ce68
   8013c:	0008ce68 	.word	0x0008ce68
   80140:	00000000 	.word	0x00000000

00080144 <__do_global_dtors_aux>:
   80144:	b510      	push	{r4, lr}
   80146:	4c06      	ldr	r4, [pc, #24]	; (80160 <__do_global_dtors_aux+0x1c>)
   80148:	7823      	ldrb	r3, [r4, #0]
   8014a:	b943      	cbnz	r3, 8015e <__do_global_dtors_aux+0x1a>
   8014c:	f7ff ffd2 	bl	800f4 <deregister_tm_clones>
   80150:	4804      	ldr	r0, [pc, #16]	; (80164 <__do_global_dtors_aux+0x20>)
   80152:	b110      	cbz	r0, 8015a <__do_global_dtors_aux+0x16>
   80154:	4804      	ldr	r0, [pc, #16]	; (80168 <__do_global_dtors_aux+0x24>)
   80156:	f3af 8000 	nop.w
   8015a:	2101      	movs	r1, #1
   8015c:	7021      	strb	r1, [r4, #0]
   8015e:	bd10      	pop	{r4, pc}
   80160:	20070ae8 	.word	0x20070ae8
   80164:	00000000 	.word	0x00000000
   80168:	0008ce68 	.word	0x0008ce68

0008016c <frame_dummy>:
   8016c:	b508      	push	{r3, lr}
   8016e:	4b08      	ldr	r3, [pc, #32]	; (80190 <frame_dummy+0x24>)
   80170:	b11b      	cbz	r3, 8017a <frame_dummy+0xe>
   80172:	4808      	ldr	r0, [pc, #32]	; (80194 <frame_dummy+0x28>)
   80174:	4908      	ldr	r1, [pc, #32]	; (80198 <frame_dummy+0x2c>)
   80176:	f3af 8000 	nop.w
   8017a:	4808      	ldr	r0, [pc, #32]	; (8019c <frame_dummy+0x30>)
   8017c:	6801      	ldr	r1, [r0, #0]
   8017e:	b111      	cbz	r1, 80186 <frame_dummy+0x1a>
   80180:	4a07      	ldr	r2, [pc, #28]	; (801a0 <frame_dummy+0x34>)
   80182:	b102      	cbz	r2, 80186 <frame_dummy+0x1a>
   80184:	4790      	blx	r2
   80186:	e8bd 4008 	ldmia.w	sp!, {r3, lr}
   8018a:	f7ff bfc5 	b.w	80118 <register_tm_clones>
   8018e:	bf00      	nop
   80190:	00000000 	.word	0x00000000
   80194:	0008ce68 	.word	0x0008ce68
   80198:	20070aec 	.word	0x20070aec
   8019c:	0008ce68 	.word	0x0008ce68
   801a0:	00000000 	.word	0x00000000

000801a4 <sd_mmc_configure_slot>:
   801a4:	b510      	push	{r4, lr}
   801a6:	f640 3308 	movw	r3, #2824	; 0xb08
   801aa:	f2c2 0307 	movt	r3, #8199	; 0x2007
   801ae:	681a      	ldr	r2, [r3, #0]
   801b0:	f892 4022 	ldrb.w	r4, [r2, #34]	; 0x22
   801b4:	f640 310e 	movw	r1, #2830	; 0xb0e
   801b8:	f2c2 0107 	movt	r1, #8199	; 0x2007
   801bc:	7808      	ldrb	r0, [r1, #0]
   801be:	6811      	ldr	r1, [r2, #0]
   801c0:	7c52      	ldrb	r2, [r2, #17]
   801c2:	1c23      	adds	r3, r4, #0
   801c4:	bf18      	it	ne
   801c6:	2301      	movne	r3, #1
   801c8:	f244 24e1 	movw	r4, #17121	; 0x42e1
   801cc:	f2c0 0408 	movt	r4, #8
   801d0:	47a0      	blx	r4
   801d2:	bd10      	pop	{r4, pc}

000801d4 <sdio_cmd53>:
   801d4:	b570      	push	{r4, r5, r6, lr}
   801d6:	b082      	sub	sp, #8
   801d8:	9c06      	ldr	r4, [sp, #24]
   801da:	f249 3635 	movw	r6, #37685	; 0x9335
   801de:	f2c0 0601 	movt	r6, #1
   801e2:	f241 3535 	movw	r5, #4917	; 0x1335
   801e6:	f2c0 0501 	movt	r5, #1
   801ea:	ea4f 7101 	mov.w	r1, r1, lsl #28
   801ee:	ea41 2242 	orr.w	r2, r1, r2, lsl #9
   801f2:	ea42 72c0 	orr.w	r2, r2, r0, lsl #31
   801f6:	ea4f 51c4 	mov.w	r1, r4, lsl #23
   801fa:	ea4f 51d1 	mov.w	r1, r1, lsr #23
   801fe:	4311      	orrs	r1, r2
   80200:	f89d 201c 	ldrb.w	r2, [sp, #28]
   80204:	9200      	str	r2, [sp, #0]
   80206:	2800      	cmp	r0, #0
   80208:	bf14      	ite	ne
   8020a:	4630      	movne	r0, r6
   8020c:	4628      	moveq	r0, r5
   8020e:	ea41 6183 	orr.w	r1, r1, r3, lsl #26
   80212:	b2a2      	uxth	r2, r4
   80214:	f04f 0301 	mov.w	r3, #1
   80218:	f244 440d 	movw	r4, #17421	; 0x440d
   8021c:	f2c0 0408 	movt	r4, #8
   80220:	47a0      	blx	r4
   80222:	b002      	add	sp, #8
   80224:	bd70      	pop	{r4, r5, r6, pc}
   80226:	bf00      	nop

00080228 <sd_mmc_deselect_slot>:
   80228:	b508      	push	{r3, lr}
   8022a:	f640 330e 	movw	r3, #2830	; 0xb0e
   8022e:	f2c2 0307 	movt	r3, #8199	; 0x2007
   80232:	7818      	ldrb	r0, [r3, #0]
   80234:	b930      	cbnz	r0, 80244 <sd_mmc_deselect_slot+0x1c>
   80236:	f04f 0000 	mov.w	r0, #0
   8023a:	f244 3155 	movw	r1, #17237	; 0x4355
   8023e:	f2c0 0108 	movt	r1, #8
   80242:	4788      	blx	r1
   80244:	bd08      	pop	{r3, pc}
   80246:	bf00      	nop

00080248 <sdio_cmd52>:
   80248:	b510      	push	{r4, lr}
   8024a:	9c02      	ldr	r4, [sp, #8]
   8024c:	ea4f 2242 	mov.w	r2, r2, lsl #9
   80250:	ea42 7101 	orr.w	r1, r2, r1, lsl #28
   80254:	ea41 70c0 	orr.w	r0, r1, r0, lsl #31
   80258:	ea40 63c3 	orr.w	r3, r0, r3, lsl #27
   8025c:	7822      	ldrb	r2, [r4, #0]
   8025e:	f241 3034 	movw	r0, #4916	; 0x1334
   80262:	ea43 0102 	orr.w	r1, r3, r2
   80266:	f244 337d 	movw	r3, #17277	; 0x437d
   8026a:	f2c0 0308 	movt	r3, #8
   8026e:	4798      	blx	r3
   80270:	b140      	cbz	r0, 80284 <sdio_cmd52+0x3c>
   80272:	f244 31a5 	movw	r1, #17317	; 0x43a5
   80276:	f2c0 0108 	movt	r1, #8
   8027a:	4788      	blx	r1
   8027c:	7020      	strb	r0, [r4, #0]
   8027e:	f04f 0001 	mov.w	r0, #1
   80282:	bd10      	pop	{r4, pc}
   80284:	f04f 0000 	mov.w	r0, #0
   80288:	bd10      	pop	{r4, pc}
   8028a:	bf00      	nop

0008028c <sd_mmc_cmd9_mci>:
   8028c:	b508      	push	{r3, lr}
   8028e:	f640 3308 	movw	r3, #2824	; 0xb08
   80292:	f2c2 0307 	movt	r3, #8199	; 0x2007
   80296:	6818      	ldr	r0, [r3, #0]
   80298:	8981      	ldrh	r1, [r0, #12]
   8029a:	f641 3009 	movw	r0, #6921	; 0x1b09
   8029e:	ea4f 4101 	mov.w	r1, r1, lsl #16
   802a2:	f244 327d 	movw	r2, #17277	; 0x437d
   802a6:	f2c0 0208 	movt	r2, #8
   802aa:	4790      	blx	r2
   802ac:	b170      	cbz	r0, 802cc <sd_mmc_cmd9_mci+0x40>
   802ae:	f640 3308 	movw	r3, #2824	; 0xb08
   802b2:	f2c2 0307 	movt	r3, #8199	; 0x2007
   802b6:	6818      	ldr	r0, [r3, #0]
   802b8:	f100 0012 	add.w	r0, r0, #18
   802bc:	f244 31ad 	movw	r1, #17325	; 0x43ad
   802c0:	f2c0 0108 	movt	r1, #8
   802c4:	4788      	blx	r1
   802c6:	f04f 0001 	mov.w	r0, #1
   802ca:	bd08      	pop	{r3, pc}
   802cc:	f04f 0000 	mov.w	r0, #0
   802d0:	bd08      	pop	{r3, pc}
   802d2:	bf00      	nop

000802d4 <sd_mmc_select_slot>:
   802d4:	b510      	push	{r4, lr}
   802d6:	2800      	cmp	r0, #0
   802d8:	f040 80a8 	bne.w	8042c <sd_mmc_select_slot+0x158>
   802dc:	f240 030c 	movw	r3, #12
   802e0:	f2c2 0307 	movt	r3, #8199	; 0x2007
   802e4:	6898      	ldr	r0, [r3, #8]
   802e6:	ea4f 1250 	mov.w	r2, r0, lsr #5
   802ea:	f502 1100 	add.w	r1, r2, #2097152	; 0x200000
   802ee:	f201 7307 	addw	r3, r1, #1799	; 0x707
   802f2:	ea4f 2243 	mov.w	r2, r3, lsl #9
   802f6:	6bd2      	ldr	r2, [r2, #60]	; 0x3c
   802f8:	f000 001f 	and.w	r0, r0, #31
   802fc:	f04f 0101 	mov.w	r1, #1
   80300:	fa01 f300 	lsl.w	r3, r1, r0
   80304:	4213      	tst	r3, r2
   80306:	d01d      	beq.n	80344 <sd_mmc_select_slot+0x70>
   80308:	f240 020c 	movw	r2, #12
   8030c:	f2c2 0207 	movt	r2, #8199	; 0x2007
   80310:	7b90      	ldrb	r0, [r2, #14]
   80312:	4288      	cmp	r0, r1
   80314:	d10c      	bne.n	80330 <sd_mmc_select_slot+0x5c>
   80316:	f640 3306 	movw	r3, #2822	; 0xb06
   8031a:	f2c2 0307 	movt	r3, #8199	; 0x2007
   8031e:	7819      	ldrb	r1, [r3, #0]
   80320:	b131      	cbz	r1, 80330 <sd_mmc_select_slot+0x5c>
   80322:	f24e 0010 	movw	r0, #57360	; 0xe010
   80326:	f2ce 0000 	movt	r0, #57344	; 0xe000
   8032a:	f04f 0200 	mov.w	r2, #0
   8032e:	6002      	str	r2, [r0, #0]
   80330:	f240 030c 	movw	r3, #12
   80334:	f2c2 0307 	movt	r3, #8199	; 0x2007
   80338:	f04f 0104 	mov.w	r1, #4
   8033c:	7399      	strb	r1, [r3, #14]
   8033e:	f04f 0002 	mov.w	r0, #2
   80342:	bd10      	pop	{r4, pc}
   80344:	f240 020c 	movw	r2, #12
   80348:	f2c2 0207 	movt	r2, #8199	; 0x2007
   8034c:	7b90      	ldrb	r0, [r2, #14]
   8034e:	2804      	cmp	r0, #4
   80350:	d131      	bne.n	803b6 <sd_mmc_select_slot+0xe2>
   80352:	f240 010c 	movw	r1, #12
   80356:	f2c2 0107 	movt	r1, #8199	; 0x2007
   8035a:	f04f 0201 	mov.w	r2, #1
   8035e:	738a      	strb	r2, [r1, #14]
   80360:	f24e 0310 	movw	r3, #57360	; 0xe010
   80364:	f2ce 0300 	movt	r3, #57344	; 0xe000
   80368:	6818      	ldr	r0, [r3, #0]
   8036a:	b988      	cbnz	r0, 80390 <sd_mmc_select_slot+0xbc>
   8036c:	f640 3006 	movw	r0, #2822	; 0xb06
   80370:	f2c2 0007 	movt	r0, #8199	; 0x2007
   80374:	7002      	strb	r2, [r0, #0]
   80376:	f24e 0310 	movw	r3, #57360	; 0xe010
   8037a:	f2ce 0300 	movt	r3, #57344	; 0xe000
   8037e:	f243 71a0 	movw	r1, #14240	; 0x37a0
   80382:	f2c0 01a0 	movt	r1, #160	; 0xa0
   80386:	6059      	str	r1, [r3, #4]
   80388:	601a      	str	r2, [r3, #0]
   8038a:	f04f 0002 	mov.w	r0, #2
   8038e:	bd10      	pop	{r4, pc}
   80390:	f640 3106 	movw	r1, #2822	; 0xb06
   80394:	f2c2 0107 	movt	r1, #8199	; 0x2007
   80398:	f04f 0200 	mov.w	r2, #0
   8039c:	700a      	strb	r2, [r1, #0]
   8039e:	f648 5080 	movw	r0, #36224	; 0x8d80
   803a2:	f2c0 005b 	movt	r0, #91	; 0x5b
   803a6:	f240 0301 	movw	r3, #1
   803aa:	f2c2 0307 	movt	r3, #8199	; 0x2007
   803ae:	4798      	blx	r3
   803b0:	f04f 0002 	mov.w	r0, #2
   803b4:	bd10      	pop	{r4, pc}
   803b6:	2801      	cmp	r0, #1
   803b8:	d116      	bne.n	803e8 <sd_mmc_select_slot+0x114>
   803ba:	f640 3106 	movw	r1, #2822	; 0xb06
   803be:	f2c2 0107 	movt	r1, #8199	; 0x2007
   803c2:	780b      	ldrb	r3, [r1, #0]
   803c4:	2b00      	cmp	r3, #0
   803c6:	d03a      	beq.n	8043e <sd_mmc_select_slot+0x16a>
   803c8:	f24e 0210 	movw	r2, #57360	; 0xe010
   803cc:	f2ce 0200 	movt	r2, #57344	; 0xe000
   803d0:	6810      	ldr	r0, [r2, #0]
   803d2:	f410 3f80 	tst.w	r0, #65536	; 0x10000
   803d6:	d02c      	beq.n	80432 <sd_mmc_select_slot+0x15e>
   803d8:	f24e 0110 	movw	r1, #57360	; 0xe010
   803dc:	f2ce 0100 	movt	r1, #57344	; 0xe000
   803e0:	f04f 0300 	mov.w	r3, #0
   803e4:	600b      	str	r3, [r1, #0]
   803e6:	e02a      	b.n	8043e <sd_mmc_select_slot+0x16a>
   803e8:	f240 000c 	movw	r0, #12
   803ec:	f2c2 0007 	movt	r0, #8199	; 0x2007
   803f0:	7b81      	ldrb	r1, [r0, #14]
   803f2:	2903      	cmp	r1, #3
   803f4:	d020      	beq.n	80438 <sd_mmc_select_slot+0x164>
   803f6:	f640 340e 	movw	r4, #2830	; 0xb0e
   803fa:	f2c2 0407 	movt	r4, #8199	; 0x2007
   803fe:	f04f 0300 	mov.w	r3, #0
   80402:	7023      	strb	r3, [r4, #0]
   80404:	f240 040c 	movw	r4, #12
   80408:	f2c2 0407 	movt	r4, #8199	; 0x2007
   8040c:	f640 3208 	movw	r2, #2824	; 0xb08
   80410:	f2c2 0207 	movt	r2, #8199	; 0x2007
   80414:	6014      	str	r4, [r2, #0]
   80416:	f240 10a5 	movw	r0, #421	; 0x1a5
   8041a:	f2c0 0008 	movt	r0, #8
   8041e:	4780      	blx	r0
   80420:	7ba0      	ldrb	r0, [r4, #14]
   80422:	2802      	cmp	r0, #2
   80424:	bf14      	ite	ne
   80426:	2000      	movne	r0, #0
   80428:	2001      	moveq	r0, #1
   8042a:	bd10      	pop	{r4, pc}
   8042c:	f04f 0004 	mov.w	r0, #4
   80430:	bd10      	pop	{r4, pc}
   80432:	f04f 0002 	mov.w	r0, #2
   80436:	bd10      	pop	{r4, pc}
   80438:	f04f 0003 	mov.w	r0, #3
   8043c:	bd10      	pop	{r4, pc}
   8043e:	f240 000c 	movw	r0, #12
   80442:	f2c2 0007 	movt	r0, #8199	; 0x2007
   80446:	f04f 0202 	mov.w	r2, #2
   8044a:	7382      	strb	r2, [r0, #14]
   8044c:	f44f 51d4 	mov.w	r1, #6784	; 0x1a80
   80450:	f2c0 0106 	movt	r1, #6
   80454:	6001      	str	r1, [r0, #0]
   80456:	f04f 0301 	mov.w	r3, #1
   8045a:	7443      	strb	r3, [r0, #17]
   8045c:	f04f 0200 	mov.w	r2, #0
   80460:	f880 2022 	strb.w	r2, [r0, #34]	; 0x22
   80464:	e7c0      	b.n	803e8 <sd_mmc_select_slot+0x114>
   80466:	bf00      	nop

00080468 <sd_mmc_init>:
   80468:	b508      	push	{r3, lr}
   8046a:	f240 030c 	movw	r3, #12
   8046e:	f2c2 0307 	movt	r3, #8199	; 0x2007
   80472:	f04f 0204 	mov.w	r2, #4
   80476:	739a      	strb	r2, [r3, #14]
   80478:	f640 300e 	movw	r0, #2830	; 0xb0e
   8047c:	f2c2 0007 	movt	r0, #8199	; 0x2007
   80480:	f04f 01ff 	mov.w	r1, #255	; 0xff
   80484:	7001      	strb	r1, [r0, #0]
   80486:	f244 2395 	movw	r3, #17045	; 0x4295
   8048a:	f2c0 0308 	movt	r3, #8
   8048e:	4798      	blx	r3
   80490:	bd08      	pop	{r3, pc}
   80492:	bf00      	nop

00080494 <sd_mmc_check>:
   80494:	e92d 4ff0 	stmdb	sp!, {r4, r5, r6, r7, r8, r9, sl, fp, lr}
   80498:	b095      	sub	sp, #84	; 0x54
   8049a:	f240 23d5 	movw	r3, #725	; 0x2d5
   8049e:	f2c0 0308 	movt	r3, #8
   804a2:	4798      	blx	r3
   804a4:	4604      	mov	r4, r0
   804a6:	2801      	cmp	r0, #1
   804a8:	d006      	beq.n	804b8 <sd_mmc_check+0x24>
   804aa:	f240 2129 	movw	r1, #553	; 0x229
   804ae:	f2c0 0108 	movt	r1, #8
   804b2:	4788      	blx	r1
   804b4:	f000 bd5d 	b.w	80f72 <sd_mmc_check+0xade>
   804b8:	f640 3008 	movw	r0, #2824	; 0xb08
   804bc:	f2c2 0007 	movt	r0, #8199	; 0x2007
   804c0:	6801      	ldr	r1, [r0, #0]
   804c2:	f04f 0201 	mov.w	r2, #1
   804c6:	73ca      	strb	r2, [r1, #15]
   804c8:	f04f 0500 	mov.w	r5, #0
   804cc:	740d      	strb	r5, [r1, #16]
   804ce:	818d      	strh	r5, [r1, #12]
   804d0:	f244 3359 	movw	r3, #17241	; 0x4359
   804d4:	f2c0 0308 	movt	r3, #8
   804d8:	4798      	blx	r3
   804da:	f44f 4080 	mov.w	r0, #16384	; 0x4000
   804de:	4629      	mov	r1, r5
   804e0:	f244 327d 	movw	r2, #17277	; 0x437d
   804e4:	f2c0 0208 	movt	r2, #8
   804e8:	4790      	blx	r2
   804ea:	2800      	cmp	r0, #0
   804ec:	f000 84c1 	beq.w	80e72 <sd_mmc_check+0x9de>
   804f0:	f245 5008 	movw	r0, #21768	; 0x5508
   804f4:	f44f 71d5 	mov.w	r1, #426	; 0x1aa
   804f8:	f244 337d 	movw	r3, #17277	; 0x437d
   804fc:	f2c0 0308 	movt	r3, #8
   80500:	4798      	blx	r3
   80502:	2800      	cmp	r0, #0
   80504:	f000 84c3 	beq.w	80e8e <sd_mmc_check+0x9fa>
   80508:	f244 30a5 	movw	r0, #17317	; 0x43a5
   8050c:	f2c0 0008 	movt	r0, #8
   80510:	4780      	blx	r0
   80512:	f1b0 3fff 	cmp.w	r0, #4294967295
   80516:	f000 84bd 	beq.w	80e94 <sd_mmc_check+0xa00>
   8051a:	ea4f 5100 	mov.w	r1, r0, lsl #20
   8051e:	ea4f 5211 	mov.w	r2, r1, lsr #20
   80522:	f5b2 7fd5 	cmp.w	r2, #426	; 0x1aa
   80526:	f040 84a4 	bne.w	80e72 <sd_mmc_check+0x9de>
   8052a:	f04f 0601 	mov.w	r6, #1
   8052e:	f000 bcb3 	b.w	80e98 <sd_mmc_check+0xa04>
   80532:	f244 30a5 	movw	r0, #17317	; 0x43a5
   80536:	f2c0 0008 	movt	r0, #8
   8053a:	4780      	blx	r0
   8053c:	4601      	mov	r1, r0
   8053e:	f010 4fe0 	tst.w	r0, #1879048192	; 0x70000000
   80542:	f000 84b5 	beq.w	80eb0 <sd_mmc_check+0xa1c>
   80546:	f241 3989 	movw	r9, #5001	; 0x1389
   8054a:	f244 5705 	movw	r7, #17669	; 0x4505
   8054e:	f244 357d 	movw	r5, #17277	; 0x437d
   80552:	f2c0 0508 	movt	r5, #8
   80556:	f244 38a5 	movw	r8, #17317	; 0x43a5
   8055a:	f2c0 0808 	movt	r8, #8
   8055e:	4638      	mov	r0, r7
   80560:	f401 11fc 	and.w	r1, r1, #2064384	; 0x1f8000
   80564:	47a8      	blx	r5
   80566:	2800      	cmp	r0, #0
   80568:	f000 8483 	beq.w	80e72 <sd_mmc_check+0x9de>
   8056c:	47c0      	blx	r8
   8056e:	1e01      	subs	r1, r0, #0
   80570:	db0a      	blt.n	80588 <sd_mmc_check+0xf4>
   80572:	f109 39ff 	add.w	r9, r9, #4294967295
   80576:	4638      	mov	r0, r7
   80578:	f401 11fc 	and.w	r1, r1, #2064384	; 0x1f8000
   8057c:	47a8      	blx	r5
   8057e:	2800      	cmp	r0, #0
   80580:	f040 8539 	bne.w	80ff6 <sd_mmc_check+0xb62>
   80584:	f000 bc75 	b.w	80e72 <sd_mmc_check+0x9de>
   80588:	f011 6f00 	tst.w	r1, #134217728	; 0x8000000
   8058c:	f640 3308 	movw	r3, #2824	; 0xb08
   80590:	f2c2 0307 	movt	r3, #8199	; 0x2007
   80594:	6818      	ldr	r0, [r3, #0]
   80596:	bf14      	ite	ne
   80598:	2205      	movne	r2, #5
   8059a:	2204      	moveq	r2, #4
   8059c:	73c2      	strb	r2, [r0, #15]
   8059e:	f000 bc87 	b.w	80eb0 <sd_mmc_check+0xa1c>
   805a2:	f241 1737 	movw	r7, #4407	; 0x1137
   805a6:	f04f 0800 	mov.w	r8, #0
   805aa:	f244 357d 	movw	r5, #17277	; 0x437d
   805ae:	f2c0 0508 	movt	r5, #8
   805b2:	f44f 4900 	mov.w	r9, #32768	; 0x8000
   805b6:	f244 3aa5 	movw	sl, #17317	; 0x43a5
   805ba:	f2c0 0a08 	movt	sl, #8
   805be:	4638      	mov	r0, r7
   805c0:	4641      	mov	r1, r8
   805c2:	47a8      	blx	r5
   805c4:	2800      	cmp	r0, #0
   805c6:	f040 84ea 	bne.w	80f9e <sd_mmc_check+0xb0a>
   805ca:	f000 bc7d 	b.w	80ec8 <sd_mmc_check+0xa34>
   805ce:	4638      	mov	r0, r7
   805d0:	4641      	mov	r1, r8
   805d2:	47a8      	blx	r5
   805d4:	2800      	cmp	r0, #0
   805d6:	f000 8477 	beq.w	80ec8 <sd_mmc_check+0xa34>
   805da:	4649      	mov	r1, r9
   805dc:	f2c4 011f 	movt	r1, #16415	; 0x401f
   805e0:	f244 5029 	movw	r0, #17705	; 0x4529
   805e4:	2e00      	cmp	r6, #0
   805e6:	bf08      	it	eq
   805e8:	f44f 11fc 	moveq.w	r1, #2064384	; 0x1f8000
   805ec:	47a8      	blx	r5
   805ee:	2800      	cmp	r0, #0
   805f0:	f000 846a 	beq.w	80ec8 <sd_mmc_check+0xa34>
   805f4:	47d0      	blx	sl
   805f6:	2800      	cmp	r0, #0
   805f8:	da0e      	bge.n	80618 <sd_mmc_check+0x184>
   805fa:	f010 4f80 	tst.w	r0, #1073741824	; 0x40000000
   805fe:	f000 848f 	beq.w	80f20 <sd_mmc_check+0xa8c>
   80602:	f640 3008 	movw	r0, #2824	; 0xb08
   80606:	f2c2 0007 	movt	r0, #8199	; 0x2007
   8060a:	6801      	ldr	r1, [r0, #0]
   8060c:	7bca      	ldrb	r2, [r1, #15]
   8060e:	f042 0308 	orr.w	r3, r2, #8
   80612:	73cb      	strb	r3, [r1, #15]
   80614:	f000 bc84 	b.w	80f20 <sd_mmc_check+0xa8c>
   80618:	f10b 3bff 	add.w	fp, fp, #4294967295
   8061c:	4638      	mov	r0, r7
   8061e:	4641      	mov	r1, r8
   80620:	47a8      	blx	r5
   80622:	2800      	cmp	r0, #0
   80624:	f040 84d1 	bne.w	80fca <sd_mmc_check+0xb36>
   80628:	f000 bc4e 	b.w	80ec8 <sd_mmc_check+0xa34>
   8062c:	f44f 4500 	mov.w	r5, #32768	; 0x8000
   80630:	f2c4 051f 	movt	r5, #16415	; 0x401f
   80634:	f244 5701 	movw	r7, #17665	; 0x4501
   80638:	f244 387d 	movw	r8, #17277	; 0x437d
   8063c:	f2c0 0808 	movt	r8, #8
   80640:	f244 39a5 	movw	r9, #17317	; 0x43a5
   80644:	f2c0 0908 	movt	r9, #8
   80648:	4638      	mov	r0, r7
   8064a:	4629      	mov	r1, r5
   8064c:	47c0      	blx	r8
   8064e:	2800      	cmp	r0, #0
   80650:	f040 8493 	bne.w	80f7a <sd_mmc_check+0xae6>
   80654:	f000 bc79 	b.w	80f4a <sd_mmc_check+0xab6>
   80658:	4638      	mov	r0, r7
   8065a:	4629      	mov	r1, r5
   8065c:	47c0      	blx	r8
   8065e:	2800      	cmp	r0, #0
   80660:	f000 8473 	beq.w	80f4a <sd_mmc_check+0xab6>
   80664:	47c8      	blx	r9
   80666:	2800      	cmp	r0, #0
   80668:	da0d      	bge.n	80686 <sd_mmc_check+0x1f2>
   8066a:	f000 40c0 	and.w	r0, r0, #1610612736	; 0x60000000
   8066e:	f1b0 4f80 	cmp.w	r0, #1073741824	; 0x40000000
   80672:	f040 8460 	bne.w	80f36 <sd_mmc_check+0xaa2>
   80676:	49a6      	ldr	r1, [pc, #664]	; (80910 <sd_mmc_check+0x47c>)
   80678:	680b      	ldr	r3, [r1, #0]
   8067a:	7bda      	ldrb	r2, [r3, #15]
   8067c:	f042 0008 	orr.w	r0, r2, #8
   80680:	73d8      	strb	r0, [r3, #15]
   80682:	f000 bc58 	b.w	80f36 <sd_mmc_check+0xaa2>
   80686:	f106 36ff 	add.w	r6, r6, #4294967295
   8068a:	4638      	mov	r0, r7
   8068c:	4629      	mov	r1, r5
   8068e:	47c0      	blx	r8
   80690:	2800      	cmp	r0, #0
   80692:	f040 847c 	bne.w	80f8e <sd_mmc_check+0xafa>
   80696:	f000 bc58 	b.w	80f4a <sd_mmc_check+0xab6>
   8069a:	499d      	ldr	r1, [pc, #628]	; (80910 <sd_mmc_check+0x47c>)
   8069c:	6808      	ldr	r0, [r1, #0]
   8069e:	f04f 0201 	mov.w	r2, #1
   806a2:	8182      	strh	r2, [r0, #12]
   806a4:	f241 1003 	movw	r0, #4355	; 0x1103
   806a8:	f44f 3180 	mov.w	r1, #65536	; 0x10000
   806ac:	4b99      	ldr	r3, [pc, #612]	; (80914 <sd_mmc_check+0x480>)
   806ae:	4798      	blx	r3
   806b0:	2800      	cmp	r0, #0
   806b2:	f000 8121 	beq.w	808f8 <sd_mmc_check+0x464>
   806b6:	4998      	ldr	r1, [pc, #608]	; (80918 <sd_mmc_check+0x484>)
   806b8:	4788      	blx	r1
   806ba:	2800      	cmp	r0, #0
   806bc:	f000 811f 	beq.w	808fe <sd_mmc_check+0x46a>
   806c0:	4893      	ldr	r0, [pc, #588]	; (80910 <sd_mmc_check+0x47c>)
   806c2:	6803      	ldr	r3, [r0, #0]
   806c4:	7c9a      	ldrb	r2, [r3, #18]
   806c6:	f3c2 0183 	ubfx	r1, r2, #2, #4
   806ca:	f101 30ff 	add.w	r0, r1, #4294967295
   806ce:	2803      	cmp	r0, #3
   806d0:	d803      	bhi.n	806da <sd_mmc_check+0x246>
   806d2:	e8df f000 	tbb	[pc, r0]
   806d6:	0a06      	.short	0x0a06
   806d8:	120e      	.short	0x120e
   806da:	f04f 0112 	mov.w	r1, #18
   806de:	7419      	strb	r1, [r3, #16]
   806e0:	e00e      	b.n	80700 <sd_mmc_check+0x26c>
   806e2:	f04f 0214 	mov.w	r2, #20
   806e6:	741a      	strb	r2, [r3, #16]
   806e8:	e00a      	b.n	80700 <sd_mmc_check+0x26c>
   806ea:	f04f 0022 	mov.w	r0, #34	; 0x22
   806ee:	7418      	strb	r0, [r3, #16]
   806f0:	e006      	b.n	80700 <sd_mmc_check+0x26c>
   806f2:	f04f 0130 	mov.w	r1, #48	; 0x30
   806f6:	7419      	strb	r1, [r3, #16]
   806f8:	e002      	b.n	80700 <sd_mmc_check+0x26c>
   806fa:	f04f 0240 	mov.w	r2, #64	; 0x40
   806fe:	741a      	strb	r2, [r3, #16]
   80700:	7d5a      	ldrb	r2, [r3, #21]
   80702:	f002 0007 	and.w	r0, r2, #7
   80706:	4985      	ldr	r1, [pc, #532]	; (8091c <sd_mmc_check+0x488>)
   80708:	f851 1020 	ldr.w	r1, [r1, r0, lsl #2]
   8070c:	f44f 707a 	mov.w	r0, #1000	; 0x3e8
   80710:	fb00 f101 	mul.w	r1, r0, r1
   80714:	f3c2 02c3 	ubfx	r2, r2, #3, #4
   80718:	4881      	ldr	r0, [pc, #516]	; (80920 <sd_mmc_check+0x48c>)
   8071a:	f850 2022 	ldr.w	r2, [r0, r2, lsl #2]
   8071e:	fb02 f101 	mul.w	r1, r2, r1
   80722:	6019      	str	r1, [r3, #0]
   80724:	7e99      	ldrb	r1, [r3, #26]
   80726:	7e18      	ldrb	r0, [r3, #24]
   80728:	7e5a      	ldrb	r2, [r3, #25]
   8072a:	ea4f 0282 	mov.w	r2, r2, lsl #2
   8072e:	ea42 2080 	orr.w	r0, r2, r0, lsl #10
   80732:	ea40 11a1 	orr.w	r1, r0, r1, asr #6
   80736:	ea4f 5201 	mov.w	r2, r1, lsl #20
   8073a:	ea4f 5112 	mov.w	r1, r2, lsr #20
   8073e:	f512 1f80 	cmn.w	r2, #1048576	; 0x100000
   80742:	d015      	beq.n	80770 <sd_mmc_check+0x2dc>
   80744:	7f18      	ldrb	r0, [r3, #28]
   80746:	7eda      	ldrb	r2, [r3, #27]
   80748:	ea4f 0242 	mov.w	r2, r2, lsl #1
   8074c:	ea42 10e0 	orr.w	r0, r2, r0, asr #7
   80750:	f101 0101 	add.w	r1, r1, #1
   80754:	f000 0207 	and.w	r2, r0, #7
   80758:	f102 0202 	add.w	r2, r2, #2
   8075c:	fa01 f102 	lsl.w	r1, r1, r2
   80760:	7dd8      	ldrb	r0, [r3, #23]
   80762:	f000 020f 	and.w	r2, r0, #15
   80766:	fa01 f102 	lsl.w	r1, r1, r2
   8076a:	ea4f 2091 	mov.w	r0, r1, lsr #10
   8076e:	6058      	str	r0, [r3, #4]
   80770:	899b      	ldrh	r3, [r3, #12]
   80772:	f243 1007 	movw	r0, #12551	; 0x3107
   80776:	ea4f 4103 	mov.w	r1, r3, lsl #16
   8077a:	4a66      	ldr	r2, [pc, #408]	; (80914 <sd_mmc_check+0x480>)
   8077c:	4790      	blx	r2
   8077e:	2800      	cmp	r0, #0
   80780:	f000 80c0 	beq.w	80904 <sd_mmc_check+0x470>
   80784:	4d62      	ldr	r5, [pc, #392]	; (80910 <sd_mmc_check+0x47c>)
   80786:	6829      	ldr	r1, [r5, #0]
   80788:	7c08      	ldrb	r0, [r1, #16]
   8078a:	283f      	cmp	r0, #63	; 0x3f
   8078c:	f240 809c 	bls.w	808c8 <sd_mmc_check+0x434>
   80790:	f04f 0100 	mov.w	r1, #0
   80794:	9100      	str	r1, [sp, #0]
   80796:	f241 1008 	movw	r0, #4360	; 0x1108
   8079a:	f2c0 0008 	movt	r0, #8
   8079e:	f44f 7200 	mov.w	r2, #512	; 0x200
   807a2:	f04f 0301 	mov.w	r3, #1
   807a6:	4d5f      	ldr	r5, [pc, #380]	; (80924 <sd_mmc_check+0x490>)
   807a8:	47a8      	blx	r5
   807aa:	2800      	cmp	r0, #0
   807ac:	f000 83d0 	beq.w	80f50 <sd_mmc_check+0xabc>
   807b0:	f04f 0500 	mov.w	r5, #0
   807b4:	4e5c      	ldr	r6, [pc, #368]	; (80928 <sd_mmc_check+0x494>)
   807b6:	a802      	add	r0, sp, #8
   807b8:	47b0      	blx	r6
   807ba:	2800      	cmp	r0, #0
   807bc:	f000 83c8 	beq.w	80f50 <sd_mmc_check+0xabc>
   807c0:	f105 0501 	add.w	r5, r5, #1
   807c4:	b2ad      	uxth	r5, r5
   807c6:	2d32      	cmp	r5, #50	; 0x32
   807c8:	d1f5      	bne.n	807b6 <sd_mmc_check+0x322>
   807ca:	9e02      	ldr	r6, [sp, #8]
   807cc:	f006 0302 	and.w	r3, r6, #2
   807d0:	b2de      	uxtb	r6, r3
   807d2:	4a4f      	ldr	r2, [pc, #316]	; (80910 <sd_mmc_check+0x47c>)
   807d4:	6810      	ldr	r0, [r2, #0]
   807d6:	7e87      	ldrb	r7, [r0, #26]
   807d8:	7e01      	ldrb	r1, [r0, #24]
   807da:	7e43      	ldrb	r3, [r0, #25]
   807dc:	ea4f 0283 	mov.w	r2, r3, lsl #2
   807e0:	ea42 2081 	orr.w	r0, r2, r1, lsl #10
   807e4:	ea40 17a7 	orr.w	r7, r0, r7, asr #6
   807e8:	ea4f 5107 	mov.w	r1, r7, lsl #20
   807ec:	f511 1f80 	cmn.w	r1, #1048576	; 0x100000
   807f0:	d11a      	bne.n	80828 <sd_mmc_check+0x394>
   807f2:	4f4d      	ldr	r7, [pc, #308]	; (80928 <sd_mmc_check+0x494>)
   807f4:	a803      	add	r0, sp, #12
   807f6:	47b8      	blx	r7
   807f8:	2800      	cmp	r0, #0
   807fa:	f000 83a9 	beq.w	80f50 <sd_mmc_check+0xabc>
   807fe:	f105 0501 	add.w	r5, r5, #1
   80802:	b2ad      	uxth	r5, r5
   80804:	2d35      	cmp	r5, #53	; 0x35
   80806:	d9f5      	bls.n	807f4 <sd_mmc_check+0x360>
   80808:	4b41      	ldr	r3, [pc, #260]	; (80910 <sd_mmc_check+0x47c>)
   8080a:	681a      	ldr	r2, [r3, #0]
   8080c:	9803      	ldr	r0, [sp, #12]
   8080e:	ea4f 0750 	mov.w	r7, r0, lsr #1
   80812:	6057      	str	r7, [r2, #4]
   80814:	e008      	b.n	80828 <sd_mmc_check+0x394>
   80816:	a803      	add	r0, sp, #12
   80818:	47b8      	blx	r7
   8081a:	2800      	cmp	r0, #0
   8081c:	f000 8398 	beq.w	80f50 <sd_mmc_check+0xabc>
   80820:	f105 0501 	add.w	r5, r5, #1
   80824:	b2ad      	uxth	r5, r5
   80826:	e000      	b.n	8082a <sd_mmc_check+0x396>
   80828:	4f3f      	ldr	r7, [pc, #252]	; (80928 <sd_mmc_check+0x494>)
   8082a:	2d7f      	cmp	r5, #127	; 0x7f
   8082c:	d9f3      	bls.n	80816 <sd_mmc_check+0x382>
   8082e:	e392      	b.n	80f56 <sd_mmc_check+0xac2>
   80830:	4d3e      	ldr	r5, [pc, #248]	; (8092c <sd_mmc_check+0x498>)
   80832:	7828      	ldrb	r0, [r5, #0]
   80834:	4a3e      	ldr	r2, [pc, #248]	; (80930 <sd_mmc_check+0x49c>)
   80836:	4790      	blx	r2
   80838:	4605      	mov	r5, r0
   8083a:	2804      	cmp	r0, #4
   8083c:	d00b      	beq.n	80856 <sd_mmc_check+0x3c2>
   8083e:	f44f 7100 	mov.w	r1, #512	; 0x200
   80842:	f2c0 11b7 	movt	r1, #439	; 0x1b7
   80846:	f04f 0000 	mov.w	r0, #0
   8084a:	f2c0 10b7 	movt	r0, #439	; 0x1b7
   8084e:	2d08      	cmp	r5, #8
   80850:	bf18      	it	ne
   80852:	4601      	movne	r1, r0
   80854:	e003      	b.n	8085e <sd_mmc_check+0x3ca>
   80856:	f44f 7180 	mov.w	r1, #256	; 0x100
   8085a:	f2c0 11b7 	movt	r1, #439	; 0x1b7
   8085e:	f243 1006 	movw	r0, #12550	; 0x3106
   80862:	4b2c      	ldr	r3, [pc, #176]	; (80914 <sd_mmc_check+0x480>)
   80864:	4798      	blx	r3
   80866:	2800      	cmp	r0, #0
   80868:	f000 837d 	beq.w	80f66 <sd_mmc_check+0xad2>
   8086c:	4931      	ldr	r1, [pc, #196]	; (80934 <sd_mmc_check+0x4a0>)
   8086e:	4788      	blx	r1
   80870:	f010 0f80 	tst.w	r0, #128	; 0x80
   80874:	f040 8377 	bne.w	80f66 <sd_mmc_check+0xad2>
   80878:	4a25      	ldr	r2, [pc, #148]	; (80910 <sd_mmc_check+0x47c>)
   8087a:	6810      	ldr	r0, [r2, #0]
   8087c:	7445      	strb	r5, [r0, #17]
   8087e:	4b2e      	ldr	r3, [pc, #184]	; (80938 <sd_mmc_check+0x4a4>)
   80880:	4798      	blx	r3
   80882:	492e      	ldr	r1, [pc, #184]	; (8093c <sd_mmc_check+0x4a8>)
   80884:	4788      	blx	r1
   80886:	b338      	cbz	r0, 808d8 <sd_mmc_check+0x444>
   80888:	b336      	cbz	r6, 808d8 <sd_mmc_check+0x444>
   8088a:	f243 1006 	movw	r0, #12550	; 0x3106
   8088e:	f44f 7180 	mov.w	r1, #256	; 0x100
   80892:	f2c0 31b9 	movt	r1, #953	; 0x3b9
   80896:	4a1f      	ldr	r2, [pc, #124]	; (80914 <sd_mmc_check+0x480>)
   80898:	4790      	blx	r2
   8089a:	2800      	cmp	r0, #0
   8089c:	f000 8366 	beq.w	80f6c <sd_mmc_check+0xad8>
   808a0:	4824      	ldr	r0, [pc, #144]	; (80934 <sd_mmc_check+0x4a0>)
   808a2:	4780      	blx	r0
   808a4:	f010 0f80 	tst.w	r0, #128	; 0x80
   808a8:	f040 8360 	bne.w	80f6c <sd_mmc_check+0xad8>
   808ac:	4e18      	ldr	r6, [pc, #96]	; (80910 <sd_mmc_check+0x47c>)
   808ae:	6837      	ldr	r7, [r6, #0]
   808b0:	f04f 0501 	mov.w	r5, #1
   808b4:	f887 5022 	strb.w	r5, [r7, #34]	; 0x22
   808b8:	f44f 43ea 	mov.w	r3, #29952	; 0x7500
   808bc:	f2c0 3319 	movt	r3, #793	; 0x319
   808c0:	603b      	str	r3, [r7, #0]
   808c2:	491d      	ldr	r1, [pc, #116]	; (80938 <sd_mmc_check+0x4a4>)
   808c4:	4788      	blx	r1
   808c6:	e007      	b.n	808d8 <sd_mmc_check+0x444>
   808c8:	4f1b      	ldr	r7, [pc, #108]	; (80938 <sd_mmc_check+0x4a4>)
   808ca:	47b8      	blx	r7
   808cc:	e004      	b.n	808d8 <sd_mmc_check+0x444>
   808ce:	4640      	mov	r0, r8
   808d0:	4639      	mov	r1, r7
   808d2:	47b0      	blx	r6
   808d4:	b140      	cbz	r0, 808e8 <sd_mmc_check+0x454>
   808d6:	e018      	b.n	8090a <sd_mmc_check+0x476>
   808d8:	f04f 050a 	mov.w	r5, #10
   808dc:	f241 1810 	movw	r8, #4368	; 0x1110
   808e0:	f44f 7700 	mov.w	r7, #512	; 0x200
   808e4:	4e0b      	ldr	r6, [pc, #44]	; (80914 <sd_mmc_check+0x480>)
   808e6:	e7f2      	b.n	808ce <sd_mmc_check+0x43a>
   808e8:	f105 32ff 	add.w	r2, r5, #4294967295
   808ec:	f012 05ff 	ands.w	r5, r2, #255	; 0xff
   808f0:	d1ed      	bne.n	808ce <sd_mmc_check+0x43a>
   808f2:	f04f 0000 	mov.w	r0, #0
   808f6:	e2ad      	b.n	80e54 <sd_mmc_check+0x9c0>
   808f8:	f04f 0000 	mov.w	r0, #0
   808fc:	e2aa      	b.n	80e54 <sd_mmc_check+0x9c0>
   808fe:	f04f 0000 	mov.w	r0, #0
   80902:	e2a7      	b.n	80e54 <sd_mmc_check+0x9c0>
   80904:	f04f 0000 	mov.w	r0, #0
   80908:	e2a4      	b.n	80e54 <sd_mmc_check+0x9c0>
   8090a:	f04f 0001 	mov.w	r0, #1
   8090e:	e2a1      	b.n	80e54 <sd_mmc_check+0x9c0>
   80910:	20070b08 	.word	0x20070b08
   80914:	0008437d 	.word	0x0008437d
   80918:	0008028d 	.word	0x0008028d
   8091c:	0008c23c 	.word	0x0008c23c
   80920:	0008c258 	.word	0x0008c258
   80924:	0008440d 	.word	0x0008440d
   80928:	000844e5 	.word	0x000844e5
   8092c:	20070b0e 	.word	0x20070b0e
   80930:	000842cd 	.word	0x000842cd
   80934:	000843a5 	.word	0x000843a5
   80938:	000801a5 	.word	0x000801a5
   8093c:	000842d9 	.word	0x000842d9
   80940:	f645 3002 	movw	r0, #23298	; 0x5b02
   80944:	f04f 0100 	mov.w	r1, #0
   80948:	f244 337d 	movw	r3, #17277	; 0x437d
   8094c:	f2c0 0308 	movt	r3, #8
   80950:	4798      	blx	r3
   80952:	2800      	cmp	r0, #0
   80954:	f000 828d 	beq.w	80e72 <sd_mmc_check+0x9de>
   80958:	f245 1003 	movw	r0, #20739	; 0x5103
   8095c:	f04f 0100 	mov.w	r1, #0
   80960:	f244 327d 	movw	r2, #17277	; 0x437d
   80964:	f2c0 0208 	movt	r2, #8
   80968:	4790      	blx	r2
   8096a:	2800      	cmp	r0, #0
   8096c:	f000 8281 	beq.w	80e72 <sd_mmc_check+0x9de>
   80970:	f640 3508 	movw	r5, #2824	; 0xb08
   80974:	f2c2 0507 	movt	r5, #8199	; 0x2007
   80978:	682e      	ldr	r6, [r5, #0]
   8097a:	f244 30a5 	movw	r0, #17317	; 0x43a5
   8097e:	f2c0 0008 	movt	r0, #8
   80982:	4780      	blx	r0
   80984:	ea4f 4110 	mov.w	r1, r0, lsr #16
   80988:	81b1      	strh	r1, [r6, #12]
   8098a:	682b      	ldr	r3, [r5, #0]
   8098c:	7bda      	ldrb	r2, [r3, #15]
   8098e:	f012 0f01 	tst.w	r2, #1
   80992:	d056      	beq.n	80a42 <sd_mmc_check+0x5ae>
   80994:	f240 208d 	movw	r0, #653	; 0x28d
   80998:	f2c0 0008 	movt	r0, #8
   8099c:	4780      	blx	r0
   8099e:	2800      	cmp	r0, #0
   809a0:	f000 8267 	beq.w	80e72 <sd_mmc_check+0x9de>
   809a4:	682b      	ldr	r3, [r5, #0]
   809a6:	7d5a      	ldrb	r2, [r3, #21]
   809a8:	f002 0007 	and.w	r0, r2, #7
   809ac:	f24c 213c 	movw	r1, #49724	; 0xc23c
   809b0:	f2c0 0108 	movt	r1, #8
   809b4:	f851 1020 	ldr.w	r1, [r1, r0, lsl #2]
   809b8:	f44f 707a 	mov.w	r0, #1000	; 0x3e8
   809bc:	fb00 f101 	mul.w	r1, r0, r1
   809c0:	f3c2 02c3 	ubfx	r2, r2, #3, #4
   809c4:	f24c 10fc 	movw	r0, #49660	; 0xc1fc
   809c8:	f2c0 0008 	movt	r0, #8
   809cc:	f850 2022 	ldr.w	r2, [r0, r2, lsl #2]
   809d0:	fb02 f101 	mul.w	r1, r2, r1
   809d4:	6019      	str	r1, [r3, #0]
   809d6:	7c98      	ldrb	r0, [r3, #18]
   809d8:	0982      	lsrs	r2, r0, #6
   809da:	d00f      	beq.n	809fc <sd_mmc_check+0x568>
   809dc:	7eda      	ldrb	r2, [r3, #27]
   809de:	7e98      	ldrb	r0, [r3, #26]
   809e0:	7e59      	ldrb	r1, [r3, #25]
   809e2:	ea4f 4101 	mov.w	r1, r1, lsl #16
   809e6:	ea41 2000 	orr.w	r0, r1, r0, lsl #8
   809ea:	4302      	orrs	r2, r0
   809ec:	f422 0140 	bic.w	r1, r2, #12582912	; 0xc00000
   809f0:	f101 0101 	add.w	r1, r1, #1
   809f4:	ea4f 2041 	mov.w	r0, r1, lsl #9
   809f8:	6058      	str	r0, [r3, #4]
   809fa:	e022      	b.n	80a42 <sd_mmc_check+0x5ae>
   809fc:	7e99      	ldrb	r1, [r3, #26]
   809fe:	7e18      	ldrb	r0, [r3, #24]
   80a00:	7e5a      	ldrb	r2, [r3, #25]
   80a02:	ea4f 0282 	mov.w	r2, r2, lsl #2
   80a06:	ea42 2080 	orr.w	r0, r2, r0, lsl #10
   80a0a:	ea40 12a1 	orr.w	r2, r0, r1, asr #6
   80a0e:	7f18      	ldrb	r0, [r3, #28]
   80a10:	7ed9      	ldrb	r1, [r3, #27]
   80a12:	ea4f 0141 	mov.w	r1, r1, lsl #1
   80a16:	ea41 10e0 	orr.w	r0, r1, r0, asr #7
   80a1a:	ea4f 5202 	mov.w	r2, r2, lsl #20
   80a1e:	ea4f 5212 	mov.w	r2, r2, lsr #20
   80a22:	f102 0201 	add.w	r2, r2, #1
   80a26:	f000 0107 	and.w	r1, r0, #7
   80a2a:	f101 0102 	add.w	r1, r1, #2
   80a2e:	fa02 f001 	lsl.w	r0, r2, r1
   80a32:	7dda      	ldrb	r2, [r3, #23]
   80a34:	f002 010f 	and.w	r1, r2, #15
   80a38:	fa00 f001 	lsl.w	r0, r0, r1
   80a3c:	ea4f 2290 	mov.w	r2, r0, lsr #10
   80a40:	605a      	str	r2, [r3, #4]
   80a42:	f640 3308 	movw	r3, #2824	; 0xb08
   80a46:	f2c2 0307 	movt	r3, #8199	; 0x2007
   80a4a:	681a      	ldr	r2, [r3, #0]
   80a4c:	8991      	ldrh	r1, [r2, #12]
   80a4e:	f243 1007 	movw	r0, #12551	; 0x3107
   80a52:	ea4f 4101 	mov.w	r1, r1, lsl #16
   80a56:	f244 337d 	movw	r3, #17277	; 0x437d
   80a5a:	f2c0 0308 	movt	r3, #8
   80a5e:	4798      	blx	r3
   80a60:	2800      	cmp	r0, #0
   80a62:	f000 8206 	beq.w	80e72 <sd_mmc_check+0x9de>
   80a66:	f640 3008 	movw	r0, #2824	; 0xb08
   80a6a:	f2c2 0007 	movt	r0, #8199	; 0x2007
   80a6e:	6801      	ldr	r1, [r0, #0]
   80a70:	7bca      	ldrb	r2, [r1, #15]
   80a72:	f012 0f01 	tst.w	r2, #1
   80a76:	d04e      	beq.n	80b16 <sd_mmc_check+0x682>
   80a78:	898b      	ldrh	r3, [r1, #12]
   80a7a:	f241 1037 	movw	r0, #4407	; 0x1137
   80a7e:	ea4f 4103 	mov.w	r1, r3, lsl #16
   80a82:	f244 327d 	movw	r2, #17277	; 0x437d
   80a86:	f2c0 0208 	movt	r2, #8
   80a8a:	4790      	blx	r2
   80a8c:	2800      	cmp	r0, #0
   80a8e:	f000 81f0 	beq.w	80e72 <sd_mmc_check+0x9de>
   80a92:	f04f 0301 	mov.w	r3, #1
   80a96:	9300      	str	r3, [sp, #0]
   80a98:	f241 1033 	movw	r0, #4403	; 0x1133
   80a9c:	f2c0 0008 	movt	r0, #8
   80aa0:	f04f 0100 	mov.w	r1, #0
   80aa4:	f04f 0208 	mov.w	r2, #8
   80aa8:	4d4c      	ldr	r5, [pc, #304]	; (80bdc <sd_mmc_check+0x748>)
   80aaa:	47a8      	blx	r5
   80aac:	2800      	cmp	r0, #0
   80aae:	f000 81e0 	beq.w	80e72 <sd_mmc_check+0x9de>
   80ab2:	a804      	add	r0, sp, #16
   80ab4:	f04f 0101 	mov.w	r1, #1
   80ab8:	4b49      	ldr	r3, [pc, #292]	; (80be0 <sd_mmc_check+0x74c>)
   80aba:	4798      	blx	r3
   80abc:	2800      	cmp	r0, #0
   80abe:	f000 81d8 	beq.w	80e72 <sd_mmc_check+0x9de>
   80ac2:	4848      	ldr	r0, [pc, #288]	; (80be4 <sd_mmc_check+0x750>)
   80ac4:	4780      	blx	r0
   80ac6:	2800      	cmp	r0, #0
   80ac8:	f000 81d3 	beq.w	80e72 <sd_mmc_check+0x9de>
   80acc:	f89d 1010 	ldrb.w	r1, [sp, #16]
   80ad0:	f001 030f 	and.w	r3, r1, #15
   80ad4:	2b01      	cmp	r3, #1
   80ad6:	d009      	beq.n	80aec <sd_mmc_check+0x658>
   80ad8:	b113      	cbz	r3, 80ae0 <sd_mmc_check+0x64c>
   80ada:	2b02      	cmp	r3, #2
   80adc:	d116      	bne.n	80b0c <sd_mmc_check+0x678>
   80ade:	e00b      	b.n	80af8 <sd_mmc_check+0x664>
   80ae0:	4a41      	ldr	r2, [pc, #260]	; (80be8 <sd_mmc_check+0x754>)
   80ae2:	6813      	ldr	r3, [r2, #0]
   80ae4:	f04f 0010 	mov.w	r0, #16
   80ae8:	7418      	strb	r0, [r3, #16]
   80aea:	e014      	b.n	80b16 <sd_mmc_check+0x682>
   80aec:	493e      	ldr	r1, [pc, #248]	; (80be8 <sd_mmc_check+0x754>)
   80aee:	680b      	ldr	r3, [r1, #0]
   80af0:	f04f 021a 	mov.w	r2, #26
   80af4:	741a      	strb	r2, [r3, #16]
   80af6:	e00e      	b.n	80b16 <sd_mmc_check+0x682>
   80af8:	f89d 3012 	ldrb.w	r3, [sp, #18]
   80afc:	09db      	lsrs	r3, r3, #7
   80afe:	483a      	ldr	r0, [pc, #232]	; (80be8 <sd_mmc_check+0x754>)
   80b00:	6801      	ldr	r1, [r0, #0]
   80b02:	bf14      	ite	ne
   80b04:	2230      	movne	r2, #48	; 0x30
   80b06:	2220      	moveq	r2, #32
   80b08:	740a      	strb	r2, [r1, #16]
   80b0a:	e004      	b.n	80b16 <sd_mmc_check+0x682>
   80b0c:	4a36      	ldr	r2, [pc, #216]	; (80be8 <sd_mmc_check+0x754>)
   80b0e:	6810      	ldr	r0, [r2, #0]
   80b10:	f04f 0110 	mov.w	r1, #16
   80b14:	7401      	strb	r1, [r0, #16]
   80b16:	f640 3008 	movw	r0, #2824	; 0xb08
   80b1a:	f2c2 0007 	movt	r0, #8199	; 0x2007
   80b1e:	6801      	ldr	r1, [r0, #0]
   80b20:	7bcb      	ldrb	r3, [r1, #15]
   80b22:	f003 0204 	and.w	r2, r3, #4
   80b26:	b2d0      	uxtb	r0, r2
   80b28:	2800      	cmp	r0, #0
   80b2a:	f000 8095 	beq.w	80c58 <sd_mmc_check+0x7c4>
   80b2e:	f04f 0100 	mov.w	r1, #0
   80b32:	9103      	str	r1, [sp, #12]
   80b34:	f04f 0503 	mov.w	r5, #3
   80b38:	9500      	str	r5, [sp, #0]
   80b3a:	f04f 0301 	mov.w	r3, #1
   80b3e:	9301      	str	r3, [sp, #4]
   80b40:	4608      	mov	r0, r1
   80b42:	f04f 0209 	mov.w	r2, #9
   80b46:	f240 15d5 	movw	r5, #469	; 0x1d5
   80b4a:	f2c0 0508 	movt	r5, #8
   80b4e:	47a8      	blx	r5
   80b50:	2800      	cmp	r0, #0
   80b52:	f000 818e 	beq.w	80e72 <sd_mmc_check+0x9de>
   80b56:	a803      	add	r0, sp, #12
   80b58:	f04f 0101 	mov.w	r1, #1
   80b5c:	4b20      	ldr	r3, [pc, #128]	; (80be0 <sd_mmc_check+0x74c>)
   80b5e:	4798      	blx	r3
   80b60:	2800      	cmp	r0, #0
   80b62:	f000 8186 	beq.w	80e72 <sd_mmc_check+0x9de>
   80b66:	491f      	ldr	r1, [pc, #124]	; (80be4 <sd_mmc_check+0x750>)
   80b68:	4788      	blx	r1
   80b6a:	2800      	cmp	r0, #0
   80b6c:	f000 8181 	beq.w	80e72 <sd_mmc_check+0x9de>
   80b70:	9d03      	ldr	r5, [sp, #12]
   80b72:	f8df 8078 	ldr.w	r8, [pc, #120]	; 80bec <sd_mmc_check+0x758>
   80b76:	4f1a      	ldr	r7, [pc, #104]	; (80be0 <sd_mmc_check+0x74c>)
   80b78:	4e1a      	ldr	r6, [pc, #104]	; (80be4 <sd_mmc_check+0x750>)
   80b7a:	f04f 0203 	mov.w	r2, #3
   80b7e:	9200      	str	r2, [sp, #0]
   80b80:	f04f 0301 	mov.w	r3, #1
   80b84:	9301      	str	r3, [sp, #4]
   80b86:	f04f 0000 	mov.w	r0, #0
   80b8a:	4601      	mov	r1, r0
   80b8c:	462a      	mov	r2, r5
   80b8e:	47c0      	blx	r8
   80b90:	2800      	cmp	r0, #0
   80b92:	f000 816e 	beq.w	80e72 <sd_mmc_check+0x9de>
   80b96:	a804      	add	r0, sp, #16
   80b98:	f04f 0101 	mov.w	r1, #1
   80b9c:	47b8      	blx	r7
   80b9e:	2800      	cmp	r0, #0
   80ba0:	f000 8167 	beq.w	80e72 <sd_mmc_check+0x9de>
   80ba4:	47b0      	blx	r6
   80ba6:	2800      	cmp	r0, #0
   80ba8:	f000 8163 	beq.w	80e72 <sd_mmc_check+0x9de>
   80bac:	f89d 0010 	ldrb.w	r0, [sp, #16]
   80bb0:	28ff      	cmp	r0, #255	; 0xff
   80bb2:	f000 815e 	beq.w	80e72 <sd_mmc_check+0x9de>
   80bb6:	2822      	cmp	r0, #34	; 0x22
   80bb8:	d102      	bne.n	80bc0 <sd_mmc_check+0x72c>
   80bba:	f89d 3012 	ldrb.w	r3, [sp, #18]
   80bbe:	b1bb      	cbz	r3, 80bf0 <sd_mmc_check+0x75c>
   80bc0:	f89d 1011 	ldrb.w	r1, [sp, #17]
   80bc4:	2900      	cmp	r1, #0
   80bc6:	f000 8154 	beq.w	80e72 <sd_mmc_check+0x9de>
   80bca:	f101 0102 	add.w	r1, r1, #2
   80bce:	186d      	adds	r5, r5, r1
   80bd0:	9a03      	ldr	r2, [sp, #12]
   80bd2:	f502 7080 	add.w	r0, r2, #256	; 0x100
   80bd6:	4285      	cmp	r5, r0
   80bd8:	d9cf      	bls.n	80b7a <sd_mmc_check+0x6e6>
   80bda:	e14a      	b.n	80e72 <sd_mmc_check+0x9de>
   80bdc:	0008440d 	.word	0x0008440d
   80be0:	00084579 	.word	0x00084579
   80be4:	00084691 	.word	0x00084691
   80be8:	20070b08 	.word	0x20070b08
   80bec:	000801d5 	.word	0x000801d5
   80bf0:	f04f 0306 	mov.w	r3, #6
   80bf4:	9300      	str	r3, [sp, #0]
   80bf6:	f04f 0301 	mov.w	r3, #1
   80bfa:	9301      	str	r3, [sp, #4]
   80bfc:	f04f 0000 	mov.w	r0, #0
   80c00:	4601      	mov	r1, r0
   80c02:	462a      	mov	r2, r5
   80c04:	4dbb      	ldr	r5, [pc, #748]	; (80ef4 <sd_mmc_check+0xa60>)
   80c06:	47a8      	blx	r5
   80c08:	2800      	cmp	r0, #0
   80c0a:	f000 8132 	beq.w	80e72 <sd_mmc_check+0x9de>
   80c0e:	a804      	add	r0, sp, #16
   80c10:	f04f 0101 	mov.w	r1, #1
   80c14:	4ab8      	ldr	r2, [pc, #736]	; (80ef8 <sd_mmc_check+0xa64>)
   80c16:	4790      	blx	r2
   80c18:	2800      	cmp	r0, #0
   80c1a:	f000 812a 	beq.w	80e72 <sd_mmc_check+0x9de>
   80c1e:	49b7      	ldr	r1, [pc, #732]	; (80efc <sd_mmc_check+0xa68>)
   80c20:	4788      	blx	r1
   80c22:	2800      	cmp	r0, #0
   80c24:	f000 8125 	beq.w	80e72 <sd_mmc_check+0x9de>
   80c28:	f89d 3015 	ldrb.w	r3, [sp, #21]
   80c2c:	2b32      	cmp	r3, #50	; 0x32
   80c2e:	bf28      	it	cs
   80c30:	2332      	movcs	r3, #50	; 0x32
   80c32:	48b3      	ldr	r0, [pc, #716]	; (80f00 <sd_mmc_check+0xa6c>)
   80c34:	6802      	ldr	r2, [r0, #0]
   80c36:	f003 0007 	and.w	r0, r3, #7
   80c3a:	49b2      	ldr	r1, [pc, #712]	; (80f04 <sd_mmc_check+0xa70>)
   80c3c:	f851 1020 	ldr.w	r1, [r1, r0, lsl #2]
   80c40:	f44f 707a 	mov.w	r0, #1000	; 0x3e8
   80c44:	fb00 f101 	mul.w	r1, r0, r1
   80c48:	f3c3 03c3 	ubfx	r3, r3, #3, #4
   80c4c:	48ae      	ldr	r0, [pc, #696]	; (80f08 <sd_mmc_check+0xa74>)
   80c4e:	f850 3023 	ldr.w	r3, [r0, r3, lsl #2]
   80c52:	fb03 f101 	mul.w	r1, r3, r1
   80c56:	6011      	str	r1, [r2, #0]
   80c58:	f640 320e 	movw	r2, #2830	; 0xb0e
   80c5c:	f2c2 0207 	movt	r2, #8199	; 0x2007
   80c60:	7810      	ldrb	r0, [r2, #0]
   80c62:	f244 23cd 	movw	r3, #17101	; 0x42cd
   80c66:	f2c0 0308 	movt	r3, #8
   80c6a:	4798      	blx	r3
   80c6c:	2803      	cmp	r0, #3
   80c6e:	d959      	bls.n	80d24 <sd_mmc_check+0x890>
   80c70:	f640 3008 	movw	r0, #2824	; 0xb08
   80c74:	f2c2 0007 	movt	r0, #8199	; 0x2007
   80c78:	6801      	ldr	r1, [r0, #0]
   80c7a:	7bca      	ldrb	r2, [r1, #15]
   80c7c:	f002 0304 	and.w	r3, r2, #4
   80c80:	b2d8      	uxtb	r0, r3
   80c82:	b330      	cbz	r0, 80cd2 <sd_mmc_check+0x83e>
   80c84:	ad03      	add	r5, sp, #12
   80c86:	9500      	str	r5, [sp, #0]
   80c88:	f04f 0000 	mov.w	r0, #0
   80c8c:	4601      	mov	r1, r0
   80c8e:	f04f 0208 	mov.w	r2, #8
   80c92:	4603      	mov	r3, r0
   80c94:	4d9d      	ldr	r5, [pc, #628]	; (80f0c <sd_mmc_check+0xa78>)
   80c96:	47a8      	blx	r5
   80c98:	2800      	cmp	r0, #0
   80c9a:	f000 80ea 	beq.w	80e72 <sd_mmc_check+0x9de>
   80c9e:	f99d 100c 	ldrsb.w	r1, [sp, #12]
   80ca2:	2900      	cmp	r1, #0
   80ca4:	da15      	bge.n	80cd2 <sd_mmc_check+0x83e>
   80ca6:	ab14      	add	r3, sp, #80	; 0x50
   80ca8:	f04f 0202 	mov.w	r2, #2
   80cac:	f803 2d44 	strb.w	r2, [r3, #-68]!
   80cb0:	9300      	str	r3, [sp, #0]
   80cb2:	f04f 0001 	mov.w	r0, #1
   80cb6:	f04f 0100 	mov.w	r1, #0
   80cba:	f04f 0207 	mov.w	r2, #7
   80cbe:	4603      	mov	r3, r0
   80cc0:	47a8      	blx	r5
   80cc2:	2800      	cmp	r0, #0
   80cc4:	f000 80d5 	beq.w	80e72 <sd_mmc_check+0x9de>
   80cc8:	488d      	ldr	r0, [pc, #564]	; (80f00 <sd_mmc_check+0xa6c>)
   80cca:	6801      	ldr	r1, [r0, #0]
   80ccc:	f04f 0304 	mov.w	r3, #4
   80cd0:	744b      	strb	r3, [r1, #17]
   80cd2:	f640 3208 	movw	r2, #2824	; 0xb08
   80cd6:	f2c2 0207 	movt	r2, #8199	; 0x2007
   80cda:	6810      	ldr	r0, [r2, #0]
   80cdc:	7bc1      	ldrb	r1, [r0, #15]
   80cde:	f011 0f01 	tst.w	r1, #1
   80ce2:	d01a      	beq.n	80d1a <sd_mmc_check+0x886>
   80ce4:	8983      	ldrh	r3, [r0, #12]
   80ce6:	f241 1037 	movw	r0, #4407	; 0x1137
   80cea:	ea4f 4103 	mov.w	r1, r3, lsl #16
   80cee:	f244 327d 	movw	r2, #17277	; 0x437d
   80cf2:	f2c0 0208 	movt	r2, #8
   80cf6:	4790      	blx	r2
   80cf8:	2800      	cmp	r0, #0
   80cfa:	f000 80ba 	beq.w	80e72 <sd_mmc_check+0x9de>
   80cfe:	f241 1006 	movw	r0, #4358	; 0x1106
   80d02:	f04f 0102 	mov.w	r1, #2
   80d06:	4b82      	ldr	r3, [pc, #520]	; (80f10 <sd_mmc_check+0xa7c>)
   80d08:	4798      	blx	r3
   80d0a:	2800      	cmp	r0, #0
   80d0c:	f000 80b1 	beq.w	80e72 <sd_mmc_check+0x9de>
   80d10:	487b      	ldr	r0, [pc, #492]	; (80f00 <sd_mmc_check+0xa6c>)
   80d12:	6801      	ldr	r1, [r0, #0]
   80d14:	f04f 0204 	mov.w	r2, #4
   80d18:	744a      	strb	r2, [r1, #17]
   80d1a:	f240 13a5 	movw	r3, #421	; 0x1a5
   80d1e:	f2c0 0308 	movt	r3, #8
   80d22:	4798      	blx	r3
   80d24:	f244 20d9 	movw	r0, #17113	; 0x42d9
   80d28:	f2c0 0008 	movt	r0, #8
   80d2c:	4780      	blx	r0
   80d2e:	2800      	cmp	r0, #0
   80d30:	f000 8081 	beq.w	80e36 <sd_mmc_check+0x9a2>
   80d34:	f640 3108 	movw	r1, #2824	; 0xb08
   80d38:	f2c2 0107 	movt	r1, #8199	; 0x2007
   80d3c:	680a      	ldr	r2, [r1, #0]
   80d3e:	7bd3      	ldrb	r3, [r2, #15]
   80d40:	f003 0004 	and.w	r0, r3, #4
   80d44:	b2c1      	uxtb	r1, r0
   80d46:	b359      	cbz	r1, 80da0 <sd_mmc_check+0x90c>
   80d48:	ad03      	add	r5, sp, #12
   80d4a:	9500      	str	r5, [sp, #0]
   80d4c:	f04f 0000 	mov.w	r0, #0
   80d50:	4601      	mov	r1, r0
   80d52:	f04f 0213 	mov.w	r2, #19
   80d56:	4603      	mov	r3, r0
   80d58:	4d6c      	ldr	r5, [pc, #432]	; (80f0c <sd_mmc_check+0xa78>)
   80d5a:	47a8      	blx	r5
   80d5c:	2800      	cmp	r0, #0
   80d5e:	f000 8088 	beq.w	80e72 <sd_mmc_check+0x9de>
   80d62:	f89d 200c 	ldrb.w	r2, [sp, #12]
   80d66:	f012 0f01 	tst.w	r2, #1
   80d6a:	d019      	beq.n	80da0 <sd_mmc_check+0x90c>
   80d6c:	ab14      	add	r3, sp, #80	; 0x50
   80d6e:	f04f 0002 	mov.w	r0, #2
   80d72:	f803 0d44 	strb.w	r0, [r3, #-68]!
   80d76:	9300      	str	r3, [sp, #0]
   80d78:	f04f 0001 	mov.w	r0, #1
   80d7c:	f04f 0100 	mov.w	r1, #0
   80d80:	f04f 0213 	mov.w	r2, #19
   80d84:	4603      	mov	r3, r0
   80d86:	47a8      	blx	r5
   80d88:	2800      	cmp	r0, #0
   80d8a:	d072      	beq.n	80e72 <sd_mmc_check+0x9de>
   80d8c:	495c      	ldr	r1, [pc, #368]	; (80f00 <sd_mmc_check+0xa6c>)
   80d8e:	680b      	ldr	r3, [r1, #0]
   80d90:	f04f 0201 	mov.w	r2, #1
   80d94:	f883 2022 	strb.w	r2, [r3, #34]	; 0x22
   80d98:	6818      	ldr	r0, [r3, #0]
   80d9a:	ea4f 0140 	mov.w	r1, r0, lsl #1
   80d9e:	6019      	str	r1, [r3, #0]
   80da0:	f640 3308 	movw	r3, #2824	; 0xb08
   80da4:	f2c2 0307 	movt	r3, #8199	; 0x2007
   80da8:	6818      	ldr	r0, [r3, #0]
   80daa:	7bc2      	ldrb	r2, [r0, #15]
   80dac:	f012 0f01 	tst.w	r2, #1
   80db0:	d03c      	beq.n	80e2c <sd_mmc_check+0x998>
   80db2:	7c01      	ldrb	r1, [r0, #16]
   80db4:	2910      	cmp	r1, #16
   80db6:	d939      	bls.n	80e2c <sd_mmc_check+0x998>
   80db8:	f04f 0301 	mov.w	r3, #1
   80dbc:	9300      	str	r3, [sp, #0]
   80dbe:	f241 1006 	movw	r0, #4358	; 0x1106
   80dc2:	f2c0 0008 	movt	r0, #8
   80dc6:	f64f 7101 	movw	r1, #65281	; 0xff01
   80dca:	f2c8 01ff 	movt	r1, #33023	; 0x80ff
   80dce:	f04f 0240 	mov.w	r2, #64	; 0x40
   80dd2:	4d50      	ldr	r5, [pc, #320]	; (80f14 <sd_mmc_check+0xa80>)
   80dd4:	47a8      	blx	r5
   80dd6:	2800      	cmp	r0, #0
   80dd8:	d04b      	beq.n	80e72 <sd_mmc_check+0x9de>
   80dda:	a804      	add	r0, sp, #16
   80ddc:	f04f 0101 	mov.w	r1, #1
   80de0:	4b45      	ldr	r3, [pc, #276]	; (80ef8 <sd_mmc_check+0xa64>)
   80de2:	4798      	blx	r3
   80de4:	2800      	cmp	r0, #0
   80de6:	d044      	beq.n	80e72 <sd_mmc_check+0x9de>
   80de8:	4844      	ldr	r0, [pc, #272]	; (80efc <sd_mmc_check+0xa68>)
   80dea:	4780      	blx	r0
   80dec:	2800      	cmp	r0, #0
   80dee:	d040      	beq.n	80e72 <sd_mmc_check+0x9de>
   80df0:	4a49      	ldr	r2, [pc, #292]	; (80f18 <sd_mmc_check+0xa84>)
   80df2:	4790      	blx	r2
   80df4:	f010 0f80 	tst.w	r0, #128	; 0x80
   80df8:	d13b      	bne.n	80e72 <sd_mmc_check+0x9de>
   80dfa:	f89d 1020 	ldrb.w	r1, [sp, #32]
   80dfe:	f001 030f 	and.w	r3, r1, #15
   80e02:	2b0f      	cmp	r3, #15
   80e04:	d012      	beq.n	80e2c <sd_mmc_check+0x998>
   80e06:	f89d 002d 	ldrb.w	r0, [sp, #45]	; 0x2d
   80e0a:	f89d 202c 	ldrb.w	r2, [sp, #44]	; 0x2c
   80e0e:	ea50 2202 	orrs.w	r2, r0, r2, lsl #8
   80e12:	d12e      	bne.n	80e72 <sd_mmc_check+0x9de>
   80e14:	4941      	ldr	r1, [pc, #260]	; (80f1c <sd_mmc_check+0xa88>)
   80e16:	4788      	blx	r1
   80e18:	4b39      	ldr	r3, [pc, #228]	; (80f00 <sd_mmc_check+0xa6c>)
   80e1a:	6818      	ldr	r0, [r3, #0]
   80e1c:	f04f 0201 	mov.w	r2, #1
   80e20:	f880 2022 	strb.w	r2, [r0, #34]	; 0x22
   80e24:	6801      	ldr	r1, [r0, #0]
   80e26:	ea4f 0341 	mov.w	r3, r1, lsl #1
   80e2a:	6003      	str	r3, [r0, #0]
   80e2c:	f240 10a5 	movw	r0, #421	; 0x1a5
   80e30:	f2c0 0008 	movt	r0, #8
   80e34:	4780      	blx	r0
   80e36:	f640 3208 	movw	r2, #2824	; 0xb08
   80e3a:	f2c2 0207 	movt	r2, #8199	; 0x2007
   80e3e:	6811      	ldr	r1, [r2, #0]
   80e40:	7bcb      	ldrb	r3, [r1, #15]
   80e42:	f013 0f01 	tst.w	r3, #1
   80e46:	d006      	beq.n	80e56 <sd_mmc_check+0x9c2>
   80e48:	f241 1010 	movw	r0, #4368	; 0x1110
   80e4c:	f44f 7100 	mov.w	r1, #512	; 0x200
   80e50:	4a2f      	ldr	r2, [pc, #188]	; (80f10 <sd_mmc_check+0xa7c>)
   80e52:	4790      	blx	r2
   80e54:	b168      	cbz	r0, 80e72 <sd_mmc_check+0x9de>
   80e56:	f640 3008 	movw	r0, #2824	; 0xb08
   80e5a:	f2c2 0007 	movt	r0, #8199	; 0x2007
   80e5e:	6803      	ldr	r3, [r0, #0]
   80e60:	f04f 0100 	mov.w	r1, #0
   80e64:	7399      	strb	r1, [r3, #14]
   80e66:	f240 2229 	movw	r2, #553	; 0x229
   80e6a:	f2c0 0208 	movt	r2, #8
   80e6e:	4790      	blx	r2
   80e70:	e07f      	b.n	80f72 <sd_mmc_check+0xade>
   80e72:	f640 3408 	movw	r4, #2824	; 0xb08
   80e76:	f2c2 0407 	movt	r4, #8199	; 0x2007
   80e7a:	6820      	ldr	r0, [r4, #0]
   80e7c:	f04f 0403 	mov.w	r4, #3
   80e80:	7384      	strb	r4, [r0, #14]
   80e82:	f240 2329 	movw	r3, #553	; 0x229
   80e86:	f2c0 0308 	movt	r3, #8
   80e8a:	4798      	blx	r3
   80e8c:	e071      	b.n	80f72 <sd_mmc_check+0xade>
   80e8e:	f04f 0600 	mov.w	r6, #0
   80e92:	e001      	b.n	80e98 <sd_mmc_check+0xa04>
   80e94:	f04f 0600 	mov.w	r6, #0
   80e98:	f244 5005 	movw	r0, #17669	; 0x4505
   80e9c:	f04f 0100 	mov.w	r1, #0
   80ea0:	f244 337d 	movw	r3, #17277	; 0x437d
   80ea4:	f2c0 0308 	movt	r3, #8
   80ea8:	4798      	blx	r3
   80eaa:	2800      	cmp	r0, #0
   80eac:	f47f ab41 	bne.w	80532 <sd_mmc_check+0x9e>
   80eb0:	f640 3208 	movw	r2, #2824	; 0xb08
   80eb4:	f2c2 0207 	movt	r2, #8199	; 0x2007
   80eb8:	6811      	ldr	r1, [r2, #0]
   80eba:	7bcb      	ldrb	r3, [r1, #15]
   80ebc:	f013 0f01 	tst.w	r3, #1
   80ec0:	f43f ad4a 	beq.w	80958 <sd_mmc_check+0x4c4>
   80ec4:	f7ff bb6d 	b.w	805a2 <sd_mmc_check+0x10e>
   80ec8:	f640 3008 	movw	r0, #2824	; 0xb08
   80ecc:	f2c2 0007 	movt	r0, #8199	; 0x2007
   80ed0:	6801      	ldr	r1, [r0, #0]
   80ed2:	f04f 0302 	mov.w	r3, #2
   80ed6:	73cb      	strb	r3, [r1, #15]
   80ed8:	f44f 4080 	mov.w	r0, #16384	; 0x4000
   80edc:	f04f 0100 	mov.w	r1, #0
   80ee0:	f244 327d 	movw	r2, #17277	; 0x437d
   80ee4:	f2c0 0208 	movt	r2, #8
   80ee8:	4790      	blx	r2
   80eea:	2800      	cmp	r0, #0
   80eec:	f47f ab9e 	bne.w	8062c <sd_mmc_check+0x198>
   80ef0:	e7b0      	b.n	80e54 <sd_mmc_check+0x9c0>
   80ef2:	bf00      	nop
   80ef4:	000801d5 	.word	0x000801d5
   80ef8:	00084579 	.word	0x00084579
   80efc:	00084691 	.word	0x00084691
   80f00:	20070b08 	.word	0x20070b08
   80f04:	0008c23c 	.word	0x0008c23c
   80f08:	0008c1fc 	.word	0x0008c1fc
   80f0c:	00080249 	.word	0x00080249
   80f10:	0008437d 	.word	0x0008437d
   80f14:	0008440d 	.word	0x0008440d
   80f18:	000843a5 	.word	0x000843a5
   80f1c:	00084359 	.word	0x00084359
   80f20:	f640 3008 	movw	r0, #2824	; 0xb08
   80f24:	f2c2 0007 	movt	r0, #8199	; 0x2007
   80f28:	6801      	ldr	r1, [r0, #0]
   80f2a:	7bca      	ldrb	r2, [r1, #15]
   80f2c:	f012 0f01 	tst.w	r2, #1
   80f30:	f47f ad06 	bne.w	80940 <sd_mmc_check+0x4ac>
   80f34:	e510      	b.n	80958 <sd_mmc_check+0x4c4>
   80f36:	f645 3002 	movw	r0, #23298	; 0x5b02
   80f3a:	f04f 0100 	mov.w	r1, #0
   80f3e:	4b38      	ldr	r3, [pc, #224]	; (81020 <sd_mmc_check+0xb8c>)
   80f40:	4798      	blx	r3
   80f42:	2800      	cmp	r0, #0
   80f44:	f47f aba9 	bne.w	8069a <sd_mmc_check+0x206>
   80f48:	e784      	b.n	80e54 <sd_mmc_check+0x9c0>
   80f4a:	f04f 0000 	mov.w	r0, #0
   80f4e:	e781      	b.n	80e54 <sd_mmc_check+0x9c0>
   80f50:	f04f 0000 	mov.w	r0, #0
   80f54:	e77e      	b.n	80e54 <sd_mmc_check+0x9c0>
   80f56:	4933      	ldr	r1, [pc, #204]	; (81024 <sd_mmc_check+0xb90>)
   80f58:	7808      	ldrb	r0, [r1, #0]
   80f5a:	4b33      	ldr	r3, [pc, #204]	; (81028 <sd_mmc_check+0xb94>)
   80f5c:	4798      	blx	r3
   80f5e:	2803      	cmp	r0, #3
   80f60:	f63f ac66 	bhi.w	80830 <sd_mmc_check+0x39c>
   80f64:	e48d      	b.n	80882 <sd_mmc_check+0x3ee>
   80f66:	f04f 0000 	mov.w	r0, #0
   80f6a:	e773      	b.n	80e54 <sd_mmc_check+0x9c0>
   80f6c:	f04f 0000 	mov.w	r0, #0
   80f70:	e770      	b.n	80e54 <sd_mmc_check+0x9c0>
   80f72:	4620      	mov	r0, r4
   80f74:	b015      	add	sp, #84	; 0x54
   80f76:	e8bd 8ff0 	ldmia.w	sp!, {r4, r5, r6, r7, r8, r9, sl, fp, pc}
   80f7a:	47c8      	blx	r9
   80f7c:	2800      	cmp	r0, #0
   80f7e:	f6ff ab74 	blt.w	8066a <sd_mmc_check+0x1d6>
   80f82:	f241 0669 	movw	r6, #4201	; 0x1069
   80f86:	f106 36ff 	add.w	r6, r6, #4294967295
   80f8a:	f7ff bb65 	b.w	80658 <sd_mmc_check+0x1c4>
   80f8e:	47c8      	blx	r9
   80f90:	2800      	cmp	r0, #0
   80f92:	f6ff ab6a 	blt.w	8066a <sd_mmc_check+0x1d6>
   80f96:	3e01      	subs	r6, #1
   80f98:	f47f ab5e 	bne.w	80658 <sd_mmc_check+0x1c4>
   80f9c:	e7d5      	b.n	80f4a <sd_mmc_check+0xab6>
   80f9e:	4649      	mov	r1, r9
   80fa0:	f2c4 011f 	movt	r1, #16415	; 0x401f
   80fa4:	f244 5029 	movw	r0, #17705	; 0x4529
   80fa8:	2e00      	cmp	r6, #0
   80faa:	bf08      	it	eq
   80fac:	f44f 11fc 	moveq.w	r1, #2064384	; 0x1f8000
   80fb0:	47a8      	blx	r5
   80fb2:	2800      	cmp	r0, #0
   80fb4:	d088      	beq.n	80ec8 <sd_mmc_check+0xa34>
   80fb6:	47d0      	blx	sl
   80fb8:	2800      	cmp	r0, #0
   80fba:	f6ff ab1e 	blt.w	805fa <sd_mmc_check+0x166>
   80fbe:	f640 0b35 	movw	fp, #2101	; 0x835
   80fc2:	f10b 3bff 	add.w	fp, fp, #4294967295
   80fc6:	f7ff bb02 	b.w	805ce <sd_mmc_check+0x13a>
   80fca:	4649      	mov	r1, r9
   80fcc:	f2c4 011f 	movt	r1, #16415	; 0x401f
   80fd0:	f244 5029 	movw	r0, #17705	; 0x4529
   80fd4:	2e00      	cmp	r6, #0
   80fd6:	bf08      	it	eq
   80fd8:	f44f 11fc 	moveq.w	r1, #2064384	; 0x1f8000
   80fdc:	47a8      	blx	r5
   80fde:	2800      	cmp	r0, #0
   80fe0:	f43f af72 	beq.w	80ec8 <sd_mmc_check+0xa34>
   80fe4:	47d0      	blx	sl
   80fe6:	2800      	cmp	r0, #0
   80fe8:	f6ff ab07 	blt.w	805fa <sd_mmc_check+0x166>
   80fec:	f1bb 0b01 	subs.w	fp, fp, #1
   80ff0:	f47f aaed 	bne.w	805ce <sd_mmc_check+0x13a>
   80ff4:	e768      	b.n	80ec8 <sd_mmc_check+0xa34>
   80ff6:	47c0      	blx	r8
   80ff8:	1e01      	subs	r1, r0, #0
   80ffa:	f6ff aac5 	blt.w	80588 <sd_mmc_check+0xf4>
   80ffe:	4638      	mov	r0, r7
   81000:	f401 11fc 	and.w	r1, r1, #2064384	; 0x1f8000
   81004:	47a8      	blx	r5
   81006:	2800      	cmp	r0, #0
   81008:	f43f af33 	beq.w	80e72 <sd_mmc_check+0x9de>
   8100c:	47c0      	blx	r8
   8100e:	1e01      	subs	r1, r0, #0
   81010:	f6ff aaba 	blt.w	80588 <sd_mmc_check+0xf4>
   81014:	f1b9 0902 	subs.w	r9, r9, #2
   81018:	f47f aaa1 	bne.w	8055e <sd_mmc_check+0xca>
   8101c:	e729      	b.n	80e72 <sd_mmc_check+0x9de>
   8101e:	bf00      	nop
   81020:	0008437d 	.word	0x0008437d
   81024:	20070b0e 	.word	0x20070b0e
   81028:	000842cd 	.word	0x000842cd

0008102c <sd_mmc_get_type>:
   8102c:	b508      	push	{r3, lr}
   8102e:	f240 23d5 	movw	r3, #725	; 0x2d5
   81032:	f2c0 0308 	movt	r3, #8
   81036:	4798      	blx	r3
   81038:	b958      	cbnz	r0, 81052 <sd_mmc_get_type+0x26>
   8103a:	f240 2029 	movw	r0, #553	; 0x229
   8103e:	f2c0 0008 	movt	r0, #8
   81042:	4780      	blx	r0
   81044:	f640 3108 	movw	r1, #2824	; 0xb08
   81048:	f2c2 0107 	movt	r1, #8199	; 0x2007
   8104c:	680a      	ldr	r2, [r1, #0]
   8104e:	7bd0      	ldrb	r0, [r2, #15]
   81050:	bd08      	pop	{r3, pc}
   81052:	f04f 0000 	mov.w	r0, #0
   81056:	bd08      	pop	{r3, pc}

00081058 <sd_mmc_get_capacity>:
   81058:	b508      	push	{r3, lr}
   8105a:	f240 23d5 	movw	r3, #725	; 0x2d5
   8105e:	f2c0 0308 	movt	r3, #8
   81062:	4798      	blx	r3
   81064:	b958      	cbnz	r0, 8107e <sd_mmc_get_capacity+0x26>
   81066:	f240 2029 	movw	r0, #553	; 0x229
   8106a:	f2c0 0008 	movt	r0, #8
   8106e:	4780      	blx	r0
   81070:	f640 3108 	movw	r1, #2824	; 0xb08
   81074:	f2c2 0107 	movt	r1, #8199	; 0x2007
   81078:	680a      	ldr	r2, [r1, #0]
   8107a:	6850      	ldr	r0, [r2, #4]
   8107c:	bd08      	pop	{r3, pc}
   8107e:	f04f 0000 	mov.w	r0, #0
   81082:	bd08      	pop	{r3, pc}

00081084 <sd_mmc_is_write_protected>:
   81084:	f04f 0000 	mov.w	r0, #0
   81088:	4770      	bx	lr
   8108a:	bf00      	nop

0008108c <sd_mmc_init_read_blocks>:
   8108c:	e92d 4ff0 	stmdb	sp!, {r4, r5, r6, r7, r8, r9, sl, fp, lr}
   81090:	b083      	sub	sp, #12
   81092:	468b      	mov	fp, r1
   81094:	4692      	mov	sl, r2
   81096:	f240 23d5 	movw	r3, #725	; 0x2d5
   8109a:	f2c0 0308 	movt	r3, #8
   8109e:	4798      	blx	r3
   810a0:	4681      	mov	r9, r0
   810a2:	2800      	cmp	r0, #0
   810a4:	f040 8081 	bne.w	811aa <sd_mmc_init_read_blocks+0x11e>
   810a8:	f640 5841 	movw	r8, #3393	; 0xd41
   810ac:	f2c0 0803 	movt	r8, #3
   810b0:	f640 3608 	movw	r6, #2824	; 0xb08
   810b4:	f2c2 0607 	movt	r6, #8199	; 0x2007
   810b8:	f241 150d 	movw	r5, #4365	; 0x110d
   810bc:	f244 347d 	movw	r4, #17277	; 0x437d
   810c0:	f2c0 0408 	movt	r4, #8
   810c4:	f244 37a5 	movw	r7, #17317	; 0x43a5
   810c8:	f2c0 0708 	movt	r7, #8
   810cc:	6830      	ldr	r0, [r6, #0]
   810ce:	8981      	ldrh	r1, [r0, #12]
   810d0:	4628      	mov	r0, r5
   810d2:	ea4f 4101 	mov.w	r1, r1, lsl #16
   810d6:	47a0      	blx	r4
   810d8:	2800      	cmp	r0, #0
   810da:	d046      	beq.n	8116a <sd_mmc_init_read_blocks+0xde>
   810dc:	47b8      	blx	r7
   810de:	f410 7f80 	tst.w	r0, #256	; 0x100
   810e2:	d14a      	bne.n	8117a <sd_mmc_init_read_blocks+0xee>
   810e4:	f108 38ff 	add.w	r8, r8, #4294967295
   810e8:	6832      	ldr	r2, [r6, #0]
   810ea:	8993      	ldrh	r3, [r2, #12]
   810ec:	4628      	mov	r0, r5
   810ee:	ea4f 4103 	mov.w	r1, r3, lsl #16
   810f2:	47a0      	blx	r4
   810f4:	2800      	cmp	r0, #0
   810f6:	d15c      	bne.n	811b2 <sd_mmc_init_read_blocks+0x126>
   810f8:	e037      	b.n	8116a <sd_mmc_init_read_blocks+0xde>
   810fa:	ea4f 214b 	mov.w	r1, fp, lsl #9
   810fe:	e000      	b.n	81102 <sd_mmc_init_read_blocks+0x76>
   81100:	4659      	mov	r1, fp
   81102:	f04f 0301 	mov.w	r3, #1
   81106:	9300      	str	r3, [sp, #0]
   81108:	f44f 7200 	mov.w	r2, #512	; 0x200
   8110c:	4653      	mov	r3, sl
   8110e:	f244 440d 	movw	r4, #17421	; 0x440d
   81112:	f2c0 0408 	movt	r4, #8
   81116:	47a0      	blx	r4
   81118:	b938      	cbnz	r0, 8112a <sd_mmc_init_read_blocks+0x9e>
   8111a:	f240 2129 	movw	r1, #553	; 0x229
   8111e:	f2c0 0108 	movt	r1, #8
   81122:	4788      	blx	r1
   81124:	f04f 0905 	mov.w	r9, #5
   81128:	e03f      	b.n	811aa <sd_mmc_init_read_blocks+0x11e>
   8112a:	f244 30a5 	movw	r0, #17317	; 0x43a5
   8112e:	f2c0 0008 	movt	r0, #8
   81132:	4780      	blx	r0
   81134:	f04f 0100 	mov.w	r1, #0
   81138:	f2ce 4158 	movt	r1, #58456	; 0xe458
   8113c:	4001      	ands	r1, r0
   8113e:	b139      	cbz	r1, 81150 <sd_mmc_init_read_blocks+0xc4>
   81140:	f240 2029 	movw	r0, #553	; 0x229
   81144:	f2c0 0008 	movt	r0, #8
   81148:	4780      	blx	r0
   8114a:	f04f 0905 	mov.w	r9, #5
   8114e:	e02c      	b.n	811aa <sd_mmc_init_read_blocks+0x11e>
   81150:	f640 320c 	movw	r2, #2828	; 0xb0c
   81154:	f2c2 0207 	movt	r2, #8199	; 0x2007
   81158:	f8a2 a000 	strh.w	sl, [r2]
   8115c:	f640 3304 	movw	r3, #2820	; 0xb04
   81160:	f2c2 0307 	movt	r3, #8199	; 0x2007
   81164:	f8a3 a000 	strh.w	sl, [r3]
   81168:	e01f      	b.n	811aa <sd_mmc_init_read_blocks+0x11e>
   8116a:	f240 2229 	movw	r2, #553	; 0x229
   8116e:	f2c0 0208 	movt	r2, #8
   81172:	4790      	blx	r2
   81174:	f04f 0905 	mov.w	r9, #5
   81178:	e017      	b.n	811aa <sd_mmc_init_read_blocks+0x11e>
   8117a:	f241 1011 	movw	r0, #4369	; 0x1111
   8117e:	f2c0 0008 	movt	r0, #8
   81182:	f241 1412 	movw	r4, #4370	; 0x1112
   81186:	f2c0 0410 	movt	r4, #16
   8118a:	f1ba 0f01 	cmp.w	sl, #1
   8118e:	bf88      	it	hi
   81190:	4620      	movhi	r0, r4
   81192:	f640 3208 	movw	r2, #2824	; 0xb08
   81196:	f2c2 0207 	movt	r2, #8199	; 0x2007
   8119a:	6813      	ldr	r3, [r2, #0]
   8119c:	7bd9      	ldrb	r1, [r3, #15]
   8119e:	f001 0408 	and.w	r4, r1, #8
   811a2:	b2e2      	uxtb	r2, r4
   811a4:	2a00      	cmp	r2, #0
   811a6:	d1ab      	bne.n	81100 <sd_mmc_init_read_blocks+0x74>
   811a8:	e7a7      	b.n	810fa <sd_mmc_init_read_blocks+0x6e>
   811aa:	4648      	mov	r0, r9
   811ac:	b003      	add	sp, #12
   811ae:	e8bd 8ff0 	ldmia.w	sp!, {r4, r5, r6, r7, r8, r9, sl, fp, pc}
   811b2:	47b8      	blx	r7
   811b4:	f410 7f80 	tst.w	r0, #256	; 0x100
   811b8:	d1df      	bne.n	8117a <sd_mmc_init_read_blocks+0xee>
   811ba:	6830      	ldr	r0, [r6, #0]
   811bc:	8981      	ldrh	r1, [r0, #12]
   811be:	4628      	mov	r0, r5
   811c0:	ea4f 4101 	mov.w	r1, r1, lsl #16
   811c4:	47a0      	blx	r4
   811c6:	2800      	cmp	r0, #0
   811c8:	d0cf      	beq.n	8116a <sd_mmc_init_read_blocks+0xde>
   811ca:	47b8      	blx	r7
   811cc:	f410 7f80 	tst.w	r0, #256	; 0x100
   811d0:	d1d3      	bne.n	8117a <sd_mmc_init_read_blocks+0xee>
   811d2:	f1b8 0802 	subs.w	r8, r8, #2
   811d6:	f47f af79 	bne.w	810cc <sd_mmc_init_read_blocks+0x40>
   811da:	e7c6      	b.n	8116a <sd_mmc_init_read_blocks+0xde>

000811dc <sd_mmc_start_read_blocks>:
   811dc:	b510      	push	{r4, lr}
   811de:	460c      	mov	r4, r1
   811e0:	f244 5379 	movw	r3, #17785	; 0x4579
   811e4:	f2c0 0308 	movt	r3, #8
   811e8:	4798      	blx	r3
   811ea:	b948      	cbnz	r0, 81200 <sd_mmc_start_read_blocks+0x24>
   811ec:	f640 310c 	movw	r1, #2828	; 0xb0c
   811f0:	f2c2 0107 	movt	r1, #8199	; 0x2007
   811f4:	f04f 0300 	mov.w	r3, #0
   811f8:	800b      	strh	r3, [r1, #0]
   811fa:	f04f 0005 	mov.w	r0, #5
   811fe:	bd10      	pop	{r4, pc}
   81200:	f640 300c 	movw	r0, #2828	; 0xb0c
   81204:	f2c2 0007 	movt	r0, #8199	; 0x2007
   81208:	8802      	ldrh	r2, [r0, #0]
   8120a:	1b14      	subs	r4, r2, r4
   8120c:	8004      	strh	r4, [r0, #0]
   8120e:	f04f 0000 	mov.w	r0, #0
   81212:	bd10      	pop	{r4, pc}

00081214 <sd_mmc_wait_end_of_read_blocks>:
   81214:	b508      	push	{r3, lr}
   81216:	f244 6391 	movw	r3, #18065	; 0x4691
   8121a:	f2c0 0308 	movt	r3, #8
   8121e:	4798      	blx	r3
   81220:	2800      	cmp	r0, #0
   81222:	d030      	beq.n	81286 <sd_mmc_wait_end_of_read_blocks+0x72>
   81224:	f640 300c 	movw	r0, #2828	; 0xb0c
   81228:	f2c2 0007 	movt	r0, #8199	; 0x2007
   8122c:	8801      	ldrh	r1, [r0, #0]
   8122e:	2900      	cmp	r1, #0
   81230:	d12c      	bne.n	8128c <sd_mmc_wait_end_of_read_blocks+0x78>
   81232:	f640 3204 	movw	r2, #2820	; 0xb04
   81236:	f2c2 0207 	movt	r2, #8199	; 0x2007
   8123a:	8813      	ldrh	r3, [r2, #0]
   8123c:	2b01      	cmp	r3, #1
   8123e:	d107      	bne.n	81250 <sd_mmc_wait_end_of_read_blocks+0x3c>
   81240:	f240 2129 	movw	r1, #553	; 0x229
   81244:	f2c0 0108 	movt	r1, #8
   81248:	4788      	blx	r1
   8124a:	f04f 0000 	mov.w	r0, #0
   8124e:	bd08      	pop	{r3, pc}
   81250:	f243 100c 	movw	r0, #12556	; 0x310c
   81254:	f04f 0100 	mov.w	r1, #0
   81258:	f244 327d 	movw	r2, #17277	; 0x437d
   8125c:	f2c0 0208 	movt	r2, #8
   81260:	4790      	blx	r2
   81262:	b940      	cbnz	r0, 81276 <sd_mmc_wait_end_of_read_blocks+0x62>
   81264:	f243 100c 	movw	r0, #12556	; 0x310c
   81268:	f04f 0100 	mov.w	r1, #0
   8126c:	f244 337d 	movw	r3, #17277	; 0x437d
   81270:	f2c0 0308 	movt	r3, #8
   81274:	4798      	blx	r3
   81276:	f240 2029 	movw	r0, #553	; 0x229
   8127a:	f2c0 0008 	movt	r0, #8
   8127e:	4780      	blx	r0
   81280:	f04f 0000 	mov.w	r0, #0
   81284:	bd08      	pop	{r3, pc}
   81286:	f04f 0005 	mov.w	r0, #5
   8128a:	bd08      	pop	{r3, pc}
   8128c:	f04f 0000 	mov.w	r0, #0
   81290:	bd08      	pop	{r3, pc}
   81292:	bf00      	nop

00081294 <sd_mmc_init_write_blocks>:
   81294:	b5f0      	push	{r4, r5, r6, r7, lr}
   81296:	b083      	sub	sp, #12
   81298:	4606      	mov	r6, r0
   8129a:	460f      	mov	r7, r1
   8129c:	4615      	mov	r5, r2
   8129e:	f240 24d5 	movw	r4, #725	; 0x2d5
   812a2:	f2c0 0408 	movt	r4, #8
   812a6:	47a0      	blx	r4
   812a8:	4604      	mov	r4, r0
   812aa:	2800      	cmp	r0, #0
   812ac:	d158      	bne.n	81360 <sd_mmc_init_write_blocks+0xcc>
   812ae:	4630      	mov	r0, r6
   812b0:	f241 0385 	movw	r3, #4229	; 0x1085
   812b4:	f2c0 0308 	movt	r3, #8
   812b8:	4798      	blx	r3
   812ba:	b138      	cbz	r0, 812cc <sd_mmc_init_write_blocks+0x38>
   812bc:	f240 2329 	movw	r3, #553	; 0x229
   812c0:	f2c0 0308 	movt	r3, #8
   812c4:	4798      	blx	r3
   812c6:	f04f 0407 	mov.w	r4, #7
   812ca:	e049      	b.n	81360 <sd_mmc_init_write_blocks+0xcc>
   812cc:	f249 1018 	movw	r0, #37144	; 0x9118
   812d0:	f2c0 0008 	movt	r0, #8
   812d4:	f249 1119 	movw	r1, #37145	; 0x9119
   812d8:	f2c0 0110 	movt	r1, #16
   812dc:	2d01      	cmp	r5, #1
   812de:	bf88      	it	hi
   812e0:	4608      	movhi	r0, r1
   812e2:	f640 3208 	movw	r2, #2824	; 0xb08
   812e6:	f2c2 0207 	movt	r2, #8199	; 0x2007
   812ea:	6816      	ldr	r6, [r2, #0]
   812ec:	7bf3      	ldrb	r3, [r6, #15]
   812ee:	f003 0108 	and.w	r1, r3, #8
   812f2:	b2ca      	uxtb	r2, r1
   812f4:	b912      	cbnz	r2, 812fc <sd_mmc_init_write_blocks+0x68>
   812f6:	ea4f 2147 	mov.w	r1, r7, lsl #9
   812fa:	e000      	b.n	812fe <sd_mmc_init_write_blocks+0x6a>
   812fc:	4639      	mov	r1, r7
   812fe:	f04f 0601 	mov.w	r6, #1
   81302:	9600      	str	r6, [sp, #0]
   81304:	f44f 7200 	mov.w	r2, #512	; 0x200
   81308:	462b      	mov	r3, r5
   8130a:	f244 460d 	movw	r6, #17421	; 0x440d
   8130e:	f2c0 0608 	movt	r6, #8
   81312:	47b0      	blx	r6
   81314:	b938      	cbnz	r0, 81326 <sd_mmc_init_write_blocks+0x92>
   81316:	f240 2029 	movw	r0, #553	; 0x229
   8131a:	f2c0 0008 	movt	r0, #8
   8131e:	4780      	blx	r0
   81320:	f04f 0405 	mov.w	r4, #5
   81324:	e01c      	b.n	81360 <sd_mmc_init_write_blocks+0xcc>
   81326:	f244 30a5 	movw	r0, #17317	; 0x43a5
   8132a:	f2c0 0008 	movt	r0, #8
   8132e:	4780      	blx	r0
   81330:	f04f 0300 	mov.w	r3, #0
   81334:	f2ce 4358 	movt	r3, #58456	; 0xe458
   81338:	4003      	ands	r3, r0
   8133a:	b13b      	cbz	r3, 8134c <sd_mmc_init_write_blocks+0xb8>
   8133c:	f240 2429 	movw	r4, #553	; 0x229
   81340:	f2c0 0408 	movt	r4, #8
   81344:	47a0      	blx	r4
   81346:	f04f 0405 	mov.w	r4, #5
   8134a:	e009      	b.n	81360 <sd_mmc_init_write_blocks+0xcc>
   8134c:	f640 310c 	movw	r1, #2828	; 0xb0c
   81350:	f2c2 0107 	movt	r1, #8199	; 0x2007
   81354:	800d      	strh	r5, [r1, #0]
   81356:	f640 3204 	movw	r2, #2820	; 0xb04
   8135a:	f2c2 0207 	movt	r2, #8199	; 0x2007
   8135e:	8015      	strh	r5, [r2, #0]
   81360:	4620      	mov	r0, r4
   81362:	b003      	add	sp, #12
   81364:	bdf0      	pop	{r4, r5, r6, r7, pc}
   81366:	bf00      	nop

00081368 <sd_mmc_start_write_blocks>:
   81368:	b510      	push	{r4, lr}
   8136a:	460c      	mov	r4, r1
   8136c:	f244 7309 	movw	r3, #18185	; 0x4709
   81370:	f2c0 0308 	movt	r3, #8
   81374:	4798      	blx	r3
   81376:	b948      	cbnz	r0, 8138c <sd_mmc_start_write_blocks+0x24>
   81378:	f640 310c 	movw	r1, #2828	; 0xb0c
   8137c:	f2c2 0107 	movt	r1, #8199	; 0x2007
   81380:	f04f 0300 	mov.w	r3, #0
   81384:	800b      	strh	r3, [r1, #0]
   81386:	f04f 0005 	mov.w	r0, #5
   8138a:	bd10      	pop	{r4, pc}
   8138c:	f640 300c 	movw	r0, #2828	; 0xb0c
   81390:	f2c2 0007 	movt	r0, #8199	; 0x2007
   81394:	8802      	ldrh	r2, [r0, #0]
   81396:	1b14      	subs	r4, r2, r4
   81398:	8004      	strh	r4, [r0, #0]
   8139a:	f04f 0000 	mov.w	r0, #0
   8139e:	bd10      	pop	{r4, pc}

000813a0 <sd_mmc_wait_end_of_write_blocks>:
   813a0:	b508      	push	{r3, lr}
   813a2:	f644 0301 	movw	r3, #18433	; 0x4801
   813a6:	f2c0 0308 	movt	r3, #8
   813aa:	4798      	blx	r3
   813ac:	2800      	cmp	r0, #0
   813ae:	d02f      	beq.n	81410 <sd_mmc_wait_end_of_write_blocks+0x70>
   813b0:	f640 300c 	movw	r0, #2828	; 0xb0c
   813b4:	f2c2 0007 	movt	r0, #8199	; 0x2007
   813b8:	8801      	ldrh	r1, [r0, #0]
   813ba:	2900      	cmp	r1, #0
   813bc:	d12b      	bne.n	81416 <sd_mmc_wait_end_of_write_blocks+0x76>
   813be:	f640 3204 	movw	r2, #2820	; 0xb04
   813c2:	f2c2 0207 	movt	r2, #8199	; 0x2007
   813c6:	8813      	ldrh	r3, [r2, #0]
   813c8:	2b01      	cmp	r3, #1
   813ca:	d107      	bne.n	813dc <sd_mmc_wait_end_of_write_blocks+0x3c>
   813cc:	f240 2329 	movw	r3, #553	; 0x229
   813d0:	f2c0 0308 	movt	r3, #8
   813d4:	4798      	blx	r3
   813d6:	f04f 0000 	mov.w	r0, #0
   813da:	bd08      	pop	{r3, pc}
   813dc:	f243 100c 	movw	r0, #12556	; 0x310c
   813e0:	f04f 0100 	mov.w	r1, #0
   813e4:	f244 327d 	movw	r2, #17277	; 0x437d
   813e8:	f2c0 0208 	movt	r2, #8
   813ec:	4790      	blx	r2
   813ee:	b938      	cbnz	r0, 81400 <sd_mmc_wait_end_of_write_blocks+0x60>
   813f0:	f240 2129 	movw	r1, #553	; 0x229
   813f4:	f2c0 0108 	movt	r1, #8
   813f8:	4788      	blx	r1
   813fa:	f04f 0005 	mov.w	r0, #5
   813fe:	bd08      	pop	{r3, pc}
   81400:	f240 2029 	movw	r0, #553	; 0x229
   81404:	f2c0 0008 	movt	r0, #8
   81408:	4780      	blx	r0
   8140a:	f04f 0000 	mov.w	r0, #0
   8140e:	bd08      	pop	{r3, pc}
   81410:	f04f 0005 	mov.w	r0, #5
   81414:	bd08      	pop	{r3, pc}
   81416:	f04f 0000 	mov.w	r0, #0
   8141a:	bd08      	pop	{r3, pc}

0008141c <pwm_clocks_generate>:
   8141c:	b4f0      	push	{r4, r5, r6, r7}
   8141e:	b08c      	sub	sp, #48	; 0x30
   81420:	4606      	mov	r6, r0
   81422:	460f      	mov	r7, r1
   81424:	ac01      	add	r4, sp, #4
   81426:	f24c 2598 	movw	r5, #49816	; 0xc298
   8142a:	f2c0 0508 	movt	r5, #8
   8142e:	cd0f      	ldmia	r5!, {r0, r1, r2, r3}
   81430:	c40f      	stmia	r4!, {r0, r1, r2, r3}
   81432:	cd0f      	ldmia	r5!, {r0, r1, r2, r3}
   81434:	c40f      	stmia	r4!, {r0, r1, r2, r3}
   81436:	e895 0007 	ldmia.w	r5, {r0, r1, r2}
   8143a:	e884 0007 	stmia.w	r4, {r0, r1, r2}
   8143e:	9b01      	ldr	r3, [sp, #4]
   81440:	fbb7 f0f3 	udiv	r0, r7, r3
   81444:	fbb0 f1f6 	udiv	r1, r0, r6
   81448:	f5b1 7f80 	cmp.w	r1, #256	; 0x100
   8144c:	d952      	bls.n	814f4 <pwm_clocks_generate+0xd8>
   8144e:	9902      	ldr	r1, [sp, #8]
   81450:	fbb7 f2f1 	udiv	r2, r7, r1
   81454:	fbb2 f1f6 	udiv	r1, r2, r6
   81458:	f5b1 7f80 	cmp.w	r1, #256	; 0x100
   8145c:	d94f      	bls.n	814fe <pwm_clocks_generate+0xe2>
   8145e:	9b03      	ldr	r3, [sp, #12]
   81460:	fbb7 f0f3 	udiv	r0, r7, r3
   81464:	fbb0 f1f6 	udiv	r1, r0, r6
   81468:	f5b1 7f80 	cmp.w	r1, #256	; 0x100
   8146c:	d94a      	bls.n	81504 <pwm_clocks_generate+0xe8>
   8146e:	9904      	ldr	r1, [sp, #16]
   81470:	fbb7 f2f1 	udiv	r2, r7, r1
   81474:	fbb2 f1f6 	udiv	r1, r2, r6
   81478:	f5b1 7f80 	cmp.w	r1, #256	; 0x100
   8147c:	d945      	bls.n	8150a <pwm_clocks_generate+0xee>
   8147e:	9b05      	ldr	r3, [sp, #20]
   81480:	fbb7 f0f3 	udiv	r0, r7, r3
   81484:	fbb0 f1f6 	udiv	r1, r0, r6
   81488:	f5b1 7f80 	cmp.w	r1, #256	; 0x100
   8148c:	d940      	bls.n	81510 <pwm_clocks_generate+0xf4>
   8148e:	9906      	ldr	r1, [sp, #24]
   81490:	fbb7 f2f1 	udiv	r2, r7, r1
   81494:	fbb2 f1f6 	udiv	r1, r2, r6
   81498:	f5b1 7f80 	cmp.w	r1, #256	; 0x100
   8149c:	d93b      	bls.n	81516 <pwm_clocks_generate+0xfa>
   8149e:	9b07      	ldr	r3, [sp, #28]
   814a0:	fbb7 f0f3 	udiv	r0, r7, r3
   814a4:	fbb0 f1f6 	udiv	r1, r0, r6
   814a8:	f5b1 7f80 	cmp.w	r1, #256	; 0x100
   814ac:	d936      	bls.n	8151c <pwm_clocks_generate+0x100>
   814ae:	9908      	ldr	r1, [sp, #32]
   814b0:	fbb7 f2f1 	udiv	r2, r7, r1
   814b4:	fbb2 f1f6 	udiv	r1, r2, r6
   814b8:	f5b1 7f80 	cmp.w	r1, #256	; 0x100
   814bc:	d931      	bls.n	81522 <pwm_clocks_generate+0x106>
   814be:	9b09      	ldr	r3, [sp, #36]	; 0x24
   814c0:	fbb7 f0f3 	udiv	r0, r7, r3
   814c4:	fbb0 f1f6 	udiv	r1, r0, r6
   814c8:	f5b1 7f80 	cmp.w	r1, #256	; 0x100
   814cc:	d92c      	bls.n	81528 <pwm_clocks_generate+0x10c>
   814ce:	990a      	ldr	r1, [sp, #40]	; 0x28
   814d0:	fbb7 f2f1 	udiv	r2, r7, r1
   814d4:	fbb2 f1f6 	udiv	r1, r2, r6
   814d8:	f5b1 7f80 	cmp.w	r1, #256	; 0x100
   814dc:	d927      	bls.n	8152e <pwm_clocks_generate+0x112>
   814de:	9b0b      	ldr	r3, [sp, #44]	; 0x2c
   814e0:	fbb7 f0f3 	udiv	r0, r7, r3
   814e4:	fbb0 f1f6 	udiv	r1, r0, r6
   814e8:	f5b1 7f80 	cmp.w	r1, #256	; 0x100
   814ec:	d922      	bls.n	81534 <pwm_clocks_generate+0x118>
   814ee:	f64f 70ff 	movw	r0, #65535	; 0xffff
   814f2:	e022      	b.n	8153a <pwm_clocks_generate+0x11e>
   814f4:	f04f 0200 	mov.w	r2, #0
   814f8:	ea41 2002 	orr.w	r0, r1, r2, lsl #8
   814fc:	e01d      	b.n	8153a <pwm_clocks_generate+0x11e>
   814fe:	f04f 0201 	mov.w	r2, #1
   81502:	e7f9      	b.n	814f8 <pwm_clocks_generate+0xdc>
   81504:	f04f 0202 	mov.w	r2, #2
   81508:	e7f6      	b.n	814f8 <pwm_clocks_generate+0xdc>
   8150a:	f04f 0203 	mov.w	r2, #3
   8150e:	e7f3      	b.n	814f8 <pwm_clocks_generate+0xdc>
   81510:	f04f 0204 	mov.w	r2, #4
   81514:	e7f0      	b.n	814f8 <pwm_clocks_generate+0xdc>
   81516:	f04f 0205 	mov.w	r2, #5
   8151a:	e7ed      	b.n	814f8 <pwm_clocks_generate+0xdc>
   8151c:	f04f 0206 	mov.w	r2, #6
   81520:	e7ea      	b.n	814f8 <pwm_clocks_generate+0xdc>
   81522:	f04f 0207 	mov.w	r2, #7
   81526:	e7e7      	b.n	814f8 <pwm_clocks_generate+0xdc>
   81528:	f04f 0208 	mov.w	r2, #8
   8152c:	e7e4      	b.n	814f8 <pwm_clocks_generate+0xdc>
   8152e:	f04f 0209 	mov.w	r2, #9
   81532:	e7e1      	b.n	814f8 <pwm_clocks_generate+0xdc>
   81534:	f04f 020a 	mov.w	r2, #10
   81538:	e7de      	b.n	814f8 <pwm_clocks_generate+0xdc>
   8153a:	b00c      	add	sp, #48	; 0x30
   8153c:	bcf0      	pop	{r4, r5, r6, r7}
   8153e:	4770      	bx	lr

00081540 <pwm_init>:
   81540:	b570      	push	{r4, r5, r6, lr}
   81542:	4606      	mov	r6, r0
   81544:	460c      	mov	r4, r1
   81546:	6808      	ldr	r0, [r1, #0]
   81548:	b158      	cbz	r0, 81562 <pwm_init+0x22>
   8154a:	6889      	ldr	r1, [r1, #8]
   8154c:	f241 431d 	movw	r3, #5149	; 0x141d
   81550:	f2c0 0308 	movt	r3, #8
   81554:	4798      	blx	r3
   81556:	f64f 71ff 	movw	r1, #65535	; 0xffff
   8155a:	4288      	cmp	r0, r1
   8155c:	d014      	beq.n	81588 <pwm_init+0x48>
   8155e:	4605      	mov	r5, r0
   81560:	e001      	b.n	81566 <pwm_init+0x26>
   81562:	f04f 0500 	mov.w	r5, #0
   81566:	6860      	ldr	r0, [r4, #4]
   81568:	b158      	cbz	r0, 81582 <pwm_init+0x42>
   8156a:	68a1      	ldr	r1, [r4, #8]
   8156c:	f241 421d 	movw	r2, #5149	; 0x141d
   81570:	f2c0 0208 	movt	r2, #8
   81574:	4790      	blx	r2
   81576:	f64f 73ff 	movw	r3, #65535	; 0xffff
   8157a:	4298      	cmp	r0, r3
   8157c:	d004      	beq.n	81588 <pwm_init+0x48>
   8157e:	ea45 4500 	orr.w	r5, r5, r0, lsl #16
   81582:	6035      	str	r5, [r6, #0]
   81584:	f04f 0000 	mov.w	r0, #0
   81588:	bd70      	pop	{r4, r5, r6, pc}
   8158a:	bf00      	nop

0008158c <pwm_channel_init>:
   8158c:	b470      	push	{r4, r5, r6}
   8158e:	680b      	ldr	r3, [r1, #0]
   81590:	f04f 0201 	mov.w	r2, #1
   81594:	fa02 f203 	lsl.w	r2, r2, r3
   81598:	8a8e      	ldrh	r6, [r1, #20]
   8159a:	684c      	ldr	r4, [r1, #4]
   8159c:	f004 050f 	and.w	r5, r4, #15
   815a0:	432e      	orrs	r6, r5
   815a2:	890c      	ldrh	r4, [r1, #8]
   815a4:	4326      	orrs	r6, r4
   815a6:	7a8d      	ldrb	r5, [r1, #10]
   815a8:	ea46 2645 	orr.w	r6, r6, r5, lsl #9
   815ac:	7d8c      	ldrb	r4, [r1, #22]
   815ae:	ea46 4504 	orr.w	r5, r6, r4, lsl #16
   815b2:	7dce      	ldrb	r6, [r1, #23]
   815b4:	ea45 4546 	orr.w	r5, r5, r6, lsl #17
   815b8:	7e0c      	ldrb	r4, [r1, #24]
   815ba:	ea45 4684 	orr.w	r6, r5, r4, lsl #18
   815be:	f103 0510 	add.w	r5, r3, #16
   815c2:	ea4f 1445 	mov.w	r4, r5, lsl #5
   815c6:	1905      	adds	r5, r0, r4
   815c8:	5106      	str	r6, [r0, r4]
   815ca:	68cc      	ldr	r4, [r1, #12]
   815cc:	606c      	str	r4, [r5, #4]
   815ce:	690c      	ldr	r4, [r1, #16]
   815d0:	eb00 1543 	add.w	r5, r0, r3, lsl #5
   815d4:	f8c5 420c 	str.w	r4, [r5, #524]	; 0x20c
   815d8:	7d8c      	ldrb	r4, [r1, #22]
   815da:	b13c      	cbz	r4, 815ec <pwm_channel_init+0x60>
   815dc:	8b8d      	ldrh	r5, [r1, #28]
   815de:	8b4c      	ldrh	r4, [r1, #26]
   815e0:	ea44 4505 	orr.w	r5, r4, r5, lsl #16
   815e4:	eb00 1443 	add.w	r4, r0, r3, lsl #5
   815e8:	f8c4 5218 	str.w	r5, [r4, #536]	; 0x218
   815ec:	7fcd      	ldrb	r5, [r1, #31]
   815ee:	fa05 f503 	lsl.w	r5, r5, r3
   815f2:	7f8c      	ldrb	r4, [r1, #30]
   815f4:	fa04 f403 	lsl.w	r4, r4, r3
   815f8:	ea44 4505 	orr.w	r5, r4, r5, lsl #16
   815fc:	6485      	str	r5, [r0, #72]	; 0x48
   815fe:	f891 5021 	ldrb.w	r5, [r1, #33]	; 0x21
   81602:	fa05 f503 	lsl.w	r5, r5, r3
   81606:	f891 4020 	ldrb.w	r4, [r1, #32]
   8160a:	fa04 f403 	lsl.w	r4, r4, r3
   8160e:	ea44 4405 	orr.w	r4, r4, r5, lsl #16
   81612:	6444      	str	r4, [r0, #68]	; 0x44
   81614:	f891 4022 	ldrb.w	r4, [r1, #34]	; 0x22
   81618:	b11c      	cbz	r4, 81622 <pwm_channel_init+0x96>
   8161a:	6a04      	ldr	r4, [r0, #32]
   8161c:	4314      	orrs	r4, r2
   8161e:	6204      	str	r4, [r0, #32]
   81620:	e003      	b.n	8162a <pwm_channel_init+0x9e>
   81622:	6a04      	ldr	r4, [r0, #32]
   81624:	ea24 0402 	bic.w	r4, r4, r2
   81628:	6204      	str	r4, [r0, #32]
   8162a:	f891 4024 	ldrb.w	r4, [r1, #36]	; 0x24
   8162e:	2c01      	cmp	r4, #1
   81630:	d103      	bne.n	8163a <pwm_channel_init+0xae>
   81632:	6e84      	ldr	r4, [r0, #104]	; 0x68
   81634:	4314      	orrs	r4, r2
   81636:	6684      	str	r4, [r0, #104]	; 0x68
   81638:	e006      	b.n	81648 <pwm_channel_init+0xbc>
   8163a:	6e84      	ldr	r4, [r0, #104]	; 0x68
   8163c:	2a00      	cmp	r2, #0
   8163e:	bf14      	ite	ne
   81640:	2400      	movne	r4, #0
   81642:	f004 0401 	andeq.w	r4, r4, #1
   81646:	6684      	str	r4, [r0, #104]	; 0x68
   81648:	f891 4025 	ldrb.w	r4, [r1, #37]	; 0x25
   8164c:	2c01      	cmp	r4, #1
   8164e:	d104      	bne.n	8165a <pwm_channel_init+0xce>
   81650:	6e84      	ldr	r4, [r0, #104]	; 0x68
   81652:	ea44 4202 	orr.w	r2, r4, r2, lsl #16
   81656:	6682      	str	r2, [r0, #104]	; 0x68
   81658:	e006      	b.n	81668 <pwm_channel_init+0xdc>
   8165a:	6e84      	ldr	r4, [r0, #104]	; 0x68
   8165c:	0412      	lsls	r2, r2, #16
   8165e:	bf14      	ite	ne
   81660:	2200      	movne	r2, #0
   81662:	f004 0201 	andeq.w	r2, r4, #1
   81666:	6682      	str	r2, [r0, #104]	; 0x68
   81668:	2b03      	cmp	r3, #3
   8166a:	d80f      	bhi.n	8168c <pwm_channel_init+0x100>
   8166c:	6ec4      	ldr	r4, [r0, #108]	; 0x6c
   8166e:	ea4f 03c3 	mov.w	r3, r3, lsl #3
   81672:	f04f 02ff 	mov.w	r2, #255	; 0xff
   81676:	fa02 f203 	lsl.w	r2, r2, r3
   8167a:	ea24 0202 	bic.w	r2, r4, r2
   8167e:	f891 1023 	ldrb.w	r1, [r1, #35]	; 0x23
   81682:	fa01 f303 	lsl.w	r3, r1, r3
   81686:	431a      	orrs	r2, r3
   81688:	66c2      	str	r2, [r0, #108]	; 0x6c
   8168a:	e010      	b.n	816ae <pwm_channel_init+0x122>
   8168c:	f1a3 0304 	sub.w	r3, r3, #4
   81690:	6f04      	ldr	r4, [r0, #112]	; 0x70
   81692:	ea4f 03c3 	mov.w	r3, r3, lsl #3
   81696:	f04f 02ff 	mov.w	r2, #255	; 0xff
   8169a:	fa02 f203 	lsl.w	r2, r2, r3
   8169e:	ea24 0202 	bic.w	r2, r4, r2
   816a2:	f891 1023 	ldrb.w	r1, [r1, #35]	; 0x23
   816a6:	fa01 f303 	lsl.w	r3, r1, r3
   816aa:	431a      	orrs	r2, r3
   816ac:	6702      	str	r2, [r0, #112]	; 0x70
   816ae:	f04f 0000 	mov.w	r0, #0
   816b2:	bc70      	pop	{r4, r5, r6}
   816b4:	4770      	bx	lr
   816b6:	bf00      	nop

000816b8 <pwm_channel_update_duty>:
   816b8:	b410      	push	{r4}
   816ba:	680c      	ldr	r4, [r1, #0]
   816bc:	690b      	ldr	r3, [r1, #16]
   816be:	4293      	cmp	r3, r2
   816c0:	d307      	bcc.n	816d2 <pwm_channel_update_duty+0x1a>
   816c2:	60ca      	str	r2, [r1, #12]
   816c4:	eb00 1044 	add.w	r0, r0, r4, lsl #5
   816c8:	f8c0 2208 	str.w	r2, [r0, #520]	; 0x208
   816cc:	f04f 0000 	mov.w	r0, #0
   816d0:	e001      	b.n	816d6 <pwm_channel_update_duty+0x1e>
   816d2:	f64f 70ff 	movw	r0, #65535	; 0xffff
   816d6:	bc10      	pop	{r4}
   816d8:	4770      	bx	lr
   816da:	bf00      	nop

000816dc <pwm_channel_enable>:
   816dc:	f04f 0301 	mov.w	r3, #1
   816e0:	fa03 f101 	lsl.w	r1, r3, r1
   816e4:	6041      	str	r1, [r0, #4]
   816e6:	4770      	bx	lr

000816e8 <pwm_channel_disable>:
   816e8:	f04f 0301 	mov.w	r3, #1
   816ec:	fa03 f101 	lsl.w	r1, r3, r1
   816f0:	6081      	str	r1, [r0, #8]
   816f2:	4770      	bx	lr

000816f4 <pwm_channel_disable_interrupt>:
   816f4:	f102 0210 	add.w	r2, r2, #16
   816f8:	f04f 0301 	mov.w	r3, #1
   816fc:	fa03 f202 	lsl.w	r2, r3, r2
   81700:	fa03 f101 	lsl.w	r1, r3, r1
   81704:	430a      	orrs	r2, r1
   81706:	6142      	str	r2, [r0, #20]
   81708:	4770      	bx	lr
   8170a:	bf00      	nop

0008170c <spi_enable_clock>:
   8170c:	b508      	push	{r3, lr}
   8170e:	f44f 4300 	mov.w	r3, #32768	; 0x8000
   81712:	f2c4 0300 	movt	r3, #16384	; 0x4000
   81716:	4298      	cmp	r0, r3
   81718:	d106      	bne.n	81728 <spi_enable_clock+0x1c>
   8171a:	f04f 0018 	mov.w	r0, #24
   8171e:	f247 31e9 	movw	r1, #29673	; 0x73e9
   81722:	f2c0 0108 	movt	r1, #8
   81726:	4788      	blx	r1
   81728:	bd08      	pop	{r3, pc}
   8172a:	bf00      	nop

0008172c <spi_set_peripheral_chip_select_value>:
   8172c:	6843      	ldr	r3, [r0, #4]
   8172e:	f423 2270 	bic.w	r2, r3, #983040	; 0xf0000
   81732:	6042      	str	r2, [r0, #4]
   81734:	6843      	ldr	r3, [r0, #4]
   81736:	ea4f 4101 	mov.w	r1, r1, lsl #16
   8173a:	f401 2270 	and.w	r2, r1, #983040	; 0xf0000
   8173e:	4313      	orrs	r3, r2
   81740:	6043      	str	r3, [r0, #4]
   81742:	4770      	bx	lr

00081744 <spi_write>:
   81744:	b430      	push	{r4, r5}
   81746:	6904      	ldr	r4, [r0, #16]
   81748:	f014 0f02 	tst.w	r4, #2
   8174c:	d01f      	beq.n	8178e <spi_write+0x4a>
   8174e:	e00a      	b.n	81766 <spi_write+0x22>
   81750:	f104 34ff 	add.w	r4, r4, #4294967295
   81754:	6905      	ldr	r5, [r0, #16]
   81756:	f015 0f02 	tst.w	r5, #2
   8175a:	d01d      	beq.n	81798 <spi_write+0x54>
   8175c:	e003      	b.n	81766 <spi_write+0x22>
   8175e:	6905      	ldr	r5, [r0, #16]
   81760:	f015 0f02 	tst.w	r5, #2
   81764:	d0f4      	beq.n	81750 <spi_write+0xc>
   81766:	6844      	ldr	r4, [r0, #4]
   81768:	f014 0f02 	tst.w	r4, #2
   8176c:	d007      	beq.n	8177e <spi_write+0x3a>
   8176e:	ea4f 4202 	mov.w	r2, r2, lsl #16
   81772:	f402 2270 	and.w	r2, r2, #983040	; 0xf0000
   81776:	4311      	orrs	r1, r2
   81778:	b10b      	cbz	r3, 8177e <spi_write+0x3a>
   8177a:	f041 7180 	orr.w	r1, r1, #16777216	; 0x1000000
   8177e:	60c1      	str	r1, [r0, #12]
   81780:	f04f 0000 	mov.w	r0, #0
   81784:	e001      	b.n	8178a <spi_write+0x46>
   81786:	f04f 0001 	mov.w	r0, #1
   8178a:	bc30      	pop	{r4, r5}
   8178c:	4770      	bx	lr
   8178e:	f643 2599 	movw	r5, #15001	; 0x3a99
   81792:	f105 34ff 	add.w	r4, r5, #4294967295
   81796:	e7e2      	b.n	8175e <spi_write+0x1a>
   81798:	3c01      	subs	r4, #1
   8179a:	d1e0      	bne.n	8175e <spi_write+0x1a>
   8179c:	e7f3      	b.n	81786 <spi_write+0x42>
   8179e:	bf00      	nop

000817a0 <spi_set_clock_polarity>:
   817a0:	b142      	cbz	r2, 817b4 <spi_set_clock_polarity+0x14>
   817a2:	f101 010c 	add.w	r1, r1, #12
   817a6:	f850 3021 	ldr.w	r3, [r0, r1, lsl #2]
   817aa:	f043 0201 	orr.w	r2, r3, #1
   817ae:	f840 2021 	str.w	r2, [r0, r1, lsl #2]
   817b2:	4770      	bx	lr
   817b4:	f101 010c 	add.w	r1, r1, #12
   817b8:	f850 3021 	ldr.w	r3, [r0, r1, lsl #2]
   817bc:	f023 0201 	bic.w	r2, r3, #1
   817c0:	f840 2021 	str.w	r2, [r0, r1, lsl #2]
   817c4:	4770      	bx	lr
   817c6:	bf00      	nop

000817c8 <spi_set_clock_phase>:
   817c8:	b142      	cbz	r2, 817dc <spi_set_clock_phase+0x14>
   817ca:	f101 010c 	add.w	r1, r1, #12
   817ce:	f850 3021 	ldr.w	r3, [r0, r1, lsl #2]
   817d2:	f043 0202 	orr.w	r2, r3, #2
   817d6:	f840 2021 	str.w	r2, [r0, r1, lsl #2]
   817da:	4770      	bx	lr
   817dc:	f101 010c 	add.w	r1, r1, #12
   817e0:	f850 3021 	ldr.w	r3, [r0, r1, lsl #2]
   817e4:	f023 0202 	bic.w	r2, r3, #2
   817e8:	f840 2021 	str.w	r2, [r0, r1, lsl #2]
   817ec:	4770      	bx	lr
   817ee:	bf00      	nop

000817f0 <spi_configure_cs_behavior>:
   817f0:	2a04      	cmp	r2, #4
   817f2:	d10e      	bne.n	81812 <spi_configure_cs_behavior+0x22>
   817f4:	f101 010c 	add.w	r1, r1, #12
   817f8:	f850 3021 	ldr.w	r3, [r0, r1, lsl #2]
   817fc:	f023 0208 	bic.w	r2, r3, #8
   81800:	f840 2021 	str.w	r2, [r0, r1, lsl #2]
   81804:	f850 3021 	ldr.w	r3, [r0, r1, lsl #2]
   81808:	f043 0204 	orr.w	r2, r3, #4
   8180c:	f840 2021 	str.w	r2, [r0, r1, lsl #2]
   81810:	4770      	bx	lr
   81812:	b972      	cbnz	r2, 81832 <spi_configure_cs_behavior+0x42>
   81814:	f101 010c 	add.w	r1, r1, #12
   81818:	f850 3021 	ldr.w	r3, [r0, r1, lsl #2]
   8181c:	f023 0208 	bic.w	r2, r3, #8
   81820:	f840 2021 	str.w	r2, [r0, r1, lsl #2]
   81824:	f850 3021 	ldr.w	r3, [r0, r1, lsl #2]
   81828:	f023 0204 	bic.w	r2, r3, #4
   8182c:	f840 2021 	str.w	r2, [r0, r1, lsl #2]
   81830:	4770      	bx	lr
   81832:	2a08      	cmp	r2, #8
   81834:	d107      	bne.n	81846 <spi_configure_cs_behavior+0x56>
   81836:	f101 010c 	add.w	r1, r1, #12
   8183a:	f850 3021 	ldr.w	r3, [r0, r1, lsl #2]
   8183e:	f043 0208 	orr.w	r2, r3, #8
   81842:	f840 2021 	str.w	r2, [r0, r1, lsl #2]
   81846:	4770      	bx	lr

00081848 <spi_set_bits_per_transfer>:
   81848:	f101 010c 	add.w	r1, r1, #12
   8184c:	f850 3021 	ldr.w	r3, [r0, r1, lsl #2]
   81850:	f023 03f0 	bic.w	r3, r3, #240	; 0xf0
   81854:	f840 3021 	str.w	r3, [r0, r1, lsl #2]
   81858:	f850 3021 	ldr.w	r3, [r0, r1, lsl #2]
   8185c:	431a      	orrs	r2, r3
   8185e:	f840 2021 	str.w	r2, [r0, r1, lsl #2]
   81862:	4770      	bx	lr

00081864 <spi_set_baudrate_div>:
   81864:	f101 010c 	add.w	r1, r1, #12
   81868:	f850 3021 	ldr.w	r3, [r0, r1, lsl #2]
   8186c:	f423 437f 	bic.w	r3, r3, #65280	; 0xff00
   81870:	f840 3021 	str.w	r3, [r0, r1, lsl #2]
   81874:	f850 3021 	ldr.w	r3, [r0, r1, lsl #2]
   81878:	ea43 2202 	orr.w	r2, r3, r2, lsl #8
   8187c:	f840 2021 	str.w	r2, [r0, r1, lsl #2]
   81880:	4770      	bx	lr
   81882:	bf00      	nop

00081884 <spi_set_transfer_delay>:
   81884:	b410      	push	{r4}
   81886:	f101 010c 	add.w	r1, r1, #12
   8188a:	f850 4021 	ldr.w	r4, [r0, r1, lsl #2]
   8188e:	b2a4      	uxth	r4, r4
   81890:	f840 4021 	str.w	r4, [r0, r1, lsl #2]
   81894:	f850 4021 	ldr.w	r4, [r0, r1, lsl #2]
   81898:	ea4f 6303 	mov.w	r3, r3, lsl #24
   8189c:	ea43 4202 	orr.w	r2, r3, r2, lsl #16
   818a0:	4314      	orrs	r4, r2
   818a2:	f840 4021 	str.w	r4, [r0, r1, lsl #2]
   818a6:	bc10      	pop	{r4}
   818a8:	4770      	bx	lr
   818aa:	bf00      	nop

000818ac <tc_init>:
   818ac:	b410      	push	{r4}
   818ae:	ea4f 1181 	mov.w	r1, r1, lsl #6
   818b2:	1843      	adds	r3, r0, r1
   818b4:	f04f 0402 	mov.w	r4, #2
   818b8:	5044      	str	r4, [r0, r1]
   818ba:	f04f 30ff 	mov.w	r0, #4294967295
   818be:	6298      	str	r0, [r3, #40]	; 0x28
   818c0:	6a19      	ldr	r1, [r3, #32]
   818c2:	605a      	str	r2, [r3, #4]
   818c4:	bc10      	pop	{r4}
   818c6:	4770      	bx	lr

000818c8 <tc_start>:
   818c8:	ea4f 1181 	mov.w	r1, r1, lsl #6
   818cc:	f04f 0305 	mov.w	r3, #5
   818d0:	5043      	str	r3, [r0, r1]
   818d2:	4770      	bx	lr

000818d4 <tc_write_rc>:
   818d4:	eb00 1181 	add.w	r1, r0, r1, lsl #6
   818d8:	61ca      	str	r2, [r1, #28]
   818da:	4770      	bx	lr

000818dc <tc_enable_interrupt>:
   818dc:	eb00 1181 	add.w	r1, r0, r1, lsl #6
   818e0:	624a      	str	r2, [r1, #36]	; 0x24
   818e2:	4770      	bx	lr

000818e4 <tc_get_status>:
   818e4:	eb00 1181 	add.w	r1, r0, r1, lsl #6
   818e8:	6a08      	ldr	r0, [r1, #32]
   818ea:	4770      	bx	lr

000818ec <tc_find_mck_divisor>:
   818ec:	b470      	push	{r4, r5, r6}
   818ee:	b087      	sub	sp, #28
   818f0:	f04f 0402 	mov.w	r4, #2
   818f4:	9401      	str	r4, [sp, #4]
   818f6:	f04f 0508 	mov.w	r5, #8
   818fa:	9502      	str	r5, [sp, #8]
   818fc:	f04f 0420 	mov.w	r4, #32
   81900:	9403      	str	r4, [sp, #12]
   81902:	f04f 0580 	mov.w	r5, #128	; 0x80
   81906:	9504      	str	r5, [sp, #16]
   81908:	9c0a      	ldr	r4, [sp, #40]	; 0x28
   8190a:	ea4f 34d4 	mov.w	r4, r4, lsr #15
   8190e:	9405      	str	r4, [sp, #20]
   81910:	ea4f 4551 	mov.w	r5, r1, lsr #17
   81914:	ebb0 0f51 	cmp.w	r0, r1, lsr #1
   81918:	d83e      	bhi.n	81998 <tc_find_mck_divisor+0xac>
   8191a:	42a8      	cmp	r0, r5
   8191c:	d251      	bcs.n	819c2 <tc_find_mck_divisor+0xd6>
   8191e:	f04f 0608 	mov.w	r6, #8
   81922:	fbb1 f5f6 	udiv	r5, r1, r6
   81926:	ea4f 4615 	mov.w	r6, r5, lsr #16
   8192a:	42a8      	cmp	r0, r5
   8192c:	d837      	bhi.n	8199e <tc_find_mck_divisor+0xb2>
   8192e:	42b0      	cmp	r0, r6
   81930:	d21e      	bcs.n	81970 <tc_find_mck_divisor+0x84>
   81932:	f04f 0520 	mov.w	r5, #32
   81936:	fbb1 f5f5 	udiv	r5, r1, r5
   8193a:	ea4f 4615 	mov.w	r6, r5, lsr #16
   8193e:	42a8      	cmp	r0, r5
   81940:	d830      	bhi.n	819a4 <tc_find_mck_divisor+0xb8>
   81942:	42b0      	cmp	r0, r6
   81944:	d217      	bcs.n	81976 <tc_find_mck_divisor+0x8a>
   81946:	f04f 0680 	mov.w	r6, #128	; 0x80
   8194a:	fbb1 f5f6 	udiv	r5, r1, r6
   8194e:	ea4f 4615 	mov.w	r6, r5, lsr #16
   81952:	42a8      	cmp	r0, r5
   81954:	d829      	bhi.n	819aa <tc_find_mck_divisor+0xbe>
   81956:	42b0      	cmp	r0, r6
   81958:	d210      	bcs.n	8197c <tc_find_mck_divisor+0x90>
   8195a:	fbb1 f1f4 	udiv	r1, r1, r4
   8195e:	ea4f 4411 	mov.w	r4, r1, lsr #16
   81962:	4281      	cmp	r1, r0
   81964:	d324      	bcc.n	819b0 <tc_find_mck_divisor+0xc4>
   81966:	4284      	cmp	r4, r0
   81968:	bf98      	it	ls
   8196a:	2104      	movls	r1, #4
   8196c:	d92b      	bls.n	819c6 <tc_find_mck_divisor+0xda>
   8196e:	e022      	b.n	819b6 <tc_find_mck_divisor+0xca>
   81970:	f04f 0101 	mov.w	r1, #1
   81974:	e027      	b.n	819c6 <tc_find_mck_divisor+0xda>
   81976:	f04f 0102 	mov.w	r1, #2
   8197a:	e024      	b.n	819c6 <tc_find_mck_divisor+0xda>
   8197c:	f04f 0103 	mov.w	r1, #3
   81980:	e021      	b.n	819c6 <tc_find_mck_divisor+0xda>
   81982:	ac06      	add	r4, sp, #24
   81984:	eb04 0081 	add.w	r0, r4, r1, lsl #2
   81988:	f850 0c14 	ldr.w	r0, [r0, #-20]
   8198c:	6010      	str	r0, [r2, #0]
   8198e:	b1ab      	cbz	r3, 819bc <tc_find_mck_divisor+0xd0>
   81990:	6019      	str	r1, [r3, #0]
   81992:	f04f 0001 	mov.w	r0, #1
   81996:	e019      	b.n	819cc <tc_find_mck_divisor+0xe0>
   81998:	f04f 0000 	mov.w	r0, #0
   8199c:	e016      	b.n	819cc <tc_find_mck_divisor+0xe0>
   8199e:	f04f 0000 	mov.w	r0, #0
   819a2:	e013      	b.n	819cc <tc_find_mck_divisor+0xe0>
   819a4:	f04f 0000 	mov.w	r0, #0
   819a8:	e010      	b.n	819cc <tc_find_mck_divisor+0xe0>
   819aa:	f04f 0000 	mov.w	r0, #0
   819ae:	e00d      	b.n	819cc <tc_find_mck_divisor+0xe0>
   819b0:	f04f 0000 	mov.w	r0, #0
   819b4:	e00a      	b.n	819cc <tc_find_mck_divisor+0xe0>
   819b6:	f04f 0000 	mov.w	r0, #0
   819ba:	e007      	b.n	819cc <tc_find_mck_divisor+0xe0>
   819bc:	f04f 0001 	mov.w	r0, #1
   819c0:	e004      	b.n	819cc <tc_find_mck_divisor+0xe0>
   819c2:	f04f 0100 	mov.w	r1, #0
   819c6:	2a00      	cmp	r2, #0
   819c8:	d1db      	bne.n	81982 <tc_find_mck_divisor+0x96>
   819ca:	e7e0      	b.n	8198e <tc_find_mck_divisor+0xa2>
   819cc:	b007      	add	sp, #28
   819ce:	bc70      	pop	{r4, r5, r6}
   819d0:	4770      	bx	lr
   819d2:	bf00      	nop

000819d4 <twi_enable_master_mode>:
   819d4:	f04f 0308 	mov.w	r3, #8
   819d8:	6003      	str	r3, [r0, #0]
   819da:	f04f 0120 	mov.w	r1, #32
   819de:	6001      	str	r1, [r0, #0]
   819e0:	f04f 0204 	mov.w	r2, #4
   819e4:	6002      	str	r2, [r0, #0]
   819e6:	4770      	bx	lr

000819e8 <twi_set_speed>:
   819e8:	f44f 53d4 	mov.w	r3, #6784	; 0x1a80
   819ec:	f2c0 0306 	movt	r3, #6
   819f0:	4299      	cmp	r1, r3
   819f2:	d845      	bhi.n	81a80 <twi_set_speed+0x98>
   819f4:	ea4f 0141 	mov.w	r1, r1, lsl #1
   819f8:	fbb2 f2f1 	udiv	r2, r2, r1
   819fc:	f1a2 0204 	sub.w	r2, r2, #4
   81a00:	2aff      	cmp	r2, #255	; 0xff
   81a02:	d92e      	bls.n	81a62 <twi_set_speed+0x7a>
   81a04:	ea4f 0252 	mov.w	r2, r2, lsr #1
   81a08:	2aff      	cmp	r2, #255	; 0xff
   81a0a:	d918      	bls.n	81a3e <twi_set_speed+0x56>
   81a0c:	ea4f 0252 	mov.w	r2, r2, lsr #1
   81a10:	2aff      	cmp	r2, #255	; 0xff
   81a12:	d917      	bls.n	81a44 <twi_set_speed+0x5c>
   81a14:	ea4f 0252 	mov.w	r2, r2, lsr #1
   81a18:	2aff      	cmp	r2, #255	; 0xff
   81a1a:	d916      	bls.n	81a4a <twi_set_speed+0x62>
   81a1c:	ea4f 0252 	mov.w	r2, r2, lsr #1
   81a20:	2aff      	cmp	r2, #255	; 0xff
   81a22:	d915      	bls.n	81a50 <twi_set_speed+0x68>
   81a24:	ea4f 0252 	mov.w	r2, r2, lsr #1
   81a28:	2aff      	cmp	r2, #255	; 0xff
   81a2a:	d914      	bls.n	81a56 <twi_set_speed+0x6e>
   81a2c:	ea4f 0252 	mov.w	r2, r2, lsr #1
   81a30:	2aff      	cmp	r2, #255	; 0xff
   81a32:	d913      	bls.n	81a5c <twi_set_speed+0x74>
   81a34:	ea4f 0252 	mov.w	r2, r2, lsr #1
   81a38:	f04f 0307 	mov.w	r3, #7
   81a3c:	e013      	b.n	81a66 <twi_set_speed+0x7e>
   81a3e:	f04f 0301 	mov.w	r3, #1
   81a42:	e010      	b.n	81a66 <twi_set_speed+0x7e>
   81a44:	f04f 0302 	mov.w	r3, #2
   81a48:	e00d      	b.n	81a66 <twi_set_speed+0x7e>
   81a4a:	f04f 0303 	mov.w	r3, #3
   81a4e:	e00a      	b.n	81a66 <twi_set_speed+0x7e>
   81a50:	f04f 0304 	mov.w	r3, #4
   81a54:	e007      	b.n	81a66 <twi_set_speed+0x7e>
   81a56:	f04f 0305 	mov.w	r3, #5
   81a5a:	e004      	b.n	81a66 <twi_set_speed+0x7e>
   81a5c:	f04f 0306 	mov.w	r3, #6
   81a60:	e001      	b.n	81a66 <twi_set_speed+0x7e>
   81a62:	f04f 0300 	mov.w	r3, #0
   81a66:	ea4f 6102 	mov.w	r1, r2, lsl #24
   81a6a:	ea4f 4303 	mov.w	r3, r3, lsl #16
   81a6e:	ea43 4111 	orr.w	r1, r3, r1, lsr #16
   81a72:	b2d2      	uxtb	r2, r2
   81a74:	ea41 0302 	orr.w	r3, r1, r2
   81a78:	6103      	str	r3, [r0, #16]
   81a7a:	f04f 0000 	mov.w	r0, #0
   81a7e:	4770      	bx	lr
   81a80:	f04f 0001 	mov.w	r0, #1
   81a84:	4770      	bx	lr
   81a86:	bf00      	nop

00081a88 <twi_reset>:
   81a88:	f04f 0380 	mov.w	r3, #128	; 0x80
   81a8c:	6003      	str	r3, [r0, #0]
   81a8e:	6b03      	ldr	r3, [r0, #48]	; 0x30
   81a90:	4770      	bx	lr
   81a92:	bf00      	nop

00081a94 <twi_master_init>:
   81a94:	b538      	push	{r3, r4, r5, lr}
   81a96:	4604      	mov	r4, r0
   81a98:	460d      	mov	r5, r1
   81a9a:	f04f 33ff 	mov.w	r3, #4294967295
   81a9e:	6283      	str	r3, [r0, #40]	; 0x28
   81aa0:	6a03      	ldr	r3, [r0, #32]
   81aa2:	f641 2189 	movw	r1, #6793	; 0x1a89
   81aa6:	f2c0 0108 	movt	r1, #8
   81aaa:	4788      	blx	r1
   81aac:	4620      	mov	r0, r4
   81aae:	f641 12d5 	movw	r2, #6613	; 0x19d5
   81ab2:	f2c0 0208 	movt	r2, #8
   81ab6:	4790      	blx	r2
   81ab8:	4620      	mov	r0, r4
   81aba:	6869      	ldr	r1, [r5, #4]
   81abc:	682a      	ldr	r2, [r5, #0]
   81abe:	f641 13e9 	movw	r3, #6633	; 0x19e9
   81ac2:	f2c0 0308 	movt	r3, #8
   81ac6:	4798      	blx	r3
   81ac8:	2801      	cmp	r0, #1
   81aca:	bf14      	ite	ne
   81acc:	2000      	movne	r0, #0
   81ace:	2001      	moveq	r0, #1
   81ad0:	7a69      	ldrb	r1, [r5, #9]
   81ad2:	2901      	cmp	r1, #1
   81ad4:	bf04      	itt	eq
   81ad6:	2140      	moveq	r1, #64	; 0x40
   81ad8:	6021      	streq	r1, [r4, #0]
   81ada:	bd38      	pop	{r3, r4, r5, pc}

00081adc <wdt_disable>:
   81adc:	f44f 4300 	mov.w	r3, #32768	; 0x8000
   81ae0:	6043      	str	r3, [r0, #4]
   81ae2:	4770      	bx	lr

00081ae4 <init_board>:
   81ae4:	b570      	push	{r4, r5, r6, lr}
   81ae6:	f04f 002b 	mov.w	r0, #43	; 0x2b
   81aea:	f04f 6100 	mov.w	r1, #134217728	; 0x8000000
   81aee:	f247 04c5 	movw	r4, #28869	; 0x70c5
   81af2:	f2c0 0408 	movt	r4, #8
   81af6:	47a0      	blx	r4
   81af8:	f04f 002a 	mov.w	r0, #42	; 0x2a
   81afc:	f04f 6100 	mov.w	r1, #134217728	; 0x8000000
   81b00:	47a0      	blx	r4
   81b02:	f04f 0014 	mov.w	r0, #20
   81b06:	f04f 6100 	mov.w	r1, #134217728	; 0x8000000
   81b0a:	47a0      	blx	r4
   81b0c:	f04f 0013 	mov.w	r0, #19
   81b10:	f04f 6100 	mov.w	r1, #134217728	; 0x8000000
   81b14:	47a0      	blx	r4
   81b16:	f04f 0015 	mov.w	r0, #21
   81b1a:	f04f 6100 	mov.w	r1, #134217728	; 0x8000000
   81b1e:	47a0      	blx	r4
   81b20:	f04f 0016 	mov.w	r0, #22
   81b24:	f04f 6100 	mov.w	r1, #134217728	; 0x8000000
   81b28:	47a0      	blx	r4
   81b2a:	f04f 0017 	mov.w	r0, #23
   81b2e:	f04f 6100 	mov.w	r1, #134217728	; 0x8000000
   81b32:	47a0      	blx	r4
   81b34:	f04f 0018 	mov.w	r0, #24
   81b38:	f04f 6100 	mov.w	r1, #134217728	; 0x8000000
   81b3c:	47a0      	blx	r4
   81b3e:	f04f 0067 	mov.w	r0, #103	; 0x67
   81b42:	f04f 0108 	mov.w	r1, #8
   81b46:	47a0      	blx	r4
   81b48:	f04f 0016 	mov.w	r0, #22
   81b4c:	f247 36e9 	movw	r6, #29673	; 0x73e9
   81b50:	f2c0 0608 	movt	r6, #8
   81b54:	47b0      	blx	r6
   81b56:	f04f 0011 	mov.w	r0, #17
   81b5a:	f04f 6100 	mov.w	r1, #134217728	; 0x8000000
   81b5e:	47a0      	blx	r4
   81b60:	f04f 0012 	mov.w	r0, #18
   81b64:	f04f 6100 	mov.w	r1, #134217728	; 0x8000000
   81b68:	47a0      	blx	r4
   81b6a:	f04f 000c 	mov.w	r0, #12
   81b6e:	47b0      	blx	r6
   81b70:	f44f 5580 	mov.w	r5, #4096	; 0x1000
   81b74:	f2c4 050e 	movt	r5, #16398	; 0x400e
   81b78:	f04f 7380 	mov.w	r3, #16777216	; 0x1000000
   81b7c:	612b      	str	r3, [r5, #16]
   81b7e:	f8c5 30a0 	str.w	r3, [r5, #160]	; 0xa0
   81b82:	636b      	str	r3, [r5, #52]	; 0x34
   81b84:	f44f 6460 	mov.w	r4, #3584	; 0xe00
   81b88:	f2c4 040e 	movt	r4, #16398	; 0x400e
   81b8c:	f44f 5080 	mov.w	r0, #4096	; 0x1000
   81b90:	6620      	str	r0, [r4, #96]	; 0x60
   81b92:	6560      	str	r0, [r4, #84]	; 0x54
   81b94:	6260      	str	r0, [r4, #36]	; 0x24
   81b96:	f8c4 0080 	str.w	r0, [r4, #128]	; 0x80
   81b9a:	6f22      	ldr	r2, [r4, #112]	; 0x70
   81b9c:	4302      	orrs	r2, r0
   81b9e:	6722      	str	r2, [r4, #112]	; 0x70
   81ba0:	6060      	str	r0, [r4, #4]
   81ba2:	f04f 0101 	mov.w	r1, #1
   81ba6:	6621      	str	r1, [r4, #96]	; 0x60
   81ba8:	6561      	str	r1, [r4, #84]	; 0x54
   81baa:	6261      	str	r1, [r4, #36]	; 0x24
   81bac:	f8c4 1080 	str.w	r1, [r4, #128]	; 0x80
   81bb0:	6f23      	ldr	r3, [r4, #112]	; 0x70
   81bb2:	430b      	orrs	r3, r1
   81bb4:	6723      	str	r3, [r4, #112]	; 0x70
   81bb6:	6061      	str	r1, [r4, #4]
   81bb8:	f44f 5000 	mov.w	r0, #8192	; 0x2000
   81bbc:	6620      	str	r0, [r4, #96]	; 0x60
   81bbe:	6560      	str	r0, [r4, #84]	; 0x54
   81bc0:	6260      	str	r0, [r4, #36]	; 0x24
   81bc2:	f8c4 0080 	str.w	r0, [r4, #128]	; 0x80
   81bc6:	6f22      	ldr	r2, [r4, #112]	; 0x70
   81bc8:	4302      	orrs	r2, r0
   81bca:	6722      	str	r2, [r4, #112]	; 0x70
   81bcc:	6060      	str	r0, [r4, #4]
   81bce:	f04f 000c 	mov.w	r0, #12
   81bd2:	47b0      	blx	r6
   81bd4:	f44f 0100 	mov.w	r1, #8388608	; 0x800000
   81bd8:	6169      	str	r1, [r5, #20]
   81bda:	f8c5 10a0 	str.w	r1, [r5, #160]	; 0xa0
   81bde:	6669      	str	r1, [r5, #100]	; 0x64
   81be0:	6569      	str	r1, [r5, #84]	; 0x54
   81be2:	6229      	str	r1, [r5, #32]
   81be4:	f8c5 1084 	str.w	r1, [r5, #132]	; 0x84
   81be8:	6f2b      	ldr	r3, [r5, #112]	; 0x70
   81bea:	f423 0000 	bic.w	r0, r3, #8388608	; 0x800000
   81bee:	6728      	str	r0, [r5, #112]	; 0x70
   81bf0:	f04f 000e 	mov.w	r0, #14
   81bf4:	47b0      	blx	r6
   81bf6:	f44f 55a0 	mov.w	r5, #5120	; 0x1400
   81bfa:	f2c4 050e 	movt	r5, #16398	; 0x400e
   81bfe:	f44f 6280 	mov.w	r2, #1024	; 0x400
   81c02:	616a      	str	r2, [r5, #20]
   81c04:	f8c5 20a0 	str.w	r2, [r5, #160]	; 0xa0
   81c08:	666a      	str	r2, [r5, #100]	; 0x64
   81c0a:	656a      	str	r2, [r5, #84]	; 0x54
   81c0c:	622a      	str	r2, [r5, #32]
   81c0e:	f8c5 2084 	str.w	r2, [r5, #132]	; 0x84
   81c12:	6f29      	ldr	r1, [r5, #112]	; 0x70
   81c14:	f421 6380 	bic.w	r3, r1, #1024	; 0x400
   81c18:	672b      	str	r3, [r5, #112]	; 0x70
   81c1a:	f04f 000b 	mov.w	r0, #11
   81c1e:	47b0      	blx	r6
   81c20:	f04f 0020 	mov.w	r0, #32
   81c24:	6120      	str	r0, [r4, #16]
   81c26:	f8c4 00a0 	str.w	r0, [r4, #160]	; 0xa0
   81c2a:	6360      	str	r0, [r4, #52]	; 0x34
   81c2c:	f04f 000b 	mov.w	r0, #11
   81c30:	47b0      	blx	r6
   81c32:	f04f 0280 	mov.w	r2, #128	; 0x80
   81c36:	6122      	str	r2, [r4, #16]
   81c38:	f8c4 20a0 	str.w	r2, [r4, #160]	; 0xa0
   81c3c:	6322      	str	r2, [r4, #48]	; 0x30
   81c3e:	f04f 000b 	mov.w	r0, #11
   81c42:	47b0      	blx	r6
   81c44:	f04f 0102 	mov.w	r1, #2
   81c48:	6161      	str	r1, [r4, #20]
   81c4a:	f8c4 10a0 	str.w	r1, [r4, #160]	; 0xa0
   81c4e:	6621      	str	r1, [r4, #96]	; 0x60
   81c50:	6561      	str	r1, [r4, #84]	; 0x54
   81c52:	6221      	str	r1, [r4, #32]
   81c54:	f8c4 1084 	str.w	r1, [r4, #132]	; 0x84
   81c58:	6f23      	ldr	r3, [r4, #112]	; 0x70
   81c5a:	f023 0002 	bic.w	r0, r3, #2
   81c5e:	6720      	str	r0, [r4, #112]	; 0x70
   81c60:	f04f 000e 	mov.w	r0, #14
   81c64:	47b0      	blx	r6
   81c66:	f44f 7280 	mov.w	r2, #256	; 0x100
   81c6a:	616a      	str	r2, [r5, #20]
   81c6c:	f8c5 20a0 	str.w	r2, [r5, #160]	; 0xa0
   81c70:	662a      	str	r2, [r5, #96]	; 0x60
   81c72:	656a      	str	r2, [r5, #84]	; 0x54
   81c74:	622a      	str	r2, [r5, #32]
   81c76:	f8c5 2084 	str.w	r2, [r5, #132]	; 0x84
   81c7a:	6f29      	ldr	r1, [r5, #112]	; 0x70
   81c7c:	f421 7380 	bic.w	r3, r1, #256	; 0x100
   81c80:	672b      	str	r3, [r5, #112]	; 0x70
   81c82:	f04f 000e 	mov.w	r0, #14
   81c86:	47b0      	blx	r6
   81c88:	f44f 7000 	mov.w	r0, #512	; 0x200
   81c8c:	6128      	str	r0, [r5, #16]
   81c8e:	f8c5 00a0 	str.w	r0, [r5, #160]	; 0xa0
   81c92:	6368      	str	r0, [r5, #52]	; 0x34
   81c94:	bd70      	pop	{r4, r5, r6, pc}
   81c96:	bf00      	nop

00081c98 <led_activity_routine>:
	base->PIO_CODR = mask & ~level;
}

__always_inline static bool arch_ioport_get_pin_level(ioport_pin_t pin)
{
	return arch_ioport_pin_to_base(pin)->PIO_PDSR & arch_ioport_pin_to_mask(pin);
   81c98:	f44f 5390 	mov.w	r3, #4608	; 0x1200
   81c9c:	f2c4 030e 	movt	r3, #16398	; 0x400e
   81ca0:	6bd8      	ldr	r0, [r3, #60]	; 0x3c
		ioport_set_pin_level(OUT_CH2_LED2_GPIO, IOPORT_PIN_LEVEL_LOW);
		ioport_set_pin_level(OUT_CH2_LED3_GPIO, IOPORT_PIN_LEVEL_LOW);
		return;
	#endif
	
	if(ioport_get_pin_level(CH1_PULSE_GPIO))
   81ca2:	f410 4f00 	tst.w	r0, #32768	; 0x8000
   81ca6:	d074      	beq.n	81d92 <led_activity_routine+0xfa>
		bool level)
{
	Pio *base = arch_ioport_pin_to_base(pin);

	if (level) {
		base->PIO_SODR = arch_ioport_pin_to_mask(pin);
   81ca8:	f44f 5190 	mov.w	r1, #4608	; 0x1200
   81cac:	f2c4 010e 	movt	r1, #16398	; 0x400e
   81cb0:	f44f 3280 	mov.w	r2, #65536	; 0x10000
   81cb4:	630a      	str	r2, [r1, #48]	; 0x30
	{
		ioport_set_pin_level(CH1_PULSE_RES_GPIO, IOPORT_PIN_LEVEL_HIGH);
		asm("NOP");asm("NOP");asm("NOP");
   81cb6:	bf00      	nop
   81cb8:	bf00      	nop
   81cba:	bf00      	nop
	} else {
		base->PIO_CODR = arch_ioport_pin_to_mask(pin);
   81cbc:	634a      	str	r2, [r1, #52]	; 0x34
		ioport_set_pin_level(CH1_PULSE_RES_GPIO, IOPORT_PIN_LEVEL_LOW);
		
		if(ch1_in_color == GREEN)
   81cbe:	f240 0332 	movw	r3, #50	; 0x32
   81cc2:	f2c2 0307 	movt	r3, #8199	; 0x2007
   81cc6:	8818      	ldrh	r0, [r3, #0]
   81cc8:	2803      	cmp	r0, #3
   81cca:	d110      	bne.n	81cee <led_activity_routine+0x56>
__always_inline static void arch_ioport_toggle_pin_level(ioport_pin_t pin)
{
	Pio *port = arch_ioport_pin_to_base(pin);
	ioport_port_mask_t mask = arch_ioport_pin_to_mask(pin);

	if (port->PIO_PDSR & arch_ioport_pin_to_mask(pin)) {
   81ccc:	f44f 5190 	mov.w	r1, #4608	; 0x1200
   81cd0:	f2c4 010e 	movt	r1, #16398	; 0x400e
   81cd4:	6bca      	ldr	r2, [r1, #60]	; 0x3c
   81cd6:	f412 5f80 	tst.w	r2, #4096	; 0x1000
		port->PIO_CODR = mask;
   81cda:	f44f 5390 	mov.w	r3, #4608	; 0x1200
   81cde:	f2c4 030e 	movt	r3, #16398	; 0x400e
   81ce2:	f44f 5080 	mov.w	r0, #4096	; 0x1000
   81ce6:	bf14      	ite	ne
   81ce8:	6358      	strne	r0, [r3, #52]	; 0x34
	} else {
		port->PIO_SODR = mask;
   81cea:	6318      	streq	r0, [r3, #48]	; 0x30
   81cec:	e011      	b.n	81d12 <led_activity_routine+0x7a>
		{
			ioport_toggle_pin_level(IN_CH1_LED3_GPIO);
		}
		else if(ch1_in_color == BLUE)
   81cee:	2802      	cmp	r0, #2
   81cf0:	d10f      	bne.n	81d12 <led_activity_routine+0x7a>
__always_inline static void arch_ioport_toggle_pin_level(ioport_pin_t pin)
{
	Pio *port = arch_ioport_pin_to_base(pin);
	ioport_port_mask_t mask = arch_ioport_pin_to_mask(pin);

	if (port->PIO_PDSR & arch_ioport_pin_to_mask(pin)) {
   81cf2:	f44f 5190 	mov.w	r1, #4608	; 0x1200
   81cf6:	f2c4 010e 	movt	r1, #16398	; 0x400e
   81cfa:	6bca      	ldr	r2, [r1, #60]	; 0x3c
   81cfc:	f412 5f00 	tst.w	r2, #8192	; 0x2000
		port->PIO_CODR = mask;
   81d00:	f44f 5390 	mov.w	r3, #4608	; 0x1200
   81d04:	f2c4 030e 	movt	r3, #16398	; 0x400e
   81d08:	f44f 5000 	mov.w	r0, #8192	; 0x2000
   81d0c:	bf14      	ite	ne
   81d0e:	6358      	strne	r0, [r3, #52]	; 0x34
	} else {
		port->PIO_SODR = mask;
   81d10:	6318      	streq	r0, [r3, #48]	; 0x30
		{
			ioport_toggle_pin_level(IN_CH1_LED2_GPIO);
		}
		if(is_channel1_delay_en == TRUE)
   81d12:	f640 3110 	movw	r1, #2832	; 0xb10
   81d16:	f2c2 0107 	movt	r1, #8199	; 0x2007
   81d1a:	880a      	ldrh	r2, [r1, #0]
   81d1c:	2a01      	cmp	r2, #1
   81d1e:	d12a      	bne.n	81d76 <led_activity_routine+0xde>
		{
			if(ch1_out_color == GREEN)
   81d20:	f240 0334 	movw	r3, #52	; 0x34
   81d24:	f2c2 0307 	movt	r3, #8199	; 0x2007
   81d28:	8818      	ldrh	r0, [r3, #0]
   81d2a:	2803      	cmp	r0, #3
   81d2c:	d110      	bne.n	81d50 <led_activity_routine+0xb8>
__always_inline static void arch_ioport_toggle_pin_level(ioport_pin_t pin)
{
	Pio *port = arch_ioport_pin_to_base(pin);
	ioport_port_mask_t mask = arch_ioport_pin_to_mask(pin);

	if (port->PIO_PDSR & arch_ioport_pin_to_mask(pin)) {
   81d2e:	f44f 5190 	mov.w	r1, #4608	; 0x1200
   81d32:	f2c4 010e 	movt	r1, #16398	; 0x400e
   81d36:	6bca      	ldr	r2, [r1, #60]	; 0x3c
   81d38:	f412 2f80 	tst.w	r2, #262144	; 0x40000
		port->PIO_CODR = mask;
   81d3c:	f44f 5390 	mov.w	r3, #4608	; 0x1200
   81d40:	f2c4 030e 	movt	r3, #16398	; 0x400e
   81d44:	f44f 2080 	mov.w	r0, #262144	; 0x40000
   81d48:	bf14      	ite	ne
   81d4a:	6358      	strne	r0, [r3, #52]	; 0x34
	} else {
		port->PIO_SODR = mask;
   81d4c:	6318      	streq	r0, [r3, #48]	; 0x30
   81d4e:	e036      	b.n	81dbe <led_activity_routine+0x126>
			{
				ioport_toggle_pin_level(OUT_CH1_LED3_GPIO);
			}
			else if(ch1_out_color == BLUE)
   81d50:	2802      	cmp	r0, #2
   81d52:	d134      	bne.n	81dbe <led_activity_routine+0x126>
__always_inline static void arch_ioport_toggle_pin_level(ioport_pin_t pin)
{
	Pio *port = arch_ioport_pin_to_base(pin);
	ioport_port_mask_t mask = arch_ioport_pin_to_mask(pin);

	if (port->PIO_PDSR & arch_ioport_pin_to_mask(pin)) {
   81d54:	f44f 5190 	mov.w	r1, #4608	; 0x1200
   81d58:	f2c4 010e 	movt	r1, #16398	; 0x400e
   81d5c:	6bca      	ldr	r2, [r1, #60]	; 0x3c
   81d5e:	f412 2f00 	tst.w	r2, #524288	; 0x80000
		port->PIO_CODR = mask;
   81d62:	f44f 5390 	mov.w	r3, #4608	; 0x1200
   81d66:	f2c4 030e 	movt	r3, #16398	; 0x400e
   81d6a:	f44f 2000 	mov.w	r0, #524288	; 0x80000
   81d6e:	bf14      	ite	ne
   81d70:	6358      	strne	r0, [r3, #52]	; 0x34
	} else {
		port->PIO_SODR = mask;
   81d72:	6318      	streq	r0, [r3, #48]	; 0x30
   81d74:	e023      	b.n	81dbe <led_activity_routine+0x126>
		bool level)
{
	Pio *base = arch_ioport_pin_to_base(pin);

	if (level) {
		base->PIO_SODR = arch_ioport_pin_to_mask(pin);
   81d76:	f44f 5390 	mov.w	r3, #4608	; 0x1200
   81d7a:	f2c4 030e 	movt	r3, #16398	; 0x400e
   81d7e:	f44f 3000 	mov.w	r0, #131072	; 0x20000
   81d82:	6318      	str	r0, [r3, #48]	; 0x30
   81d84:	f44f 2100 	mov.w	r1, #524288	; 0x80000
   81d88:	6319      	str	r1, [r3, #48]	; 0x30
   81d8a:	f44f 2280 	mov.w	r2, #262144	; 0x40000
   81d8e:	631a      	str	r2, [r3, #48]	; 0x30
   81d90:	e015      	b.n	81dbe <led_activity_routine+0x126>
   81d92:	f44f 5190 	mov.w	r1, #4608	; 0x1200
   81d96:	f2c4 010e 	movt	r1, #16398	; 0x400e
   81d9a:	f44f 6200 	mov.w	r2, #2048	; 0x800
   81d9e:	630a      	str	r2, [r1, #48]	; 0x30
   81da0:	f44f 5300 	mov.w	r3, #8192	; 0x2000
   81da4:	630b      	str	r3, [r1, #48]	; 0x30
   81da6:	f44f 5080 	mov.w	r0, #4096	; 0x1000
   81daa:	6308      	str	r0, [r1, #48]	; 0x30
   81dac:	f44f 3200 	mov.w	r2, #131072	; 0x20000
   81db0:	630a      	str	r2, [r1, #48]	; 0x30
   81db2:	f44f 2300 	mov.w	r3, #524288	; 0x80000
   81db6:	630b      	str	r3, [r1, #48]	; 0x30
   81db8:	f44f 2080 	mov.w	r0, #262144	; 0x40000
   81dbc:	6308      	str	r0, [r1, #48]	; 0x30
	base->PIO_CODR = mask & ~level;
}

__always_inline static bool arch_ioport_get_pin_level(ioport_pin_t pin)
{
	return arch_ioport_pin_to_base(pin)->PIO_PDSR & arch_ioport_pin_to_mask(pin);
   81dbe:	f44f 5180 	mov.w	r1, #4096	; 0x1000
   81dc2:	f2c4 010e 	movt	r1, #16398	; 0x400e
   81dc6:	6bca      	ldr	r2, [r1, #60]	; 0x3c
		ioport_set_pin_level(OUT_CH1_LED1_GPIO, IOPORT_PIN_LEVEL_HIGH);
		ioport_set_pin_level(OUT_CH1_LED2_GPIO, IOPORT_PIN_LEVEL_HIGH);
		ioport_set_pin_level(OUT_CH1_LED3_GPIO, IOPORT_PIN_LEVEL_HIGH);		
	}
	
	if(ioport_get_pin_level(CH2_PULSE_GPIO))
   81dc8:	f012 0f04 	tst.w	r2, #4
   81dcc:	d074      	beq.n	81eb8 <led_activity_routine+0x220>
		bool level)
{
	Pio *base = arch_ioport_pin_to_base(pin);

	if (level) {
		base->PIO_SODR = arch_ioport_pin_to_mask(pin);
   81dce:	f44f 5380 	mov.w	r3, #4096	; 0x1000
   81dd2:	f2c4 030e 	movt	r3, #16398	; 0x400e
   81dd6:	f04f 0010 	mov.w	r0, #16
   81dda:	6318      	str	r0, [r3, #48]	; 0x30
	{
		ioport_set_pin_level(CH2_PULSE_RES_GPIO, IOPORT_PIN_LEVEL_HIGH);
		asm("NOP");asm("NOP");asm("NOP");
   81ddc:	bf00      	nop
   81dde:	bf00      	nop
   81de0:	bf00      	nop
	} else {
		base->PIO_CODR = arch_ioport_pin_to_mask(pin);
   81de2:	6358      	str	r0, [r3, #52]	; 0x34
		ioport_set_pin_level(CH2_PULSE_RES_GPIO, IOPORT_PIN_LEVEL_LOW);
		
		if(ch2_in_color == GREEN)
   81de4:	f240 0130 	movw	r1, #48	; 0x30
   81de8:	f2c2 0107 	movt	r1, #8199	; 0x2007
   81dec:	880a      	ldrh	r2, [r1, #0]
   81dee:	2a03      	cmp	r2, #3
   81df0:	d110      	bne.n	81e14 <led_activity_routine+0x17c>
__always_inline static void arch_ioport_toggle_pin_level(ioport_pin_t pin)
{
	Pio *port = arch_ioport_pin_to_base(pin);
	ioport_port_mask_t mask = arch_ioport_pin_to_mask(pin);

	if (port->PIO_PDSR & arch_ioport_pin_to_mask(pin)) {
   81df2:	f44f 5390 	mov.w	r3, #4608	; 0x1200
   81df6:	f2c4 030e 	movt	r3, #16398	; 0x400e
   81dfa:	6bd8      	ldr	r0, [r3, #60]	; 0x3c
   81dfc:	f410 6f80 	tst.w	r0, #1024	; 0x400
		port->PIO_CODR = mask;
   81e00:	f44f 5190 	mov.w	r1, #4608	; 0x1200
   81e04:	f2c4 010e 	movt	r1, #16398	; 0x400e
   81e08:	f44f 6280 	mov.w	r2, #1024	; 0x400
   81e0c:	bf14      	ite	ne
   81e0e:	634a      	strne	r2, [r1, #52]	; 0x34
	} else {
		port->PIO_SODR = mask;
   81e10:	630a      	streq	r2, [r1, #48]	; 0x30
   81e12:	e011      	b.n	81e38 <led_activity_routine+0x1a0>
		{
			ioport_toggle_pin_level(IN_CH2_LED3_GPIO);
		}
		else if(ch2_in_color == BLUE)
   81e14:	2a02      	cmp	r2, #2
   81e16:	d10f      	bne.n	81e38 <led_activity_routine+0x1a0>
__always_inline static void arch_ioport_toggle_pin_level(ioport_pin_t pin)
{
	Pio *port = arch_ioport_pin_to_base(pin);
	ioport_port_mask_t mask = arch_ioport_pin_to_mask(pin);

	if (port->PIO_PDSR & arch_ioport_pin_to_mask(pin)) {
   81e18:	f44f 5380 	mov.w	r3, #4096	; 0x1000
   81e1c:	f2c4 030e 	movt	r3, #16398	; 0x400e
   81e20:	6bd8      	ldr	r0, [r3, #60]	; 0x3c
   81e22:	f010 0f08 	tst.w	r0, #8
		port->PIO_CODR = mask;
   81e26:	f44f 5180 	mov.w	r1, #4096	; 0x1000
   81e2a:	f2c4 010e 	movt	r1, #16398	; 0x400e
   81e2e:	f04f 0208 	mov.w	r2, #8
   81e32:	bf14      	ite	ne
   81e34:	634a      	strne	r2, [r1, #52]	; 0x34
	} else {
		port->PIO_SODR = mask;
   81e36:	630a      	streq	r2, [r1, #48]	; 0x30
		{
			ioport_toggle_pin_level(IN_CH2_LED2_GPIO);
		}
		if (is_channel2_delay_en == TRUE)
   81e38:	f640 3314 	movw	r3, #2836	; 0xb14
   81e3c:	f2c2 0307 	movt	r3, #8199	; 0x2007
   81e40:	8818      	ldrh	r0, [r3, #0]
   81e42:	2801      	cmp	r0, #1
   81e44:	d12a      	bne.n	81e9c <led_activity_routine+0x204>
		{
			if(ch2_out_color == GREEN)
   81e46:	f240 0136 	movw	r1, #54	; 0x36
   81e4a:	f2c2 0107 	movt	r1, #8199	; 0x2007
   81e4e:	880a      	ldrh	r2, [r1, #0]
   81e50:	2a03      	cmp	r2, #3
   81e52:	d110      	bne.n	81e76 <led_activity_routine+0x1de>
__always_inline static void arch_ioport_toggle_pin_level(ioport_pin_t pin)
{
	Pio *port = arch_ioport_pin_to_base(pin);
	ioport_port_mask_t mask = arch_ioport_pin_to_mask(pin);

	if (port->PIO_PDSR & arch_ioport_pin_to_mask(pin)) {
   81e54:	f44f 5380 	mov.w	r3, #4096	; 0x1000
   81e58:	f2c4 030e 	movt	r3, #16398	; 0x400e
   81e5c:	6bd8      	ldr	r0, [r3, #60]	; 0x3c
   81e5e:	f010 0f40 	tst.w	r0, #64	; 0x40
		port->PIO_CODR = mask;
   81e62:	f44f 5180 	mov.w	r1, #4096	; 0x1000
   81e66:	f2c4 010e 	movt	r1, #16398	; 0x400e
   81e6a:	f04f 0240 	mov.w	r2, #64	; 0x40
   81e6e:	bf14      	ite	ne
   81e70:	634a      	strne	r2, [r1, #52]	; 0x34
	} else {
		port->PIO_SODR = mask;
   81e72:	630a      	streq	r2, [r1, #48]	; 0x30
   81e74:	4770      	bx	lr
			{
				ioport_toggle_pin_level(OUT_CH2_LED3_GPIO);
			}
			else if(ch2_out_color == BLUE)
   81e76:	2a02      	cmp	r2, #2
   81e78:	d138      	bne.n	81eec <led_activity_routine+0x254>
__always_inline static void arch_ioport_toggle_pin_level(ioport_pin_t pin)
{
	Pio *port = arch_ioport_pin_to_base(pin);
	ioport_port_mask_t mask = arch_ioport_pin_to_mask(pin);

	if (port->PIO_PDSR & arch_ioport_pin_to_mask(pin)) {
   81e7a:	f44f 5380 	mov.w	r3, #4096	; 0x1000
   81e7e:	f2c4 030e 	movt	r3, #16398	; 0x400e
   81e82:	6bd8      	ldr	r0, [r3, #60]	; 0x3c
   81e84:	f010 0f80 	tst.w	r0, #128	; 0x80
		port->PIO_CODR = mask;
   81e88:	f44f 5180 	mov.w	r1, #4096	; 0x1000
   81e8c:	f2c4 010e 	movt	r1, #16398	; 0x400e
   81e90:	f04f 0280 	mov.w	r2, #128	; 0x80
   81e94:	bf14      	ite	ne
   81e96:	634a      	strne	r2, [r1, #52]	; 0x34
	} else {
		port->PIO_SODR = mask;
   81e98:	630a      	streq	r2, [r1, #48]	; 0x30
   81e9a:	4770      	bx	lr
		bool level)
{
	Pio *base = arch_ioport_pin_to_base(pin);

	if (level) {
		base->PIO_SODR = arch_ioport_pin_to_mask(pin);
   81e9c:	f44f 5180 	mov.w	r1, #4096	; 0x1000
   81ea0:	f2c4 010e 	movt	r1, #16398	; 0x400e
   81ea4:	f04f 0220 	mov.w	r2, #32
   81ea8:	630a      	str	r2, [r1, #48]	; 0x30
   81eaa:	f04f 0380 	mov.w	r3, #128	; 0x80
   81eae:	630b      	str	r3, [r1, #48]	; 0x30
   81eb0:	f04f 0040 	mov.w	r0, #64	; 0x40
   81eb4:	6308      	str	r0, [r1, #48]	; 0x30
   81eb6:	4770      	bx	lr
   81eb8:	f44f 5090 	mov.w	r0, #4608	; 0x1200
   81ebc:	f2c4 000e 	movt	r0, #16398	; 0x400e
   81ec0:	f04f 0310 	mov.w	r3, #16
   81ec4:	6303      	str	r3, [r0, #48]	; 0x30
   81ec6:	f44f 5380 	mov.w	r3, #4096	; 0x1000
   81eca:	f2c4 030e 	movt	r3, #16398	; 0x400e
   81ece:	f04f 0108 	mov.w	r1, #8
   81ed2:	6319      	str	r1, [r3, #48]	; 0x30
   81ed4:	f44f 6280 	mov.w	r2, #1024	; 0x400
   81ed8:	6302      	str	r2, [r0, #48]	; 0x30
   81eda:	f04f 0020 	mov.w	r0, #32
   81ede:	6318      	str	r0, [r3, #48]	; 0x30
   81ee0:	f04f 0180 	mov.w	r1, #128	; 0x80
   81ee4:	6319      	str	r1, [r3, #48]	; 0x30
   81ee6:	f04f 0240 	mov.w	r2, #64	; 0x40
   81eea:	631a      	str	r2, [r3, #48]	; 0x30
   81eec:	4770      	bx	lr
   81eee:	bf00      	nop

00081ef0 <TC1_Handler>:

/**
 * \brief TC0,1 overflow interrupt
 */
void TC1_Handler(void)
{
   81ef0:	b508      	push	{r3, lr}
	tc_get_status(TC0, 1);
   81ef2:	f04f 0000 	mov.w	r0, #0
   81ef6:	f2c4 0008 	movt	r0, #16392	; 0x4008
   81efa:	f04f 0101 	mov.w	r1, #1
   81efe:	f641 03e5 	movw	r3, #6373	; 0x18e5
   81f02:	f2c0 0308 	movt	r3, #8
   81f06:	4798      	blx	r3
	led_activity_routine();
   81f08:	f641 4099 	movw	r0, #7321	; 0x1c99
   81f0c:	f2c0 0008 	movt	r0, #8
   81f10:	4780      	blx	r0
   81f12:	bd08      	pop	{r3, pc}

00081f14 <init_module_peripherals_bp>:
}

// Here should be all the initialization functions for the module before 12v power
void init_module_peripherals_bp(void)
{
   81f14:	e92d 47f0 	stmdb	sp!, {r4, r5, r6, r7, r8, r9, sl, lr}
   81f18:	b084      	sub	sp, #16
	/* LEDs IO */
	pmc_enable_periph_clk(IN_CH1_LED1_PIO_ID);
   81f1a:	f04f 000d 	mov.w	r0, #13
   81f1e:	f247 36e9 	movw	r6, #29673	; 0x73e9
   81f22:	f2c0 0608 	movt	r6, #8
   81f26:	47b0      	blx	r6
		enum ioport_direction dir)
{
	Pio *base = arch_ioport_pin_to_base(pin);

	if (dir == IOPORT_DIR_OUTPUT) {
		base->PIO_OER = arch_ioport_pin_to_mask(pin);
   81f28:	f44f 5490 	mov.w	r4, #4608	; 0x1200
   81f2c:	f2c4 040e 	movt	r4, #16398	; 0x400e
   81f30:	f44f 6300 	mov.w	r3, #2048	; 0x800
   81f34:	6123      	str	r3, [r4, #16]
	} else if (dir == IOPORT_DIR_INPUT) {
		base->PIO_ODR = arch_ioport_pin_to_mask(pin);
	}

	base->PIO_OWER = arch_ioport_pin_to_mask(pin);
   81f36:	f8c4 30a0 	str.w	r3, [r4, #160]	; 0xa0
		bool level)
{
	Pio *base = arch_ioport_pin_to_base(pin);

	if (level) {
		base->PIO_SODR = arch_ioport_pin_to_mask(pin);
   81f3a:	6323      	str	r3, [r4, #48]	; 0x30
	ioport_set_pin_dir(IN_CH1_LED1_GPIO, IOPORT_DIR_OUTPUT);
	ioport_set_pin_level(IN_CH1_LED1_GPIO, IOPORT_PIN_LEVEL_HIGH);
	pmc_enable_periph_clk(IN_CH1_LED2_PIO_ID);
   81f3c:	f04f 000d 	mov.w	r0, #13
   81f40:	47b0      	blx	r6
		enum ioport_direction dir)
{
	Pio *base = arch_ioport_pin_to_base(pin);

	if (dir == IOPORT_DIR_OUTPUT) {
		base->PIO_OER = arch_ioport_pin_to_mask(pin);
   81f42:	f44f 5000 	mov.w	r0, #8192	; 0x2000
   81f46:	6120      	str	r0, [r4, #16]
	} else if (dir == IOPORT_DIR_INPUT) {
		base->PIO_ODR = arch_ioport_pin_to_mask(pin);
	}

	base->PIO_OWER = arch_ioport_pin_to_mask(pin);
   81f48:	f8c4 00a0 	str.w	r0, [r4, #160]	; 0xa0
		bool level)
{
	Pio *base = arch_ioport_pin_to_base(pin);

	if (level) {
		base->PIO_SODR = arch_ioport_pin_to_mask(pin);
   81f4c:	6320      	str	r0, [r4, #48]	; 0x30
	ioport_set_pin_dir(IN_CH1_LED2_GPIO, IOPORT_DIR_OUTPUT);
	ioport_set_pin_level(IN_CH1_LED2_GPIO, IOPORT_PIN_LEVEL_HIGH);
	pmc_enable_periph_clk(IN_CH1_LED3_PIO_ID);
   81f4e:	f04f 000d 	mov.w	r0, #13
   81f52:	47b0      	blx	r6
		enum ioport_direction dir)
{
	Pio *base = arch_ioport_pin_to_base(pin);

	if (dir == IOPORT_DIR_OUTPUT) {
		base->PIO_OER = arch_ioport_pin_to_mask(pin);
   81f54:	f44f 5180 	mov.w	r1, #4096	; 0x1000
   81f58:	6121      	str	r1, [r4, #16]
	} else if (dir == IOPORT_DIR_INPUT) {
		base->PIO_ODR = arch_ioport_pin_to_mask(pin);
	}

	base->PIO_OWER = arch_ioport_pin_to_mask(pin);
   81f5a:	f8c4 10a0 	str.w	r1, [r4, #160]	; 0xa0
		bool level)
{
	Pio *base = arch_ioport_pin_to_base(pin);

	if (level) {
		base->PIO_SODR = arch_ioport_pin_to_mask(pin);
   81f5e:	6321      	str	r1, [r4, #48]	; 0x30
	ioport_set_pin_dir(IN_CH1_LED3_GPIO, IOPORT_DIR_OUTPUT);
	ioport_set_pin_level(IN_CH1_LED3_GPIO, IOPORT_PIN_LEVEL_HIGH);

	pmc_enable_periph_clk(OUT_CH1_LED1_PIO_ID);
   81f60:	f04f 000d 	mov.w	r0, #13
   81f64:	47b0      	blx	r6
		enum ioport_direction dir)
{
	Pio *base = arch_ioport_pin_to_base(pin);

	if (dir == IOPORT_DIR_OUTPUT) {
		base->PIO_OER = arch_ioport_pin_to_mask(pin);
   81f66:	f44f 3200 	mov.w	r2, #131072	; 0x20000
   81f6a:	6122      	str	r2, [r4, #16]
	} else if (dir == IOPORT_DIR_INPUT) {
		base->PIO_ODR = arch_ioport_pin_to_mask(pin);
	}

	base->PIO_OWER = arch_ioport_pin_to_mask(pin);
   81f6c:	f8c4 20a0 	str.w	r2, [r4, #160]	; 0xa0
		bool level)
{
	Pio *base = arch_ioport_pin_to_base(pin);

	if (level) {
		base->PIO_SODR = arch_ioport_pin_to_mask(pin);
   81f70:	6322      	str	r2, [r4, #48]	; 0x30
	ioport_set_pin_dir(OUT_CH1_LED1_GPIO, IOPORT_DIR_OUTPUT);
	ioport_set_pin_level(OUT_CH1_LED1_GPIO, IOPORT_PIN_LEVEL_HIGH);
	pmc_enable_periph_clk(OUT_CH1_LED2_PIO_ID);
   81f72:	f04f 000d 	mov.w	r0, #13
   81f76:	47b0      	blx	r6
		enum ioport_direction dir)
{
	Pio *base = arch_ioport_pin_to_base(pin);

	if (dir == IOPORT_DIR_OUTPUT) {
		base->PIO_OER = arch_ioport_pin_to_mask(pin);
   81f78:	f44f 2500 	mov.w	r5, #524288	; 0x80000
   81f7c:	6125      	str	r5, [r4, #16]
	} else if (dir == IOPORT_DIR_INPUT) {
		base->PIO_ODR = arch_ioport_pin_to_mask(pin);
	}

	base->PIO_OWER = arch_ioport_pin_to_mask(pin);
   81f7e:	f8c4 50a0 	str.w	r5, [r4, #160]	; 0xa0
		bool level)
{
	Pio *base = arch_ioport_pin_to_base(pin);

	if (level) {
		base->PIO_SODR = arch_ioport_pin_to_mask(pin);
   81f82:	6325      	str	r5, [r4, #48]	; 0x30
	ioport_set_pin_dir(OUT_CH1_LED2_GPIO, IOPORT_DIR_OUTPUT);
	ioport_set_pin_level(OUT_CH1_LED2_GPIO, IOPORT_PIN_LEVEL_HIGH);
	pmc_enable_periph_clk(OUT_CH1_LED3_PIO_ID);
   81f84:	f04f 000d 	mov.w	r0, #13
   81f88:	47b0      	blx	r6
		enum ioport_direction dir)
{
	Pio *base = arch_ioport_pin_to_base(pin);

	if (dir == IOPORT_DIR_OUTPUT) {
		base->PIO_OER = arch_ioport_pin_to_mask(pin);
   81f8a:	f44f 2780 	mov.w	r7, #262144	; 0x40000
   81f8e:	6127      	str	r7, [r4, #16]
	} else if (dir == IOPORT_DIR_INPUT) {
		base->PIO_ODR = arch_ioport_pin_to_mask(pin);
	}

	base->PIO_OWER = arch_ioport_pin_to_mask(pin);
   81f90:	f8c4 70a0 	str.w	r7, [r4, #160]	; 0xa0
		bool level)
{
	Pio *base = arch_ioport_pin_to_base(pin);

	if (level) {
		base->PIO_SODR = arch_ioport_pin_to_mask(pin);
   81f94:	6327      	str	r7, [r4, #48]	; 0x30
	ioport_set_pin_dir(OUT_CH1_LED3_GPIO, IOPORT_DIR_OUTPUT);
	ioport_set_pin_level(OUT_CH1_LED3_GPIO, IOPORT_PIN_LEVEL_HIGH);

	pmc_enable_periph_clk(IN_CH2_LED1_PIO_ID);
   81f96:	f04f 000d 	mov.w	r0, #13
   81f9a:	47b0      	blx	r6
		enum ioport_direction dir)
{
	Pio *base = arch_ioport_pin_to_base(pin);

	if (dir == IOPORT_DIR_OUTPUT) {
		base->PIO_OER = arch_ioport_pin_to_mask(pin);
   81f9c:	f04f 0810 	mov.w	r8, #16
   81fa0:	f8c4 8010 	str.w	r8, [r4, #16]
	} else if (dir == IOPORT_DIR_INPUT) {
		base->PIO_ODR = arch_ioport_pin_to_mask(pin);
	}

	base->PIO_OWER = arch_ioport_pin_to_mask(pin);
   81fa4:	f8c4 80a0 	str.w	r8, [r4, #160]	; 0xa0
		bool level)
{
	Pio *base = arch_ioport_pin_to_base(pin);

	if (level) {
		base->PIO_SODR = arch_ioport_pin_to_mask(pin);
   81fa8:	f8c4 8030 	str.w	r8, [r4, #48]	; 0x30
	ioport_set_pin_dir(IN_CH2_LED1_GPIO, IOPORT_DIR_OUTPUT);
	ioport_set_pin_level(IN_CH2_LED1_GPIO, IOPORT_PIN_LEVEL_HIGH);
	pmc_enable_periph_clk(IN_CH2_LED2_PIO_ID);
   81fac:	f04f 000c 	mov.w	r0, #12
   81fb0:	47b0      	blx	r6
		enum ioport_direction dir)
{
	Pio *base = arch_ioport_pin_to_base(pin);

	if (dir == IOPORT_DIR_OUTPUT) {
		base->PIO_OER = arch_ioport_pin_to_mask(pin);
   81fb2:	f44f 5580 	mov.w	r5, #4096	; 0x1000
   81fb6:	f2c4 050e 	movt	r5, #16398	; 0x400e
   81fba:	f04f 0308 	mov.w	r3, #8
   81fbe:	612b      	str	r3, [r5, #16]
	} else if (dir == IOPORT_DIR_INPUT) {
		base->PIO_ODR = arch_ioport_pin_to_mask(pin);
	}

	base->PIO_OWER = arch_ioport_pin_to_mask(pin);
   81fc0:	f8c5 30a0 	str.w	r3, [r5, #160]	; 0xa0
		bool level)
{
	Pio *base = arch_ioport_pin_to_base(pin);

	if (level) {
		base->PIO_SODR = arch_ioport_pin_to_mask(pin);
   81fc4:	632b      	str	r3, [r5, #48]	; 0x30
	ioport_set_pin_dir(IN_CH2_LED2_GPIO, IOPORT_DIR_OUTPUT);
	ioport_set_pin_level(IN_CH2_LED2_GPIO, IOPORT_PIN_LEVEL_HIGH);
	pmc_enable_periph_clk(IN_CH2_LED3_PIO_ID);
   81fc6:	f04f 000d 	mov.w	r0, #13
   81fca:	47b0      	blx	r6
		enum ioport_direction dir)
{
	Pio *base = arch_ioport_pin_to_base(pin);

	if (dir == IOPORT_DIR_OUTPUT) {
		base->PIO_OER = arch_ioport_pin_to_mask(pin);
   81fcc:	f44f 6080 	mov.w	r0, #1024	; 0x400
   81fd0:	6120      	str	r0, [r4, #16]
	} else if (dir == IOPORT_DIR_INPUT) {
		base->PIO_ODR = arch_ioport_pin_to_mask(pin);
	}

	base->PIO_OWER = arch_ioport_pin_to_mask(pin);
   81fd2:	f8c4 00a0 	str.w	r0, [r4, #160]	; 0xa0
		bool level)
{
	Pio *base = arch_ioport_pin_to_base(pin);

	if (level) {
		base->PIO_SODR = arch_ioport_pin_to_mask(pin);
   81fd6:	6320      	str	r0, [r4, #48]	; 0x30
	ioport_set_pin_dir(IN_CH2_LED3_GPIO, IOPORT_DIR_OUTPUT);
	ioport_set_pin_level(IN_CH2_LED3_GPIO, IOPORT_PIN_LEVEL_HIGH);

	pmc_enable_periph_clk(OUT_CH2_LED1_PIO_ID);
   81fd8:	f04f 000c 	mov.w	r0, #12
   81fdc:	47b0      	blx	r6
		enum ioport_direction dir)
{
	Pio *base = arch_ioport_pin_to_base(pin);

	if (dir == IOPORT_DIR_OUTPUT) {
		base->PIO_OER = arch_ioport_pin_to_mask(pin);
   81fde:	f04f 0920 	mov.w	r9, #32
   81fe2:	f8c5 9010 	str.w	r9, [r5, #16]
	} else if (dir == IOPORT_DIR_INPUT) {
		base->PIO_ODR = arch_ioport_pin_to_mask(pin);
	}

	base->PIO_OWER = arch_ioport_pin_to_mask(pin);
   81fe6:	f8c5 90a0 	str.w	r9, [r5, #160]	; 0xa0
		bool level)
{
	Pio *base = arch_ioport_pin_to_base(pin);

	if (level) {
		base->PIO_SODR = arch_ioport_pin_to_mask(pin);
   81fea:	f8c5 9030 	str.w	r9, [r5, #48]	; 0x30
	ioport_set_pin_dir(OUT_CH2_LED1_GPIO, IOPORT_DIR_OUTPUT);
	ioport_set_pin_level(OUT_CH2_LED1_GPIO, IOPORT_PIN_LEVEL_HIGH);
	pmc_enable_periph_clk(OUT_CH2_LED2_PIO_ID);
   81fee:	f04f 000c 	mov.w	r0, #12
   81ff2:	47b0      	blx	r6
		enum ioport_direction dir)
{
	Pio *base = arch_ioport_pin_to_base(pin);

	if (dir == IOPORT_DIR_OUTPUT) {
		base->PIO_OER = arch_ioport_pin_to_mask(pin);
   81ff4:	f04f 0a80 	mov.w	sl, #128	; 0x80
   81ff8:	f8c5 a010 	str.w	sl, [r5, #16]
	} else if (dir == IOPORT_DIR_INPUT) {
		base->PIO_ODR = arch_ioport_pin_to_mask(pin);
	}

	base->PIO_OWER = arch_ioport_pin_to_mask(pin);
   81ffc:	f8c5 a0a0 	str.w	sl, [r5, #160]	; 0xa0
		bool level)
{
	Pio *base = arch_ioport_pin_to_base(pin);

	if (level) {
		base->PIO_SODR = arch_ioport_pin_to_mask(pin);
   82000:	f8c5 a030 	str.w	sl, [r5, #48]	; 0x30
	ioport_set_pin_dir(OUT_CH2_LED2_GPIO, IOPORT_DIR_OUTPUT);
	ioport_set_pin_level(OUT_CH2_LED2_GPIO, IOPORT_PIN_LEVEL_HIGH);
	pmc_enable_periph_clk(OUT_CH2_LED3_PIO_ID);
   82004:	f04f 000c 	mov.w	r0, #12
   82008:	47b0      	blx	r6
		enum ioport_direction dir)
{
	Pio *base = arch_ioport_pin_to_base(pin);

	if (dir == IOPORT_DIR_OUTPUT) {
		base->PIO_OER = arch_ioport_pin_to_mask(pin);
   8200a:	f04f 0140 	mov.w	r1, #64	; 0x40
   8200e:	6129      	str	r1, [r5, #16]
	} else if (dir == IOPORT_DIR_INPUT) {
		base->PIO_ODR = arch_ioport_pin_to_mask(pin);
	}

	base->PIO_OWER = arch_ioport_pin_to_mask(pin);
   82010:	f8c5 10a0 	str.w	r1, [r5, #160]	; 0xa0
		bool level)
{
	Pio *base = arch_ioport_pin_to_base(pin);

	if (level) {
		base->PIO_SODR = arch_ioport_pin_to_mask(pin);
   82014:	6329      	str	r1, [r5, #48]	; 0x30
	ioport_set_pin_dir(OUT_CH2_LED3_GPIO, IOPORT_DIR_OUTPUT);
	ioport_set_pin_level(OUT_CH2_LED3_GPIO, IOPORT_PIN_LEVEL_HIGH);
	
	/* Pulse inputs & d reset output */	
	pmc_enable_periph_clk(CH1_PULSE_PIO_ID);
   82016:	f04f 000d 	mov.w	r0, #13
   8201a:	47b0      	blx	r6
	Pio *base = arch_ioport_pin_to_base(pin);

	if (dir == IOPORT_DIR_OUTPUT) {
		base->PIO_OER = arch_ioport_pin_to_mask(pin);
	} else if (dir == IOPORT_DIR_INPUT) {
		base->PIO_ODR = arch_ioport_pin_to_mask(pin);
   8201c:	f44f 4200 	mov.w	r2, #32768	; 0x8000
   82020:	6162      	str	r2, [r4, #20]
	}

	base->PIO_OWER = arch_ioport_pin_to_mask(pin);
   82022:	f8c4 20a0 	str.w	r2, [r4, #160]	; 0xa0
	ioport_set_pin_dir(CH1_PULSE_GPIO, IOPORT_DIR_INPUT);
	pmc_enable_periph_clk(CH1_PULSE_RES_PIO_ID);
   82026:	f04f 000d 	mov.w	r0, #13
   8202a:	47b0      	blx	r6
		enum ioport_direction dir)
{
	Pio *base = arch_ioport_pin_to_base(pin);

	if (dir == IOPORT_DIR_OUTPUT) {
		base->PIO_OER = arch_ioport_pin_to_mask(pin);
   8202c:	f44f 3780 	mov.w	r7, #65536	; 0x10000
   82030:	6127      	str	r7, [r4, #16]
	} else if (dir == IOPORT_DIR_INPUT) {
		base->PIO_ODR = arch_ioport_pin_to_mask(pin);
	}

	base->PIO_OWER = arch_ioport_pin_to_mask(pin);
   82032:	f8c4 70a0 	str.w	r7, [r4, #160]	; 0xa0
	Pio *base = arch_ioport_pin_to_base(pin);

	if (level) {
		base->PIO_SODR = arch_ioport_pin_to_mask(pin);
	} else {
		base->PIO_CODR = arch_ioport_pin_to_mask(pin);
   82036:	6367      	str	r7, [r4, #52]	; 0x34
	ioport_set_pin_dir(CH1_PULSE_RES_GPIO, IOPORT_DIR_OUTPUT);
	ioport_set_pin_level(CH1_PULSE_RES_GPIO, IOPORT_PIN_LEVEL_LOW);
	
	pmc_enable_periph_clk(CH2_PULSE_PIO_ID);
   82038:	f04f 000c 	mov.w	r0, #12
   8203c:	47b0      	blx	r6
	Pio *base = arch_ioport_pin_to_base(pin);

	if (dir == IOPORT_DIR_OUTPUT) {
		base->PIO_OER = arch_ioport_pin_to_mask(pin);
	} else if (dir == IOPORT_DIR_INPUT) {
		base->PIO_ODR = arch_ioport_pin_to_mask(pin);
   8203e:	f04f 0404 	mov.w	r4, #4
   82042:	616c      	str	r4, [r5, #20]
	}

	base->PIO_OWER = arch_ioport_pin_to_mask(pin);
   82044:	f8c5 40a0 	str.w	r4, [r5, #160]	; 0xa0
	ioport_set_pin_dir(CH2_PULSE_GPIO, IOPORT_DIR_INPUT);
	pmc_enable_periph_clk(CH2_PULSE_RES_PIO_ID);
   82048:	f04f 000c 	mov.w	r0, #12
   8204c:	47b0      	blx	r6
		enum ioport_direction dir)
{
	Pio *base = arch_ioport_pin_to_base(pin);

	if (dir == IOPORT_DIR_OUTPUT) {
		base->PIO_OER = arch_ioport_pin_to_mask(pin);
   8204e:	f8c5 8010 	str.w	r8, [r5, #16]
	} else if (dir == IOPORT_DIR_INPUT) {
		base->PIO_ODR = arch_ioport_pin_to_mask(pin);
	}

	base->PIO_OWER = arch_ioport_pin_to_mask(pin);
   82052:	f8c5 80a0 	str.w	r8, [r5, #160]	; 0xa0
	Pio *base = arch_ioport_pin_to_base(pin);

	if (level) {
		base->PIO_SODR = arch_ioport_pin_to_mask(pin);
	} else {
		base->PIO_CODR = arch_ioport_pin_to_mask(pin);
   82056:	f8c5 8034 	str.w	r8, [r5, #52]	; 0x34
	ioport_set_pin_dir(CH2_PULSE_RES_GPIO, IOPORT_DIR_OUTPUT);
	ioport_set_pin_level(CH2_PULSE_RES_GPIO, IOPORT_PIN_LEVEL_LOW);
	
	/* Delays enable */
	pmc_enable_periph_clk(CH1_DELAY_EN_PIO_ID);
   8205a:	f04f 000c 	mov.w	r0, #12
   8205e:	47b0      	blx	r6
		enum ioport_direction dir)
{
	Pio *base = arch_ioport_pin_to_base(pin);

	if (dir == IOPORT_DIR_OUTPUT) {
		base->PIO_OER = arch_ioport_pin_to_mask(pin);
   82060:	f04f 0701 	mov.w	r7, #1
   82064:	612f      	str	r7, [r5, #16]
	} else if (dir == IOPORT_DIR_INPUT) {
		base->PIO_ODR = arch_ioport_pin_to_mask(pin);
	}

	base->PIO_OWER = arch_ioport_pin_to_mask(pin);
   82066:	f8c5 70a0 	str.w	r7, [r5, #160]	; 0xa0
		bool level)
{
	Pio *base = arch_ioport_pin_to_base(pin);

	if (level) {
		base->PIO_SODR = arch_ioport_pin_to_mask(pin);
   8206a:	632f      	str	r7, [r5, #48]	; 0x30
	ioport_set_pin_dir(CH1_DELAY_EN_GPIO, IOPORT_DIR_OUTPUT);
	ioport_set_pin_level(CH1_DELAY_EN_GPIO, IOPORT_PIN_LEVEL_HIGH);
	pmc_enable_periph_clk(CH2_DELAY_EN_PIO_ID);
   8206c:	f04f 000b 	mov.w	r0, #11
   82070:	47b0      	blx	r6
		enum ioport_direction dir)
{
	Pio *base = arch_ioport_pin_to_base(pin);

	if (dir == IOPORT_DIR_OUTPUT) {
		base->PIO_OER = arch_ioport_pin_to_mask(pin);
   82072:	f44f 6560 	mov.w	r5, #3584	; 0xe00
   82076:	f2c4 050e 	movt	r5, #16398	; 0x400e
   8207a:	f04f 5300 	mov.w	r3, #536870912	; 0x20000000
   8207e:	612b      	str	r3, [r5, #16]
	} else if (dir == IOPORT_DIR_INPUT) {
		base->PIO_ODR = arch_ioport_pin_to_mask(pin);
	}

	base->PIO_OWER = arch_ioport_pin_to_mask(pin);
   82080:	f8c5 30a0 	str.w	r3, [r5, #160]	; 0xa0
		bool level)
{
	Pio *base = arch_ioport_pin_to_base(pin);

	if (level) {
		base->PIO_SODR = arch_ioport_pin_to_mask(pin);
   82084:	632b      	str	r3, [r5, #48]	; 0x30
	uint32_t ul_div;
	uint32_t ul_tcclks;	
	/* Get system clock. */
	uint32_t ul_sysclk = sysclk_get_cpu_hz();
	/* Configure PMC. */
	pmc_enable_periph_clk(ID_TC1);
   82086:	f04f 001c 	mov.w	r0, #28
   8208a:	47b0      	blx	r6
	/* Configure TC for a TC_FREQ frequency and trigger on RC compare. */
	tc_find_mck_divisor(20, ul_sysclk, &ul_div, &ul_tcclks, ul_sysclk);
   8208c:	f44f 453d 	mov.w	r5, #48384	; 0xbd00
   82090:	f2c0 5501 	movt	r5, #1281	; 0x501
   82094:	9500      	str	r5, [sp, #0]
   82096:	f04f 0014 	mov.w	r0, #20
   8209a:	4629      	mov	r1, r5
   8209c:	aa03      	add	r2, sp, #12
   8209e:	ab02      	add	r3, sp, #8
   820a0:	f641 04ed 	movw	r4, #6381	; 0x18ed
   820a4:	f2c0 0408 	movt	r4, #8
   820a8:	47a0      	blx	r4
	tc_init(TC0, 1, ul_tcclks | TC_CMR_CPCTRG);
   820aa:	f04f 0400 	mov.w	r4, #0
   820ae:	f2c4 0408 	movt	r4, #16392	; 0x4008
   820b2:	4620      	mov	r0, r4
   820b4:	4639      	mov	r1, r7
   820b6:	9a02      	ldr	r2, [sp, #8]
   820b8:	f442 4280 	orr.w	r2, r2, #16384	; 0x4000
   820bc:	f641 03ad 	movw	r3, #6317	; 0x18ad
   820c0:	f2c0 0308 	movt	r3, #8
   820c4:	4798      	blx	r3
	tc_write_rc(TC0, 1, (ul_sysclk / ul_div) / 20);
   820c6:	9803      	ldr	r0, [sp, #12]
   820c8:	fbb5 f1f0 	udiv	r1, r5, r0
   820cc:	f64c 45cd 	movw	r5, #52429	; 0xcccd
   820d0:	f6cc 45cc 	movt	r5, #52428	; 0xcccc
   820d4:	fba5 1201 	umull	r1, r2, r5, r1
   820d8:	4620      	mov	r0, r4
   820da:	4639      	mov	r1, r7
   820dc:	ea4f 1212 	mov.w	r2, r2, lsr #4
   820e0:	f641 03d5 	movw	r3, #6357	; 0x18d5
   820e4:	f2c0 0308 	movt	r3, #8
   820e8:	4798      	blx	r3
	/* Configure and enable interrupt on RC compare. */
	tc_start(TC0, 1);
   820ea:	4620      	mov	r0, r4
   820ec:	4639      	mov	r1, r7
   820ee:	f641 05c9 	movw	r5, #6345	; 0x18c9
   820f2:	f2c0 0508 	movt	r5, #8
   820f6:	47a8      	blx	r5

    \param [in]      IRQn  External interrupt number. Value cannot be negative.
 */
__STATIC_INLINE void NVIC_DisableIRQ(IRQn_Type IRQn)
{
  NVIC->ICER[((uint32_t)(IRQn) >> 5)] = (1 << ((uint32_t)(IRQn) & 0x1F)); /* disable interrupt */
   820f8:	f44f 4061 	mov.w	r0, #57600	; 0xe100
   820fc:	f2ce 0000 	movt	r0, #57344	; 0xe000
   82100:	f04f 5180 	mov.w	r1, #268435456	; 0x10000000
   82104:	f8c0 1080 	str.w	r1, [r0, #128]	; 0x80

    \param [in]      IRQn  External interrupt number. Value cannot be negative.
 */
__STATIC_INLINE void NVIC_ClearPendingIRQ(IRQn_Type IRQn)
{
  NVIC->ICPR[((uint32_t)(IRQn) >> 5)] = (1 << ((uint32_t)(IRQn) & 0x1F)); /* Clear pending interrupt */
   82108:	f8c0 1180 	str.w	r1, [r0, #384]	; 0x180

    \param [in]      IRQn  External interrupt number. Value cannot be negative.
 */
__STATIC_INLINE void NVIC_EnableIRQ(IRQn_Type IRQn)
{
  NVIC->ISER[((uint32_t)(IRQn) >> 5)] = (1 << ((uint32_t)(IRQn) & 0x1F)); /* enable interrupt */
   8210c:	6001      	str	r1, [r0, #0]
	NVIC_DisableIRQ(TC1_IRQn);
	NVIC_ClearPendingIRQ(TC1_IRQn);
	//NVIC_SetPriority(TC1_IRQn, 0);
	NVIC_EnableIRQ((IRQn_Type)ID_TC1);
	tc_enable_interrupt(TC0, 1, TC_IER_CPCS);
   8210e:	4620      	mov	r0, r4
   82110:	4639      	mov	r1, r7
   82112:	4642      	mov	r2, r8
   82114:	f641 04dd 	movw	r4, #6365	; 0x18dd
   82118:	f2c0 0408 	movt	r4, #8
   8211c:	47a0      	blx	r4
	
	/* SPI interface */
	gpio_configure_pin(SPI0_MISO_GPIO, SPI0_MISO_FLAGS);
   8211e:	f04f 0019 	mov.w	r0, #25
   82122:	f04f 6100 	mov.w	r1, #134217728	; 0x8000000
   82126:	f247 05c5 	movw	r5, #28869	; 0x70c5
   8212a:	f2c0 0508 	movt	r5, #8
   8212e:	47a8      	blx	r5
	gpio_configure_pin(SPI0_MOSI_GPIO, SPI0_MOSI_FLAGS);
   82130:	f04f 001a 	mov.w	r0, #26
   82134:	f04f 6100 	mov.w	r1, #134217728	; 0x8000000
   82138:	47a8      	blx	r5
	gpio_configure_pin(SPI0_SPCK_GPIO, SPI0_SPCK_FLAGS);
   8213a:	f04f 001b 	mov.w	r0, #27
   8213e:	f04f 6100 	mov.w	r1, #134217728	; 0x8000000
   82142:	47a8      	blx	r5
	gpio_configure_pin(SPI0_NPCS0_GPIO, SPI0_NPCS0_FLAGS);
   82144:	f04f 001c 	mov.w	r0, #28
   82148:	f04f 6100 	mov.w	r1, #134217728	; 0x8000000
   8214c:	47a8      	blx	r5
	
	/* Configure an SPI peripheral. */
	spi_enable_clock(SPI0);
   8214e:	f44f 4400 	mov.w	r4, #32768	; 0x8000
   82152:	f2c4 0400 	movt	r4, #16384	; 0x4000
   82156:	4620      	mov	r0, r4
   82158:	f241 720d 	movw	r2, #5901	; 0x170d
   8215c:	f2c0 0208 	movt	r2, #8
   82160:	4790      	blx	r2
 *
 * \param p_spi Pointer to an SPI instance.
 */
static inline void spi_disable(Spi *p_spi)
{
	p_spi->SPI_CR = SPI_CR_SPIDIS;
   82162:	f04f 0302 	mov.w	r3, #2
   82166:	6023      	str	r3, [r4, #0]
 *
 * \param p_spi Pointer to an SPI instance.
 */
static inline void spi_reset(Spi *p_spi)
{
	p_spi->SPI_CR = SPI_CR_SWRST;
   82168:	f8c4 a000 	str.w	sl, [r4]
 *
 * \param p_spi Pointer to an SPI instance.
 */
static inline void spi_set_lastxfer(Spi *p_spi)
{
	p_spi->SPI_CR = SPI_CR_LASTXFER;
   8216c:	f04f 7080 	mov.w	r0, #16777216	; 0x1000000
   82170:	6020      	str	r0, [r4, #0]
 *
 * \param p_spi Pointer to an SPI instance.
 */
static inline void spi_set_master_mode(Spi *p_spi)
{
	p_spi->SPI_MR |= SPI_MR_MSTR;
   82172:	6861      	ldr	r1, [r4, #4]
   82174:	4339      	orrs	r1, r7
   82176:	6061      	str	r1, [r4, #4]
 *
 * \param p_spi Pointer to an SPI instance.
 */
static inline void spi_disable_mode_fault_detect(Spi *p_spi)
{
	p_spi->SPI_MR |= SPI_MR_MODFDIS;
   82178:	6865      	ldr	r5, [r4, #4]
   8217a:	ea45 0208 	orr.w	r2, r5, r8
   8217e:	6062      	str	r2, [r4, #4]
	spi_disable(SPI0);
	spi_reset(SPI0);
	spi_set_lastxfer(SPI0);
	spi_set_master_mode(SPI0);
	spi_disable_mode_fault_detect(SPI0);
	spi_set_peripheral_chip_select_value(SPI0, SPI_CHIP_SEL);
   82180:	4620      	mov	r0, r4
   82182:	f04f 0100 	mov.w	r1, #0
   82186:	f241 732d 	movw	r3, #5933	; 0x172d
   8218a:	f2c0 0308 	movt	r3, #8
   8218e:	4798      	blx	r3
	spi_set_clock_polarity(SPI0, SPI_CHIP_SEL, SPI_CLK_POLARITY);
   82190:	4620      	mov	r0, r4
   82192:	f04f 0100 	mov.w	r1, #0
   82196:	460a      	mov	r2, r1
   82198:	f241 75a1 	movw	r5, #6049	; 0x17a1
   8219c:	f2c0 0508 	movt	r5, #8
   821a0:	47a8      	blx	r5
	spi_set_clock_phase(SPI0, SPI_CHIP_SEL, SPI_CLK_PHASE);
   821a2:	4620      	mov	r0, r4
   821a4:	f04f 0100 	mov.w	r1, #0
   821a8:	463a      	mov	r2, r7
   821aa:	f241 73c9 	movw	r3, #6089	; 0x17c9
   821ae:	f2c0 0308 	movt	r3, #8
   821b2:	4798      	blx	r3
	spi_set_bits_per_transfer(SPI0, SPI_CHIP_SEL, SPI_CSR_BITS_10_BIT);
   821b4:	4620      	mov	r0, r4
   821b6:	f04f 0100 	mov.w	r1, #0
   821ba:	464a      	mov	r2, r9
   821bc:	f641 0549 	movw	r5, #6217	; 0x1849
   821c0:	f2c0 0508 	movt	r5, #8
   821c4:	47a8      	blx	r5
	spi_configure_cs_behavior(SPI0, SPI_CHIP_SEL, SPI_CS_RISE_NO_TX);
   821c6:	4620      	mov	r0, r4
   821c8:	f04f 0100 	mov.w	r1, #0
   821cc:	460a      	mov	r2, r1
   821ce:	f241 73f1 	movw	r3, #6129	; 0x17f1
   821d2:	f2c0 0308 	movt	r3, #8
   821d6:	4798      	blx	r3
	spi_set_baudrate_div(SPI0, SPI_CHIP_SEL, (sysclk_get_cpu_hz() / gs_ul_spi_clock));
   821d8:	4620      	mov	r0, r4
   821da:	f04f 0100 	mov.w	r1, #0
   821de:	f04f 0248 	mov.w	r2, #72	; 0x48
   821e2:	f641 0565 	movw	r5, #6245	; 0x1865
   821e6:	f2c0 0508 	movt	r5, #8
   821ea:	47a8      	blx	r5
	spi_set_transfer_delay(SPI0, SPI_CHIP_SEL, SPI_DLYBS, SPI_DLYBCT);
   821ec:	4620      	mov	r0, r4
   821ee:	f04f 0100 	mov.w	r1, #0
   821f2:	460a      	mov	r2, r1
   821f4:	460b      	mov	r3, r1
   821f6:	f641 0585 	movw	r5, #6277	; 0x1885
   821fa:	f2c0 0508 	movt	r5, #8
   821fe:	47a8      	blx	r5
 *
 * \param p_spi Pointer to an SPI instance.
 */
static inline void spi_enable(Spi *p_spi)
{
	p_spi->SPI_CR = SPI_CR_SPIEN;
   82200:	6027      	str	r7, [r4, #0]
	spi_enable(SPI0);
}
   82202:	b004      	add	sp, #16
   82204:	e8bd 87f0 	ldmia.w	sp!, {r4, r5, r6, r7, r8, r9, sl, pc}

00082208 <is_channel1_delay_enabled>:

uint16_t is_channel1_delay_enabled(void)
{
	return is_channel1_delay_en;
}
   82208:	f640 3310 	movw	r3, #2832	; 0xb10
   8220c:	f2c2 0307 	movt	r3, #8199	; 0x2007
   82210:	8818      	ldrh	r0, [r3, #0]
   82212:	4770      	bx	lr

00082214 <is_channel2_delay_enabled>:

uint16_t is_channel2_delay_enabled(void)
{
	return is_channel2_delay_en;
}
   82214:	f640 3314 	movw	r3, #2836	; 0xb14
   82218:	f2c2 0307 	movt	r3, #8199	; 0x2007
   8221c:	8818      	ldrh	r0, [r3, #0]
   8221e:	4770      	bx	lr

00082220 <enable_disable_ch1_delay>:

void enable_disable_ch1_delay(uint16_t status)
{
	if(status == TRUE)
   82220:	2801      	cmp	r0, #1
   82222:	d10c      	bne.n	8223e <enable_disable_ch1_delay+0x1e>
	{
		is_channel1_delay_en = TRUE;
   82224:	f04f 0201 	mov.w	r2, #1
   82228:	f640 3310 	movw	r3, #2832	; 0xb10
   8222c:	f2c2 0307 	movt	r3, #8199	; 0x2007
   82230:	801a      	strh	r2, [r3, #0]
	} else {
		base->PIO_CODR = arch_ioport_pin_to_mask(pin);
   82232:	f44f 5080 	mov.w	r0, #4096	; 0x1000
   82236:	f2c4 000e 	movt	r0, #16398	; 0x400e
   8223a:	6342      	str	r2, [r0, #52]	; 0x34
   8223c:	4770      	bx	lr
		ioport_set_pin_level(CH1_DELAY_EN_GPIO, IOPORT_PIN_LEVEL_LOW);
	}
	else
	{
		is_channel1_delay_en = FALSE;
   8223e:	f640 3310 	movw	r3, #2832	; 0xb10
   82242:	f2c2 0307 	movt	r3, #8199	; 0x2007
   82246:	f04f 0200 	mov.w	r2, #0
   8224a:	801a      	strh	r2, [r3, #0]
		bool level)
{
	Pio *base = arch_ioport_pin_to_base(pin);

	if (level) {
		base->PIO_SODR = arch_ioport_pin_to_mask(pin);
   8224c:	f44f 5080 	mov.w	r0, #4096	; 0x1000
   82250:	f2c4 000e 	movt	r0, #16398	; 0x400e
   82254:	f04f 0101 	mov.w	r1, #1
   82258:	6301      	str	r1, [r0, #48]	; 0x30
   8225a:	4770      	bx	lr

0008225c <enable_disable_ch2_delay>:
	}
}

void enable_disable_ch2_delay(uint16_t status)
{
	if(status == TRUE)
   8225c:	2801      	cmp	r0, #1
   8225e:	d10e      	bne.n	8227e <enable_disable_ch2_delay+0x22>
	{
		is_channel2_delay_en = TRUE;
   82260:	f640 3314 	movw	r3, #2836	; 0xb14
   82264:	f2c2 0307 	movt	r3, #8199	; 0x2007
   82268:	f04f 0201 	mov.w	r2, #1
   8226c:	801a      	strh	r2, [r3, #0]
	} else {
		base->PIO_CODR = arch_ioport_pin_to_mask(pin);
   8226e:	f44f 6060 	mov.w	r0, #3584	; 0xe00
   82272:	f2c4 000e 	movt	r0, #16398	; 0x400e
   82276:	f04f 5100 	mov.w	r1, #536870912	; 0x20000000
   8227a:	6341      	str	r1, [r0, #52]	; 0x34
   8227c:	4770      	bx	lr
		ioport_set_pin_level(CH2_DELAY_EN_GPIO, IOPORT_PIN_LEVEL_LOW);
	}
	else
	{
		is_channel2_delay_en = FALSE;
   8227e:	f640 3314 	movw	r3, #2836	; 0xb14
   82282:	f2c2 0307 	movt	r3, #8199	; 0x2007
   82286:	f04f 0200 	mov.w	r2, #0
   8228a:	801a      	strh	r2, [r3, #0]
		bool level)
{
	Pio *base = arch_ioport_pin_to_base(pin);

	if (level) {
		base->PIO_SODR = arch_ioport_pin_to_mask(pin);
   8228c:	f44f 6060 	mov.w	r0, #3584	; 0xe00
   82290:	f2c4 000e 	movt	r0, #16398	; 0x400e
   82294:	f04f 5100 	mov.w	r1, #536870912	; 0x20000000
   82298:	6301      	str	r1, [r0, #48]	; 0x30
   8229a:	4770      	bx	lr

0008229c <inverse_10_bits_order>:

uint16_t inverse_10_bits_order(uint16_t data)
{
	uint32_t x = (uint32_t)data;
	
	x = (x & 0x55555555) <<  1 | (x & 0xAAAAAAAA) >>  1;
   8229c:	f000 3155 	and.w	r1, r0, #1431655765	; 0x55555555
   822a0:	f000 30aa 	and.w	r0, r0, #2863311530	; 0xaaaaaaaa
   822a4:	ea4f 0250 	mov.w	r2, r0, lsr #1
   822a8:	ea42 0341 	orr.w	r3, r2, r1, lsl #1
	x = (x & 0x33333333) <<  2 | (x & 0xCCCCCCCC) >>  2;
   822ac:	f003 3033 	and.w	r0, r3, #858993459	; 0x33333333
   822b0:	f003 31cc 	and.w	r1, r3, #3435973836	; 0xcccccccc
   822b4:	ea4f 0291 	mov.w	r2, r1, lsr #2
   822b8:	ea42 0080 	orr.w	r0, r2, r0, lsl #2
	x = (x & 0x0F0F0F0F) <<  4 | (x & 0xF0F0F0F0) >>  4;
   822bc:	f000 330f 	and.w	r3, r0, #252645135	; 0xf0f0f0f
   822c0:	f000 31f0 	and.w	r1, r0, #4042322160	; 0xf0f0f0f0
   822c4:	ea4f 1211 	mov.w	r2, r1, lsr #4
   822c8:	ea42 1303 	orr.w	r3, r2, r3, lsl #4
	x = (x & 0x00FF00FF) <<  8 | (x & 0xFF00FF00) >>  8;
   822cc:	f003 10ff 	and.w	r0, r3, #16711935	; 0xff00ff
   822d0:	ea4f 2113 	mov.w	r1, r3, lsr #8
   822d4:	ea41 2200 	orr.w	r2, r1, r0, lsl #8
	x = (x & 0x0000FFFF) << 16 | (x & 0xFFFF0000) >> 16;
   822d8:	ea4f 4332 	mov.w	r3, r2, ror #16
	
	x = (x >> 22);
	return (uint16_t)x;
}
   822dc:	ea4f 5093 	mov.w	r0, r3, lsr #22
   822e0:	4770      	bx	lr
   822e2:	bf00      	nop

000822e4 <send_updated_delays>:

void send_updated_delays(void)
{
   822e4:	b510      	push	{r4, lr}
	spi_write(SPI0, current_channel1_delay, 0, 0);
   822e6:	f44f 4000 	mov.w	r0, #32768	; 0x8000
   822ea:	f2c4 0000 	movt	r0, #16384	; 0x4000
   822ee:	f640 3312 	movw	r3, #2834	; 0xb12
   822f2:	f2c2 0307 	movt	r3, #8199	; 0x2007
   822f6:	8819      	ldrh	r1, [r3, #0]
   822f8:	f04f 0200 	mov.w	r2, #0
   822fc:	4613      	mov	r3, r2
   822fe:	f241 7445 	movw	r4, #5957	; 0x1745
   82302:	f2c0 0408 	movt	r4, #8
   82306:	47a0      	blx	r4
 *
 * \return SPI status register value.
 */
static inline uint32_t spi_read_status(Spi *p_spi)
{
	return p_spi->SPI_SR;
   82308:	f44f 4200 	mov.w	r2, #32768	; 0x8000
   8230c:	f2c4 0200 	movt	r2, #16384	; 0x4000
   82310:	6910      	ldr	r0, [r2, #16]
	/* Wait transfer done. */
	while((spi_read_status(SPI0) & SPI_SR_TDRE) == 0);;
   82312:	f010 0f02 	tst.w	r0, #2
   82316:	d0fb      	beq.n	82310 <send_updated_delays+0x2c>
	spi_write(SPI0, current_channel2_delay, 0, 0);
   82318:	f44f 4000 	mov.w	r0, #32768	; 0x8000
   8231c:	f2c4 0000 	movt	r0, #16384	; 0x4000
   82320:	f640 3116 	movw	r1, #2838	; 0xb16
   82324:	f2c2 0107 	movt	r1, #8199	; 0x2007
   82328:	8809      	ldrh	r1, [r1, #0]
   8232a:	f04f 0200 	mov.w	r2, #0
   8232e:	4613      	mov	r3, r2
   82330:	f241 7445 	movw	r4, #5957	; 0x1745
   82334:	f2c0 0408 	movt	r4, #8
   82338:	47a0      	blx	r4
   8233a:	f44f 4200 	mov.w	r2, #32768	; 0x8000
   8233e:	f2c4 0200 	movt	r2, #16384	; 0x4000
   82342:	6913      	ldr	r3, [r2, #16]
	/* Wait transfer done. */
	while((spi_read_status(SPI0) & SPI_SR_TDRE) == 0);;	
   82344:	f013 0f02 	tst.w	r3, #2
   82348:	d0fb      	beq.n	82342 <send_updated_delays+0x5e>
}
   8234a:	bd10      	pop	{r4, pc}

0008234c <setup_channel1_delay>:

void setup_channel1_delay(uint16_t delay)
{
   8234c:	b508      	push	{r3, lr}
	delay = inverse_10_bits_order(delay);
   8234e:	f242 239d 	movw	r3, #8861	; 0x229d
   82352:	f2c0 0308 	movt	r3, #8
   82356:	4798      	blx	r3
	current_channel1_delay = delay;
   82358:	f640 3112 	movw	r1, #2834	; 0xb12
   8235c:	f2c2 0107 	movt	r1, #8199	; 0x2007
   82360:	8008      	strh	r0, [r1, #0]
	send_updated_delays();
   82362:	f242 20e5 	movw	r0, #8933	; 0x22e5
   82366:	f2c0 0008 	movt	r0, #8
   8236a:	4780      	blx	r0
   8236c:	bd08      	pop	{r3, pc}
   8236e:	bf00      	nop

00082370 <setup_channel2_delay>:
}

void setup_channel2_delay(uint16_t delay)
{
   82370:	b508      	push	{r3, lr}
	delay = inverse_10_bits_order(delay);
   82372:	f242 239d 	movw	r3, #8861	; 0x229d
   82376:	f2c0 0308 	movt	r3, #8
   8237a:	4798      	blx	r3
	current_channel2_delay = delay;
   8237c:	f640 3116 	movw	r1, #2838	; 0xb16
   82380:	f2c2 0107 	movt	r1, #8199	; 0x2007
   82384:	8008      	strh	r0, [r1, #0]
	send_updated_delays();
   82386:	f242 20e5 	movw	r0, #8933	; 0x22e5
   8238a:	f2c0 0008 	movt	r0, #8
   8238e:	4780      	blx	r0
   82390:	bd08      	pop	{r3, pc}
   82392:	bf00      	nop

00082394 <get_channel1_delay>:
}

uint16_t get_channel1_delay(void)
{
   82394:	b508      	push	{r3, lr}
	return (inverse_10_bits_order(current_channel1_delay) & 0x03FF);
   82396:	f640 3312 	movw	r3, #2834	; 0xb12
   8239a:	f2c2 0307 	movt	r3, #8199	; 0x2007
   8239e:	8818      	ldrh	r0, [r3, #0]
   823a0:	f242 219d 	movw	r1, #8861	; 0x229d
   823a4:	f2c0 0108 	movt	r1, #8
   823a8:	4788      	blx	r1
}
   823aa:	ea4f 5080 	mov.w	r0, r0, lsl #22
   823ae:	ea4f 5090 	mov.w	r0, r0, lsr #22
   823b2:	bd08      	pop	{r3, pc}

000823b4 <get_channel2_delay>:

uint16_t get_channel2_delay(void)
{
   823b4:	b508      	push	{r3, lr}
	return (inverse_10_bits_order(current_channel2_delay) & 0x03FF);
   823b6:	f640 3316 	movw	r3, #2838	; 0xb16
   823ba:	f2c2 0307 	movt	r3, #8199	; 0x2007
   823be:	8818      	ldrh	r0, [r3, #0]
   823c0:	f242 219d 	movw	r1, #8861	; 0x229d
   823c4:	f2c0 0108 	movt	r1, #8
   823c8:	4788      	blx	r1
}
   823ca:	ea4f 5080 	mov.w	r0, r0, lsl #22
   823ce:	ea4f 5090 	mov.w	r0, r0, lsr #22
   823d2:	bd08      	pop	{r3, pc}

000823d4 <init_module_peripherals_ap>:

// Here should be all the initialization functions for the module after 12v power
void init_module_peripherals_ap(void)
{
   823d4:	4770      	bx	lr
   823d6:	bf00      	nop

000823d8 <deinit_module_peripherals>:
	
}

// Here should be all the deinitialization functions for the module before 12v power removal
void deinit_module_peripherals(void)
{
   823d8:	4770      	bx	lr
   823da:	bf00      	nop

000823dc <init_i2c>:
twi_options_t i2c_options;
twi_packet_t i2c_packet;


void init_i2c(void)
{	
   823dc:	b538      	push	{r3, r4, r5, lr}
	i2c_options.master_clk = sysclk_get_cpu_hz();
   823de:	f241 644c 	movw	r4, #5708	; 0x164c
   823e2:	f2c2 0407 	movt	r4, #8199	; 0x2007
   823e6:	f44f 433d 	mov.w	r3, #48384	; 0xbd00
   823ea:	f2c0 5301 	movt	r3, #1281	; 0x501
   823ee:	6023      	str	r3, [r4, #0]
	i2c_options.speed = 400000;
   823f0:	f44f 50d4 	mov.w	r0, #6784	; 0x1a80
   823f4:	f2c0 0006 	movt	r0, #6
   823f8:	6060      	str	r0, [r4, #4]
	i2c_options.chip = EEPROM_ADDR;
   823fa:	f04f 0150 	mov.w	r1, #80	; 0x50
   823fe:	7221      	strb	r1, [r4, #8]
	i2c_options.smbus = 0;
   82400:	f04f 0200 	mov.w	r2, #0
   82404:	7262      	strb	r2, [r4, #9]
	twi_enable_master_mode(TWI0);
   82406:	f44f 4540 	mov.w	r5, #49152	; 0xc000
   8240a:	f2c4 0508 	movt	r5, #16392	; 0x4008
   8240e:	4628      	mov	r0, r5
   82410:	f641 13d5 	movw	r3, #6613	; 0x19d5
   82414:	f2c0 0308 	movt	r3, #8
   82418:	4798      	blx	r3
	twi_master_init(TWI0, &i2c_options);	
   8241a:	4628      	mov	r0, r5
   8241c:	4621      	mov	r1, r4
   8241e:	f641 2295 	movw	r2, #6805	; 0x1a95
   82422:	f2c0 0208 	movt	r2, #8
   82426:	4790      	blx	r2
   82428:	bd38      	pop	{r3, r4, r5, pc}
   8242a:	bf00      	nop

0008242c <init_pwm>:
	while(twi_probe(TWI0, EEPROM_ADDR) != TWI_SUCCESS);
	return (RET_TYPE)twi_master_read(TWI0, &i2c_packet);
}

void init_pwm(void)
{
   8242c:	e92d 4ff0 	stmdb	sp!, {r4, r5, r6, r7, r8, r9, sl, fp, lr}
   82430:	b085      	sub	sp, #20
	/* Enable PWM peripheral clock */
	pmc_enable_periph_clk(ID_PWM);
   82432:	f04f 0024 	mov.w	r0, #36	; 0x24
   82436:	f247 33e9 	movw	r3, #29673	; 0x73e9
   8243a:	f2c0 0308 	movt	r3, #8
   8243e:	4798      	blx	r3

	/* Disable PWM channels for LEDs */
	pwm_channel_disable(PWM, PIN_LED1_CHANNEL);
   82440:	f44f 4480 	mov.w	r4, #16384	; 0x4000
   82444:	f2c4 0409 	movt	r4, #16393	; 0x4009
   82448:	4620      	mov	r0, r4
   8244a:	f04f 0101 	mov.w	r1, #1
   8244e:	f241 65e9 	movw	r5, #5865	; 0x16e9
   82452:	f2c0 0508 	movt	r5, #8
   82456:	47a8      	blx	r5
	pwm_channel_disable(PWM, PIN_LED2_CHANNEL);
   82458:	4620      	mov	r0, r4
   8245a:	f04f 0103 	mov.w	r1, #3
   8245e:	47a8      	blx	r5
	pwm_channel_disable(PWM, PIN_LED3_CHANNEL);
   82460:	4620      	mov	r0, r4
   82462:	f04f 0102 	mov.w	r1, #2
   82466:	47a8      	blx	r5

	/* Set PWM clock A as LED_PWM_FREQUENCY*PERIOD_VALUE */
	pwm_clock_t clock_setting = {
   82468:	f44f 207a 	mov.w	r0, #1024000	; 0xfa000
   8246c:	9001      	str	r0, [sp, #4]
   8246e:	f44f 413d 	mov.w	r1, #48384	; 0xbd00
   82472:	f2c0 5101 	movt	r1, #1281	; 0x501
   82476:	9102      	str	r1, [sp, #8]
   82478:	9103      	str	r1, [sp, #12]
		.ul_clka = LED_PWM_FREQUENCY * LED_PWM_PERIOD_VALUE,
		.ul_clkb = sysclk_get_cpu_hz(),
		.ul_mck = sysclk_get_cpu_hz()
	};
	pwm_init(PWM, &clock_setting);
   8247a:	4620      	mov	r0, r4
   8247c:	a901      	add	r1, sp, #4
   8247e:	f241 5241 	movw	r2, #5441	; 0x1541
   82482:	f2c0 0208 	movt	r2, #8
   82486:	4790      	blx	r2

	/* Initialize PWM channel for LED1 */
	/* Period is left-aligned */
	g_pwm_channel_led1.alignment = PWM_ALIGN_LEFT;
   82488:	f241 616c 	movw	r1, #5740	; 0x166c
   8248c:	f2c2 0107 	movt	r1, #8199	; 0x2007
   82490:	f04f 0500 	mov.w	r5, #0
   82494:	810d      	strh	r5, [r1, #8]
	/* Output waveform starts at a low level */
	g_pwm_channel_led1.polarity = PWM_HIGH;
   82496:	f04f 0601 	mov.w	r6, #1
   8249a:	728e      	strb	r6, [r1, #10]
	/* Use PWM clock A as source clock */
	g_pwm_channel_led1.ul_prescaler = PWM_CMR_CPRE_CLKA;
   8249c:	f04f 0b0b 	mov.w	fp, #11
   824a0:	f8c1 b004 	str.w	fp, [r1, #4]
	/* Period value of output waveform */
	g_pwm_channel_led1.ul_period = LED_PWM_PERIOD_VALUE;
   824a4:	f44f 6a80 	mov.w	sl, #1024	; 0x400
   824a8:	f8c1 a010 	str.w	sl, [r1, #16]
	/* Duty cycle value of output waveform */
	g_pwm_channel_led1.ul_duty = LED_INIT_DUTY_VALUE;
   824ac:	60cd      	str	r5, [r1, #12]
	g_pwm_channel_led1.channel = PIN_LED1_CHANNEL;
   824ae:	600e      	str	r6, [r1, #0]
	pwm_channel_init(PWM, &g_pwm_channel_led1);
   824b0:	4620      	mov	r0, r4
   824b2:	f241 598d 	movw	r9, #5517	; 0x158d
   824b6:	f2c0 0908 	movt	r9, #8
   824ba:	47c8      	blx	r9

	/* Enable channel counter event interrupt */
	pwm_channel_disable_interrupt(PWM, PIN_LED1_CHANNEL, 0);
   824bc:	4620      	mov	r0, r4
   824be:	4631      	mov	r1, r6
   824c0:	462a      	mov	r2, r5
   824c2:	f241 68f5 	movw	r8, #5877	; 0x16f5
   824c6:	f2c0 0808 	movt	r8, #8
   824ca:	47c0      	blx	r8
	//pwm_channel_enable_interrupt(PWM, PIN_LED1_CHANNEL, 0);

	/* Initialize PWM channel for LED2 */
	/* Period is center-aligned */
	g_pwm_channel_led2.alignment = PWM_ALIGN_LEFT;
   824cc:	f241 61bc 	movw	r1, #5820	; 0x16bc
   824d0:	f2c2 0107 	movt	r1, #8199	; 0x2007
   824d4:	810d      	strh	r5, [r1, #8]
	/* Output waveform starts at a high level */
	g_pwm_channel_led2.polarity = PWM_HIGH;
   824d6:	728e      	strb	r6, [r1, #10]
	/* Use PWM clock A as source clock */
	g_pwm_channel_led2.ul_prescaler = PWM_CMR_CPRE_CLKA;
   824d8:	f8c1 b004 	str.w	fp, [r1, #4]
	/* Period value of output waveform */
	g_pwm_channel_led2.ul_period = LED_PWM_PERIOD_VALUE;
   824dc:	f8c1 a010 	str.w	sl, [r1, #16]
	/* Duty cycle value of output waveform */
	g_pwm_channel_led2.ul_duty = LED_INIT_DUTY_VALUE;
   824e0:	60cd      	str	r5, [r1, #12]
	g_pwm_channel_led2.channel = PIN_LED2_CHANNEL;
   824e2:	f04f 0703 	mov.w	r7, #3
   824e6:	600f      	str	r7, [r1, #0]
	pwm_channel_init(PWM, &g_pwm_channel_led2);
   824e8:	4620      	mov	r0, r4
   824ea:	47c8      	blx	r9

	/* Disable channel counter event interrupt */
	pwm_channel_disable_interrupt(PWM, PIN_LED2_CHANNEL, 0);
   824ec:	4620      	mov	r0, r4
   824ee:	4639      	mov	r1, r7
   824f0:	462a      	mov	r2, r5
   824f2:	47c0      	blx	r8

	/* Initialize PWM channel for LED3 */
	/* Period is center-aligned */
	g_pwm_channel_led3.alignment = PWM_ALIGN_LEFT;
   824f4:	f241 6394 	movw	r3, #5780	; 0x1694
   824f8:	4619      	mov	r1, r3
   824fa:	f2c2 0107 	movt	r1, #8199	; 0x2007
   824fe:	810d      	strh	r5, [r1, #8]
	/* Output waveform starts at a high level */
	g_pwm_channel_led3.polarity = PWM_LOW;
   82500:	f04f 0000 	mov.w	r0, #0
   82504:	7288      	strb	r0, [r1, #10]
	/* Use PWM clock A as source clock */
	g_pwm_channel_led3.ul_prescaler = PWM_CMR_CPRE_CLKA;
   82506:	f8c1 b004 	str.w	fp, [r1, #4]
	/* Period value of output waveform */
	g_pwm_channel_led3.ul_period = LED_PWM_PERIOD_VALUE;
   8250a:	f8c1 a010 	str.w	sl, [r1, #16]
	/* Duty cycle value of output waveform */
	g_pwm_channel_led3.ul_duty = LED_INIT_DUTY_VALUE;
   8250e:	60cd      	str	r5, [r1, #12]
	g_pwm_channel_led3.channel = PIN_LED3_CHANNEL;
   82510:	f04f 0a02 	mov.w	sl, #2
   82514:	f8c1 a000 	str.w	sl, [r1]
	pwm_channel_init(PWM, &g_pwm_channel_led3);
   82518:	4620      	mov	r0, r4
   8251a:	47c8      	blx	r9

	/* Disable channel counter event interrupt */
	pwm_channel_disable_interrupt(PWM, PIN_LED3_CHANNEL, 0);
   8251c:	4620      	mov	r0, r4
   8251e:	4651      	mov	r1, sl
   82520:	462a      	mov	r2, r5
   82522:	47c0      	blx	r8
	
	/* Enable PWM channels for LEDs */
	pwm_channel_enable(PWM, PIN_LED1_CHANNEL);
   82524:	4620      	mov	r0, r4
   82526:	4631      	mov	r1, r6
   82528:	f241 65dd 	movw	r5, #5853	; 0x16dd
   8252c:	f2c0 0508 	movt	r5, #8
   82530:	47a8      	blx	r5
	pwm_channel_enable(PWM, PIN_LED2_CHANNEL);
   82532:	4620      	mov	r0, r4
   82534:	4639      	mov	r1, r7
   82536:	47a8      	blx	r5
	pwm_channel_enable(PWM, PIN_LED3_CHANNEL);
   82538:	4620      	mov	r0, r4
   8253a:	4651      	mov	r1, sl
   8253c:	47a8      	blx	r5
}
   8253e:	b005      	add	sp, #20
   82540:	e8bd 8ff0 	ldmia.w	sp!, {r4, r5, r6, r7, r8, r9, sl, fp, pc}

00082544 <set_user_led_colour>:

// Set user led colour
void set_user_led_colour(uint16_t red_val, uint16_t green_val, uint16_t blue_val)
{
   82544:	b5f8      	push	{r3, r4, r5, r6, r7, lr}
   82546:	4603      	mov	r3, r0
   82548:	460e      	mov	r6, r1
   8254a:	4617      	mov	r7, r2
	pwm_channel_update_duty(PWM, &g_pwm_channel_led1, red_val);
   8254c:	f44f 4480 	mov.w	r4, #16384	; 0x4000
   82550:	f2c4 0409 	movt	r4, #16393	; 0x4009
   82554:	4620      	mov	r0, r4
   82556:	f241 616c 	movw	r1, #5740	; 0x166c
   8255a:	f2c2 0107 	movt	r1, #8199	; 0x2007
   8255e:	461a      	mov	r2, r3
   82560:	f241 65b9 	movw	r5, #5817	; 0x16b9
   82564:	f2c0 0508 	movt	r5, #8
   82568:	47a8      	blx	r5
	pwm_channel_update_duty(PWM, &g_pwm_channel_led2, blue_val);
   8256a:	4620      	mov	r0, r4
   8256c:	f241 61bc 	movw	r1, #5820	; 0x16bc
   82570:	f2c2 0107 	movt	r1, #8199	; 0x2007
   82574:	463a      	mov	r2, r7
   82576:	47a8      	blx	r5
	pwm_channel_update_duty(PWM, &g_pwm_channel_led3, green_val);
   82578:	4620      	mov	r0, r4
   8257a:	f241 6194 	movw	r1, #5780	; 0x1694
   8257e:	f2c2 0107 	movt	r1, #8199	; 0x2007
   82582:	4632      	mov	r2, r6
   82584:	47a8      	blx	r5
   82586:	bdf8      	pop	{r3, r4, r5, r6, r7, pc}

00082588 <get_user_button_status>:
	base->PIO_CODR = mask & ~level;
}

__always_inline static bool arch_ioport_get_pin_level(ioport_pin_t pin)
{
	return arch_ioport_pin_to_base(pin)->PIO_PDSR & arch_ioport_pin_to_mask(pin);
   82588:	f44f 5380 	mov.w	r3, #4096	; 0x1000
   8258c:	f2c4 030e 	movt	r3, #16398	; 0x400e
   82590:	6bd8      	ldr	r0, [r3, #60]	; 0x3c
}

// To see if the user pressed the front panel button
RET_TYPE get_user_button_status(void)
{
	if(ioport_get_pin_level(GPIO_USR_BUTTON))
   82592:	f480 0100 	eor.w	r1, r0, #8388608	; 0x800000
		return RETURN_NOK;
	else
		return RETURN_OK;
}
   82596:	f3c1 50c0 	ubfx	r0, r1, #23, #1
   8259a:	4770      	bx	lr

0008259c <get_12v_status>:
   8259c:	f44f 6360 	mov.w	r3, #3584	; 0xe00
   825a0:	f2c4 030e 	movt	r3, #16398	; 0x400e
   825a4:	6bd8      	ldr	r0, [r3, #60]	; 0x3c
{
	if(ioport_get_pin_level(GPIO_DET_12V))
		return RETURN_OK;
	else
		return RETURN_NOK;
}
   825a6:	f3c0 0040 	ubfx	r0, r0, #1, #1
   825aa:	4770      	bx	lr

000825ac <get_ok_12v_status>:
   825ac:	f44f 53a0 	mov.w	r3, #5120	; 0x1400
   825b0:	f2c4 030e 	movt	r3, #16398	; 0x400e
   825b4:	6bd8      	ldr	r0, [r3, #60]	; 0x3c
{
	if(ioport_get_pin_level(GPIO_OK_12V))
		return RETURN_OK;
	else
		return RETURN_NOK;
}
   825b6:	f3c0 2000 	ubfx	r0, r0, #8, #1
   825ba:	4770      	bx	lr

000825bc <enable_12v>:
		bool level)
{
	Pio *base = arch_ioport_pin_to_base(pin);

	if (level) {
		base->PIO_SODR = arch_ioport_pin_to_mask(pin);
   825bc:	f44f 53a0 	mov.w	r3, #5120	; 0x1400
   825c0:	f2c4 030e 	movt	r3, #16398	; 0x400e
   825c4:	f44f 7200 	mov.w	r2, #512	; 0x200
   825c8:	631a      	str	r2, [r3, #48]	; 0x30
   825ca:	4770      	bx	lr

000825cc <disable_12v>:
	} else {
		base->PIO_CODR = arch_ioport_pin_to_mask(pin);
   825cc:	f44f 53a0 	mov.w	r3, #5120	; 0x1400
   825d0:	f2c4 030e 	movt	r3, #16398	; 0x400e
   825d4:	f44f 7200 	mov.w	r2, #512	; 0x200
   825d8:	635a      	str	r2, [r3, #52]	; 0x34
   825da:	4770      	bx	lr

000825dc <SCPI_ErrorInit>:
   825dc:	b508      	push	{r3, lr}
   825de:	f640 4328 	movw	r3, #3112	; 0xc28
   825e2:	f2c2 0307 	movt	r3, #8199	; 0x2007
   825e6:	62c3      	str	r3, [r0, #44]	; 0x2c
   825e8:	4618      	mov	r0, r3
   825ea:	f642 010d 	movw	r1, #10253	; 0x280d
   825ee:	f2c0 0108 	movt	r1, #8
   825f2:	4788      	blx	r1
   825f4:	bd08      	pop	{r3, pc}
   825f6:	bf00      	nop

000825f8 <SCPI_ErrorClear>:
   825f8:	b508      	push	{r3, lr}
   825fa:	6ac0      	ldr	r0, [r0, #44]	; 0x2c
   825fc:	f642 031d 	movw	r3, #10269	; 0x281d
   82600:	f2c0 0308 	movt	r3, #8
   82604:	4798      	blx	r3
   82606:	bd08      	pop	{r3, pc}

00082608 <SCPI_ErrorPop>:
   82608:	b500      	push	{lr}
   8260a:	b083      	sub	sp, #12
   8260c:	a902      	add	r1, sp, #8
   8260e:	f04f 0300 	mov.w	r3, #0
   82612:	f821 3d02 	strh.w	r3, [r1, #-2]!
   82616:	6ac0      	ldr	r0, [r0, #44]	; 0x2c
   82618:	f642 0229 	movw	r2, #10281	; 0x2829
   8261c:	f2c0 0208 	movt	r2, #8
   82620:	4790      	blx	r2
   82622:	f9bd 0006 	ldrsh.w	r0, [sp, #6]
   82626:	b003      	add	sp, #12
   82628:	bd00      	pop	{pc}
   8262a:	bf00      	nop

0008262c <SCPI_ErrorCount>:
   8262c:	b500      	push	{lr}
   8262e:	b083      	sub	sp, #12
   82630:	a902      	add	r1, sp, #8
   82632:	f04f 0300 	mov.w	r3, #0
   82636:	f821 3d02 	strh.w	r3, [r1, #-2]!
   8263a:	6ac0      	ldr	r0, [r0, #44]	; 0x2c
   8263c:	f642 02c5 	movw	r2, #10437	; 0x28c5
   82640:	f2c0 0208 	movt	r2, #8
   82644:	4790      	blx	r2
   82646:	f9bd 0006 	ldrsh.w	r0, [sp, #6]
   8264a:	b003      	add	sp, #12
   8264c:	bd00      	pop	{pc}
   8264e:	bf00      	nop

00082650 <SCPI_ErrorPush>:
   82650:	b538      	push	{r3, r4, r5, lr}
   82652:	4605      	mov	r5, r0
   82654:	460c      	mov	r4, r1
   82656:	6ac0      	ldr	r0, [r0, #44]	; 0x2c
   82658:	f642 0369 	movw	r3, #10345	; 0x2869
   8265c:	f2c0 0308 	movt	r3, #8
   82660:	4798      	blx	r3
   82662:	f114 0f63 	cmn.w	r4, #99	; 0x63
   82666:	da0c      	bge.n	82682 <SCPI_ErrorPush+0x32>
   82668:	f114 0fc7 	cmn.w	r4, #199	; 0xc7
   8266c:	db09      	blt.n	82682 <SCPI_ErrorPush+0x32>
   8266e:	4628      	mov	r0, r5
   82670:	f04f 0102 	mov.w	r1, #2
   82674:	f04f 0220 	mov.w	r2, #32
   82678:	f642 2375 	movw	r3, #10869	; 0x2a75
   8267c:	f2c0 0308 	movt	r3, #8
   82680:	4798      	blx	r3
   82682:	f114 0fc7 	cmn.w	r4, #199	; 0xc7
   82686:	da0c      	bge.n	826a2 <SCPI_ErrorPush+0x52>
   82688:	f514 7f96 	cmn.w	r4, #300	; 0x12c
   8268c:	dd09      	ble.n	826a2 <SCPI_ErrorPush+0x52>
   8268e:	4628      	mov	r0, r5
   82690:	f04f 0102 	mov.w	r1, #2
   82694:	f04f 0210 	mov.w	r2, #16
   82698:	f642 2375 	movw	r3, #10869	; 0x2a75
   8269c:	f2c0 0308 	movt	r3, #8
   826a0:	4798      	blx	r3
   826a2:	f514 7f96 	cmn.w	r4, #300	; 0x12c
   826a6:	dc0c      	bgt.n	826c2 <SCPI_ErrorPush+0x72>
   826a8:	f514 7fc8 	cmn.w	r4, #400	; 0x190
   826ac:	dd09      	ble.n	826c2 <SCPI_ErrorPush+0x72>
   826ae:	4628      	mov	r0, r5
   826b0:	f04f 0102 	mov.w	r1, #2
   826b4:	f04f 0208 	mov.w	r2, #8
   826b8:	f642 2375 	movw	r3, #10869	; 0x2a75
   826bc:	f2c0 0308 	movt	r3, #8
   826c0:	4798      	blx	r3
   826c2:	f514 7fc8 	cmn.w	r4, #400	; 0x190
   826c6:	dc0c      	bgt.n	826e2 <SCPI_ErrorPush+0x92>
   826c8:	f514 7ffa 	cmn.w	r4, #500	; 0x1f4
   826cc:	dd09      	ble.n	826e2 <SCPI_ErrorPush+0x92>
   826ce:	4628      	mov	r0, r5
   826d0:	f04f 0102 	mov.w	r1, #2
   826d4:	f04f 0204 	mov.w	r2, #4
   826d8:	f642 2375 	movw	r3, #10869	; 0x2a75
   826dc:	f2c0 0308 	movt	r3, #8
   826e0:	4798      	blx	r3
   826e2:	f514 7ffa 	cmn.w	r4, #500	; 0x1f4
   826e6:	dc0c      	bgt.n	82702 <SCPI_ErrorPush+0xb2>
   826e8:	f514 7f16 	cmn.w	r4, #600	; 0x258
   826ec:	dd09      	ble.n	82702 <SCPI_ErrorPush+0xb2>
   826ee:	4628      	mov	r0, r5
   826f0:	f04f 0102 	mov.w	r1, #2
   826f4:	f04f 0280 	mov.w	r2, #128	; 0x80
   826f8:	f642 2375 	movw	r3, #10869	; 0x2a75
   826fc:	f2c0 0308 	movt	r3, #8
   82700:	4798      	blx	r3
   82702:	f514 7f16 	cmn.w	r4, #600	; 0x258
   82706:	dc0c      	bgt.n	82722 <SCPI_ErrorPush+0xd2>
   82708:	f514 7f2f 	cmn.w	r4, #700	; 0x2bc
   8270c:	dd09      	ble.n	82722 <SCPI_ErrorPush+0xd2>
   8270e:	4628      	mov	r0, r5
   82710:	f04f 0102 	mov.w	r1, #2
   82714:	f04f 0240 	mov.w	r2, #64	; 0x40
   82718:	f642 2375 	movw	r3, #10869	; 0x2a75
   8271c:	f2c0 0308 	movt	r3, #8
   82720:	4798      	blx	r3
   82722:	f514 7f2f 	cmn.w	r4, #700	; 0x2bc
   82726:	dc0b      	bgt.n	82740 <SCPI_ErrorPush+0xf0>
   82728:	f514 7f48 	cmn.w	r4, #800	; 0x320
   8272c:	dd08      	ble.n	82740 <SCPI_ErrorPush+0xf0>
   8272e:	4628      	mov	r0, r5
   82730:	f04f 0102 	mov.w	r1, #2
   82734:	460a      	mov	r2, r1
   82736:	f642 2375 	movw	r3, #10869	; 0x2a75
   8273a:	f2c0 0308 	movt	r3, #8
   8273e:	4798      	blx	r3
   82740:	f514 7f48 	cmn.w	r4, #800	; 0x320
   82744:	dc0c      	bgt.n	82760 <SCPI_ErrorPush+0x110>
   82746:	f514 7f61 	cmn.w	r4, #900	; 0x384
   8274a:	dd09      	ble.n	82760 <SCPI_ErrorPush+0x110>
   8274c:	4628      	mov	r0, r5
   8274e:	f04f 0102 	mov.w	r1, #2
   82752:	f04f 0201 	mov.w	r2, #1
   82756:	f642 2375 	movw	r3, #10869	; 0x2a75
   8275a:	f2c0 0308 	movt	r3, #8
   8275e:	4798      	blx	r3
   82760:	b155      	cbz	r5, 82778 <SCPI_ErrorPush+0x128>
   82762:	69e8      	ldr	r0, [r5, #28]
   82764:	b120      	cbz	r0, 82770 <SCPI_ErrorPush+0x120>
   82766:	6802      	ldr	r2, [r0, #0]
   82768:	b112      	cbz	r2, 82770 <SCPI_ErrorPush+0x120>
   8276a:	4628      	mov	r0, r5
   8276c:	4621      	mov	r1, r4
   8276e:	4790      	blx	r2
   82770:	f04f 0101 	mov.w	r1, #1
   82774:	f885 1028 	strb.w	r1, [r5, #40]	; 0x28
   82778:	bd38      	pop	{r3, r4, r5, pc}
   8277a:	bf00      	nop

0008277c <SCPI_ErrorTranslate>:
   8277c:	f110 0f6d 	cmn.w	r0, #109	; 0x6d
   82780:	d02b      	beq.n	827da <SCPI_ErrorTranslate+0x5e>
   82782:	dc09      	bgt.n	82798 <SCPI_ErrorTranslate+0x1c>
   82784:	f110 0f83 	cmn.w	r0, #131	; 0x83
   82788:	d02c      	beq.n	827e4 <SCPI_ErrorTranslate+0x68>
   8278a:	f110 0f71 	cmn.w	r0, #113	; 0x71
   8278e:	d01a      	beq.n	827c6 <SCPI_ErrorTranslate+0x4a>
   82790:	f110 0f8a 	cmn.w	r0, #138	; 0x8a
   82794:	d130      	bne.n	827f8 <SCPI_ErrorTranslate+0x7c>
   82796:	e02a      	b.n	827ee <SCPI_ErrorTranslate+0x72>
   82798:	f110 0f67 	cmn.w	r0, #103	; 0x67
   8279c:	d00e      	beq.n	827bc <SCPI_ErrorTranslate+0x40>
   8279e:	dc03      	bgt.n	827a8 <SCPI_ErrorTranslate+0x2c>
   827a0:	f110 0f6c 	cmn.w	r0, #108	; 0x6c
   827a4:	d128      	bne.n	827f8 <SCPI_ErrorTranslate+0x7c>
   827a6:	e013      	b.n	827d0 <SCPI_ErrorTranslate+0x54>
   827a8:	f110 0f66 	cmn.w	r0, #102	; 0x66
   827ac:	d029      	beq.n	82802 <SCPI_ErrorTranslate+0x86>
   827ae:	2800      	cmp	r0, #0
   827b0:	d122      	bne.n	827f8 <SCPI_ErrorTranslate+0x7c>
   827b2:	f64c 0050 	movw	r0, #51280	; 0xc850
   827b6:	f2c0 0008 	movt	r0, #8
   827ba:	4770      	bx	lr
   827bc:	f64c 006c 	movw	r0, #51308	; 0xc86c
   827c0:	f2c0 0008 	movt	r0, #8
   827c4:	4770      	bx	lr
   827c6:	f64c 0080 	movw	r0, #51328	; 0xc880
   827ca:	f2c0 0008 	movt	r0, #8
   827ce:	4770      	bx	lr
   827d0:	f64c 0094 	movw	r0, #51348	; 0xc894
   827d4:	f2c0 0008 	movt	r0, #8
   827d8:	4770      	bx	lr
   827da:	f64c 00ac 	movw	r0, #51372	; 0xc8ac
   827de:	f2c0 0008 	movt	r0, #8
   827e2:	4770      	bx	lr
   827e4:	f64c 00c0 	movw	r0, #51392	; 0xc8c0
   827e8:	f2c0 0008 	movt	r0, #8
   827ec:	4770      	bx	lr
   827ee:	f64c 00d0 	movw	r0, #51408	; 0xc8d0
   827f2:	f2c0 0008 	movt	r0, #8
   827f6:	4770      	bx	lr
   827f8:	f64c 00e4 	movw	r0, #51428	; 0xc8e4
   827fc:	f2c0 0008 	movt	r0, #8
   82800:	4770      	bx	lr
   82802:	f64c 005c 	movw	r0, #51292	; 0xc85c
   82806:	f2c0 0008 	movt	r0, #8
   8280a:	4770      	bx	lr

0008280c <fifo_init>:
   8280c:	f04f 0300 	mov.w	r3, #0
   82810:	8003      	strh	r3, [r0, #0]
   82812:	8043      	strh	r3, [r0, #2]
   82814:	f04f 0110 	mov.w	r1, #16
   82818:	8081      	strh	r1, [r0, #4]
   8281a:	4770      	bx	lr

0008281c <fifo_clear>:
   8281c:	f04f 0300 	mov.w	r3, #0
   82820:	8003      	strh	r3, [r0, #0]
   82822:	8043      	strh	r3, [r0, #2]
   82824:	4770      	bx	lr
   82826:	bf00      	nop

00082828 <fifo_remove>:
   82828:	b410      	push	{r4}
   8282a:	8843      	ldrh	r3, [r0, #2]
   8282c:	f9b0 4000 	ldrsh.w	r4, [r0]
   82830:	b21a      	sxth	r2, r3
   82832:	4294      	cmp	r4, r2
   82834:	d014      	beq.n	82860 <fifo_remove+0x38>
   82836:	b119      	cbz	r1, 82840 <fifo_remove+0x18>
   82838:	eb00 0242 	add.w	r2, r0, r2, lsl #1
   8283c:	88d3      	ldrh	r3, [r2, #6]
   8283e:	800b      	strh	r3, [r1, #0]
   82840:	f9b0 2002 	ldrsh.w	r2, [r0, #2]
   82844:	f102 0201 	add.w	r2, r2, #1
   82848:	f9b0 3004 	ldrsh.w	r3, [r0, #4]
   8284c:	f103 0301 	add.w	r3, r3, #1
   82850:	fb92 f1f3 	sdiv	r1, r2, r3
   82854:	fb03 2211 	mls	r2, r3, r1, r2
   82858:	8042      	strh	r2, [r0, #2]
   8285a:	f04f 0001 	mov.w	r0, #1
   8285e:	e001      	b.n	82864 <fifo_remove+0x3c>
   82860:	f04f 0000 	mov.w	r0, #0
   82864:	bc10      	pop	{r4}
   82866:	4770      	bx	lr

00082868 <fifo_add>:
   82868:	b538      	push	{r3, r4, r5, lr}
   8286a:	4604      	mov	r4, r0
   8286c:	460d      	mov	r5, r1
   8286e:	f9b0 3004 	ldrsh.w	r3, [r0, #4]
   82872:	f9b0 1000 	ldrsh.w	r1, [r0]
   82876:	f9b0 2002 	ldrsh.w	r2, [r0, #2]
   8287a:	18d2      	adds	r2, r2, r3
   8287c:	f103 0301 	add.w	r3, r3, #1
   82880:	fb92 f0f3 	sdiv	r0, r2, r3
   82884:	fb03 2310 	mls	r3, r3, r0, r2
   82888:	4299      	cmp	r1, r3
   8288a:	d107      	bne.n	8289c <fifo_add+0x34>
   8288c:	4620      	mov	r0, r4
   8288e:	f04f 0100 	mov.w	r1, #0
   82892:	f642 0229 	movw	r2, #10281	; 0x2829
   82896:	f2c0 0208 	movt	r2, #8
   8289a:	4790      	blx	r2
   8289c:	f9b4 0000 	ldrsh.w	r0, [r4]
   828a0:	eb04 0140 	add.w	r1, r4, r0, lsl #1
   828a4:	80cd      	strh	r5, [r1, #6]
   828a6:	f100 0001 	add.w	r0, r0, #1
   828aa:	f9b4 3004 	ldrsh.w	r3, [r4, #4]
   828ae:	f103 0301 	add.w	r3, r3, #1
   828b2:	fb90 f2f3 	sdiv	r2, r0, r3
   828b6:	fb03 0012 	mls	r0, r3, r2, r0
   828ba:	8020      	strh	r0, [r4, #0]
   828bc:	f04f 0001 	mov.w	r0, #1
   828c0:	bd38      	pop	{r3, r4, r5, pc}
   828c2:	bf00      	nop

000828c4 <fifo_count>:
   828c4:	8802      	ldrh	r2, [r0, #0]
   828c6:	8843      	ldrh	r3, [r0, #2]
   828c8:	1ad2      	subs	r2, r2, r3
   828ca:	b292      	uxth	r2, r2
   828cc:	b293      	uxth	r3, r2
   828ce:	800b      	strh	r3, [r1, #0]
   828d0:	f413 4f00 	tst.w	r3, #32768	; 0x8000
   828d4:	d004      	beq.n	828e0 <fifo_count+0x1c>
   828d6:	8880      	ldrh	r0, [r0, #4]
   828d8:	f100 0001 	add.w	r0, r0, #1
   828dc:	1812      	adds	r2, r2, r0
   828de:	800a      	strh	r2, [r1, #0]
   828e0:	f04f 0001 	mov.w	r0, #1
   828e4:	4770      	bx	lr
   828e6:	bf00      	nop

000828e8 <SCPI_RegGet>:
   828e8:	2907      	cmp	r1, #7
   828ea:	d804      	bhi.n	828f6 <SCPI_RegGet+0xe>
   828ec:	6b03      	ldr	r3, [r0, #48]	; 0x30
   828ee:	b12b      	cbz	r3, 828fc <SCPI_RegGet+0x14>
   828f0:	f833 0011 	ldrh.w	r0, [r3, r1, lsl #1]
   828f4:	4770      	bx	lr
   828f6:	f04f 0000 	mov.w	r0, #0
   828fa:	4770      	bx	lr
   828fc:	f04f 0000 	mov.w	r0, #0
   82900:	4770      	bx	lr
   82902:	bf00      	nop

00082904 <SCPI_RegClearBits>:
   82904:	b570      	push	{r4, r5, r6, lr}
   82906:	4605      	mov	r5, r0
   82908:	460c      	mov	r4, r1
   8290a:	4616      	mov	r6, r2
   8290c:	f642 03e9 	movw	r3, #10473	; 0x28e9
   82910:	f2c0 0308 	movt	r3, #8
   82914:	4798      	blx	r3
   82916:	ea20 0206 	bic.w	r2, r0, r6
   8291a:	4628      	mov	r0, r5
   8291c:	4621      	mov	r1, r4
   8291e:	b292      	uxth	r2, r2
   82920:	f642 1361 	movw	r3, #10593	; 0x2961
   82924:	f2c0 0308 	movt	r3, #8
   82928:	4798      	blx	r3
   8292a:	bd70      	pop	{r4, r5, r6, pc}

0008292c <regUpdateSTB>:
   8292c:	b570      	push	{r4, r5, r6, lr}
   8292e:	4605      	mov	r5, r0
   82930:	460e      	mov	r6, r1
   82932:	461c      	mov	r4, r3
   82934:	4611      	mov	r1, r2
   82936:	f642 03e9 	movw	r3, #10473	; 0x28e9
   8293a:	f2c0 0308 	movt	r3, #8
   8293e:	4798      	blx	r3
   82940:	4230      	tst	r0, r6
   82942:	4628      	mov	r0, r5
   82944:	f04f 0100 	mov.w	r1, #0
   82948:	4622      	mov	r2, r4
   8294a:	bf19      	ittee	ne
   8294c:	f642 2375 	movwne	r3, #10869	; 0x2a75
   82950:	f2c0 0308 	movtne	r3, #8
   82954:	f642 1305 	movweq	r3, #10501	; 0x2905
   82958:	f2c0 0308 	movteq	r3, #8
   8295c:	4798      	blx	r3
   8295e:	bd70      	pop	{r4, r5, r6, pc}

00082960 <SCPI_RegSet>:
   82960:	b5f8      	push	{r3, r4, r5, r6, r7, lr}
   82962:	4605      	mov	r5, r0
   82964:	460c      	mov	r4, r1
   82966:	4616      	mov	r6, r2
   82968:	2907      	cmp	r1, #7
   8296a:	f200 8081 	bhi.w	82a70 <SCPI_RegSet+0x110>
   8296e:	6b03      	ldr	r3, [r0, #48]	; 0x30
   82970:	2b00      	cmp	r3, #0
   82972:	d07d      	beq.n	82a70 <SCPI_RegSet+0x110>
   82974:	f833 7011 	ldrh.w	r7, [r3, r1, lsl #1]
   82978:	f823 2014 	strh.w	r2, [r3, r4, lsl #1]
   8297c:	2907      	cmp	r1, #7
   8297e:	d857      	bhi.n	82a30 <SCPI_RegSet+0xd0>
   82980:	e8df f001 	tbb	[pc, r1]
   82984:	281d1504 	.word	0x281d1504
   82988:	3b304e43 	.word	0x3b304e43
   8298c:	f04f 0101 	mov.w	r1, #1
   82990:	f642 02e9 	movw	r2, #10473	; 0x28e9
   82994:	f2c0 0208 	movt	r2, #8
   82998:	4790      	blx	r2
   8299a:	f64f 71bf 	movw	r1, #65471	; 0xffbf
   8299e:	4031      	ands	r1, r6
   829a0:	4201      	tst	r1, r0
   829a2:	d052      	beq.n	82a4a <SCPI_RegSet+0xea>
   829a4:	f046 0640 	orr.w	r6, r6, #64	; 0x40
   829a8:	42b7      	cmp	r7, r6
   829aa:	d153      	bne.n	82a54 <SCPI_RegSet+0xf4>
   829ac:	e04e      	b.n	82a4c <SCPI_RegSet+0xec>
   829ae:	f04f 0100 	mov.w	r1, #0
   829b2:	f642 239d 	movw	r3, #10909	; 0x2a9d
   829b6:	f2c0 0308 	movt	r3, #8
   829ba:	4798      	blx	r3
   829bc:	e046      	b.n	82a4c <SCPI_RegSet+0xec>
   829be:	4611      	mov	r1, r2
   829c0:	f04f 0203 	mov.w	r2, #3
   829c4:	f04f 0320 	mov.w	r3, #32
   829c8:	f642 172d 	movw	r7, #10541	; 0x292d
   829cc:	f2c0 0708 	movt	r7, #8
   829d0:	47b8      	blx	r7
   829d2:	e03b      	b.n	82a4c <SCPI_RegSet+0xec>
   829d4:	f04f 0102 	mov.w	r1, #2
   829d8:	f642 229d 	movw	r2, #10909	; 0x2a9d
   829dc:	f2c0 0208 	movt	r2, #8
   829e0:	4790      	blx	r2
   829e2:	e033      	b.n	82a4c <SCPI_RegSet+0xec>
   829e4:	4611      	mov	r1, r2
   829e6:	f04f 0207 	mov.w	r2, #7
   829ea:	f04f 0308 	mov.w	r3, #8
   829ee:	f642 172d 	movw	r7, #10541	; 0x292d
   829f2:	f2c0 0708 	movt	r7, #8
   829f6:	47b8      	blx	r7
   829f8:	e028      	b.n	82a4c <SCPI_RegSet+0xec>
   829fa:	f04f 0106 	mov.w	r1, #6
   829fe:	f642 229d 	movw	r2, #10909	; 0x2a9d
   82a02:	f2c0 0208 	movt	r2, #8
   82a06:	4790      	blx	r2
   82a08:	e020      	b.n	82a4c <SCPI_RegSet+0xec>
   82a0a:	4611      	mov	r1, r2
   82a0c:	f04f 0205 	mov.w	r2, #5
   82a10:	f04f 0380 	mov.w	r3, #128	; 0x80
   82a14:	f642 172d 	movw	r7, #10541	; 0x292d
   82a18:	f2c0 0708 	movt	r7, #8
   82a1c:	47b8      	blx	r7
   82a1e:	e015      	b.n	82a4c <SCPI_RegSet+0xec>
   82a20:	f04f 0104 	mov.w	r1, #4
   82a24:	f642 239d 	movw	r3, #10909	; 0x2a9d
   82a28:	f2c0 0308 	movt	r3, #8
   82a2c:	4798      	blx	r3
   82a2e:	e00d      	b.n	82a4c <SCPI_RegSet+0xec>
   82a30:	6b00      	ldr	r0, [r0, #48]	; 0x30
   82a32:	f820 2014 	strh.w	r2, [r0, r4, lsl #1]
   82a36:	bdf8      	pop	{r3, r4, r5, r6, r7, pc}
   82a38:	69e9      	ldr	r1, [r5, #28]
   82a3a:	b1c9      	cbz	r1, 82a70 <SCPI_RegSet+0x110>
   82a3c:	688b      	ldr	r3, [r1, #8]
   82a3e:	b1bb      	cbz	r3, 82a70 <SCPI_RegSet+0x110>
   82a40:	4628      	mov	r0, r5
   82a42:	f04f 0101 	mov.w	r1, #1
   82a46:	4798      	blx	r3
   82a48:	bdf8      	pop	{r3, r4, r5, r6, r7, pc}
   82a4a:	460e      	mov	r6, r1
   82a4c:	6b28      	ldr	r0, [r5, #48]	; 0x30
   82a4e:	f820 6014 	strh.w	r6, [r0, r4, lsl #1]
   82a52:	bdf8      	pop	{r3, r4, r5, r6, r7, pc}
   82a54:	6b2b      	ldr	r3, [r5, #48]	; 0x30
   82a56:	f823 6014 	strh.w	r6, [r3, r4, lsl #1]
   82a5a:	4628      	mov	r0, r5
   82a5c:	f04f 0100 	mov.w	r1, #0
   82a60:	f642 02e9 	movw	r2, #10473	; 0x28e9
   82a64:	f2c0 0208 	movt	r2, #8
   82a68:	4790      	blx	r2
   82a6a:	4602      	mov	r2, r0
   82a6c:	2d00      	cmp	r5, #0
   82a6e:	d1e3      	bne.n	82a38 <SCPI_RegSet+0xd8>
   82a70:	bdf8      	pop	{r3, r4, r5, r6, r7, pc}
   82a72:	bf00      	nop

00082a74 <SCPI_RegSetBits>:
   82a74:	b570      	push	{r4, r5, r6, lr}
   82a76:	4605      	mov	r5, r0
   82a78:	460c      	mov	r4, r1
   82a7a:	4616      	mov	r6, r2
   82a7c:	f642 03e9 	movw	r3, #10473	; 0x28e9
   82a80:	f2c0 0308 	movt	r3, #8
   82a84:	4798      	blx	r3
   82a86:	ea40 0206 	orr.w	r2, r0, r6
   82a8a:	4628      	mov	r0, r5
   82a8c:	4621      	mov	r1, r4
   82a8e:	b292      	uxth	r2, r2
   82a90:	f642 1361 	movw	r3, #10593	; 0x2961
   82a94:	f2c0 0308 	movt	r3, #8
   82a98:	4798      	blx	r3
   82a9a:	bd70      	pop	{r4, r5, r6, pc}

00082a9c <regUpdate>:
   82a9c:	b538      	push	{r3, r4, r5, lr}
   82a9e:	4605      	mov	r5, r0
   82aa0:	460c      	mov	r4, r1
   82aa2:	f642 03e9 	movw	r3, #10473	; 0x28e9
   82aa6:	f2c0 0308 	movt	r3, #8
   82aaa:	4798      	blx	r3
   82aac:	4602      	mov	r2, r0
   82aae:	4628      	mov	r0, r5
   82ab0:	4621      	mov	r1, r4
   82ab2:	f642 1361 	movw	r3, #10593	; 0x2961
   82ab6:	f2c0 0308 	movt	r3, #8
   82aba:	4798      	blx	r3
   82abc:	bd38      	pop	{r3, r4, r5, pc}
   82abe:	bf00      	nop

00082ac0 <SCPI_EventClear>:
   82ac0:	b508      	push	{r3, lr}
   82ac2:	f04f 0102 	mov.w	r1, #2
   82ac6:	f04f 0200 	mov.w	r2, #0
   82aca:	f642 1361 	movw	r3, #10593	; 0x2961
   82ace:	f2c0 0308 	movt	r3, #8
   82ad2:	4798      	blx	r3
   82ad4:	bd08      	pop	{r3, pc}
   82ad6:	bf00      	nop

00082ad8 <SCPI_CoreCls>:
   82ad8:	b538      	push	{r3, r4, r5, lr}
   82ada:	4604      	mov	r4, r0
   82adc:	f642 23c1 	movw	r3, #10945	; 0x2ac1
   82ae0:	f2c0 0308 	movt	r3, #8
   82ae4:	4798      	blx	r3
   82ae6:	4620      	mov	r0, r4
   82ae8:	f242 51f9 	movw	r1, #9721	; 0x25f9
   82aec:	f2c0 0108 	movt	r1, #8
   82af0:	4788      	blx	r1
   82af2:	4620      	mov	r0, r4
   82af4:	f04f 0104 	mov.w	r1, #4
   82af8:	f04f 0200 	mov.w	r2, #0
   82afc:	f642 1561 	movw	r5, #10593	; 0x2961
   82b00:	f2c0 0508 	movt	r5, #8
   82b04:	47a8      	blx	r5
   82b06:	4620      	mov	r0, r4
   82b08:	f04f 0106 	mov.w	r1, #6
   82b0c:	f04f 0200 	mov.w	r2, #0
   82b10:	47a8      	blx	r5
   82b12:	f04f 0001 	mov.w	r0, #1
   82b16:	bd38      	pop	{r3, r4, r5, pc}

00082b18 <SCPI_CoreEse>:
   82b18:	b510      	push	{r4, lr}
   82b1a:	b082      	sub	sp, #8
   82b1c:	4604      	mov	r4, r0
   82b1e:	a901      	add	r1, sp, #4
   82b20:	f04f 0201 	mov.w	r2, #1
   82b24:	f243 23fd 	movw	r3, #13053	; 0x32fd
   82b28:	f2c0 0308 	movt	r3, #8
   82b2c:	4798      	blx	r3
   82b2e:	b148      	cbz	r0, 82b44 <SCPI_CoreEse+0x2c>
   82b30:	4620      	mov	r0, r4
   82b32:	f04f 0103 	mov.w	r1, #3
   82b36:	f8bd 2004 	ldrh.w	r2, [sp, #4]
   82b3a:	f642 1361 	movw	r3, #10593	; 0x2961
   82b3e:	f2c0 0308 	movt	r3, #8
   82b42:	4798      	blx	r3
   82b44:	f04f 0001 	mov.w	r0, #1
   82b48:	b002      	add	sp, #8
   82b4a:	bd10      	pop	{r4, pc}

00082b4c <SCPI_CoreEseQ>:
   82b4c:	b510      	push	{r4, lr}
   82b4e:	4604      	mov	r4, r0
   82b50:	f04f 0103 	mov.w	r1, #3
   82b54:	f642 03e9 	movw	r3, #10473	; 0x28e9
   82b58:	f2c0 0308 	movt	r3, #8
   82b5c:	4798      	blx	r3
   82b5e:	4601      	mov	r1, r0
   82b60:	4620      	mov	r0, r4
   82b62:	f243 12e5 	movw	r2, #12773	; 0x31e5
   82b66:	f2c0 0208 	movt	r2, #8
   82b6a:	4790      	blx	r2
   82b6c:	f04f 0001 	mov.w	r0, #1
   82b70:	bd10      	pop	{r4, pc}
   82b72:	bf00      	nop

00082b74 <SCPI_CoreEsrQ>:
   82b74:	b510      	push	{r4, lr}
   82b76:	4604      	mov	r4, r0
   82b78:	f04f 0102 	mov.w	r1, #2
   82b7c:	f642 03e9 	movw	r3, #10473	; 0x28e9
   82b80:	f2c0 0308 	movt	r3, #8
   82b84:	4798      	blx	r3
   82b86:	4601      	mov	r1, r0
   82b88:	4620      	mov	r0, r4
   82b8a:	f243 12e5 	movw	r2, #12773	; 0x31e5
   82b8e:	f2c0 0208 	movt	r2, #8
   82b92:	4790      	blx	r2
   82b94:	4620      	mov	r0, r4
   82b96:	f04f 0102 	mov.w	r1, #2
   82b9a:	f04f 0200 	mov.w	r2, #0
   82b9e:	f642 1361 	movw	r3, #10593	; 0x2961
   82ba2:	f2c0 0308 	movt	r3, #8
   82ba6:	4798      	blx	r3
   82ba8:	f04f 0001 	mov.w	r0, #1
   82bac:	bd10      	pop	{r4, pc}
   82bae:	bf00      	nop

00082bb0 <SCPI_CoreIdnQ>:
   82bb0:	b538      	push	{r3, r4, r5, lr}
   82bb2:	4605      	mov	r5, r0
   82bb4:	f64c 01f4 	movw	r1, #51444	; 0xc8f4
   82bb8:	f2c0 0108 	movt	r1, #8
   82bbc:	f243 14a5 	movw	r4, #12709	; 0x31a5
   82bc0:	f2c0 0408 	movt	r4, #8
   82bc4:	47a0      	blx	r4
   82bc6:	4628      	mov	r0, r5
   82bc8:	f64c 01fc 	movw	r1, #51452	; 0xc8fc
   82bcc:	f2c0 0108 	movt	r1, #8
   82bd0:	47a0      	blx	r4
   82bd2:	4628      	mov	r0, r5
   82bd4:	f64c 111c 	movw	r1, #51484	; 0xc91c
   82bd8:	f2c0 0108 	movt	r1, #8
   82bdc:	47a0      	blx	r4
   82bde:	f04f 0001 	mov.w	r0, #1
   82be2:	bd38      	pop	{r3, r4, r5, pc}

00082be4 <SCPI_CoreOpc>:
   82be4:	b508      	push	{r3, lr}
   82be6:	f04f 0102 	mov.w	r1, #2
   82bea:	f04f 0201 	mov.w	r2, #1
   82bee:	f642 2375 	movw	r3, #10869	; 0x2a75
   82bf2:	f2c0 0308 	movt	r3, #8
   82bf6:	4798      	blx	r3
   82bf8:	f04f 0001 	mov.w	r0, #1
   82bfc:	bd08      	pop	{r3, pc}
   82bfe:	bf00      	nop

00082c00 <SCPI_CoreOpcQ>:
   82c00:	b508      	push	{r3, lr}
   82c02:	f04f 0101 	mov.w	r1, #1
   82c06:	f243 13e5 	movw	r3, #12773	; 0x31e5
   82c0a:	f2c0 0308 	movt	r3, #8
   82c0e:	4798      	blx	r3
   82c10:	f04f 0001 	mov.w	r0, #1
   82c14:	bd08      	pop	{r3, pc}
   82c16:	bf00      	nop

00082c18 <SCPI_CoreRst>:
   82c18:	b508      	push	{r3, lr}
   82c1a:	b128      	cbz	r0, 82c28 <SCPI_CoreRst+0x10>
   82c1c:	69c3      	ldr	r3, [r0, #28]
   82c1e:	b133      	cbz	r3, 82c2e <SCPI_CoreRst+0x16>
   82c20:	6919      	ldr	r1, [r3, #16]
   82c22:	b139      	cbz	r1, 82c34 <SCPI_CoreRst+0x1c>
   82c24:	4788      	blx	r1
   82c26:	e007      	b.n	82c38 <SCPI_CoreRst+0x20>
   82c28:	f04f 0001 	mov.w	r0, #1
   82c2c:	e004      	b.n	82c38 <SCPI_CoreRst+0x20>
   82c2e:	f04f 0001 	mov.w	r0, #1
   82c32:	e001      	b.n	82c38 <SCPI_CoreRst+0x20>
   82c34:	f04f 0001 	mov.w	r0, #1
   82c38:	b240      	sxtb	r0, r0
   82c3a:	bd08      	pop	{r3, pc}

00082c3c <SCPI_CoreSre>:
   82c3c:	b510      	push	{r4, lr}
   82c3e:	b082      	sub	sp, #8
   82c40:	4604      	mov	r4, r0
   82c42:	a901      	add	r1, sp, #4
   82c44:	f04f 0201 	mov.w	r2, #1
   82c48:	f243 23fd 	movw	r3, #13053	; 0x32fd
   82c4c:	f2c0 0308 	movt	r3, #8
   82c50:	4798      	blx	r3
   82c52:	b148      	cbz	r0, 82c68 <SCPI_CoreSre+0x2c>
   82c54:	4620      	mov	r0, r4
   82c56:	f04f 0101 	mov.w	r1, #1
   82c5a:	f8bd 2004 	ldrh.w	r2, [sp, #4]
   82c5e:	f642 1361 	movw	r3, #10593	; 0x2961
   82c62:	f2c0 0308 	movt	r3, #8
   82c66:	4798      	blx	r3
   82c68:	f04f 0001 	mov.w	r0, #1
   82c6c:	b002      	add	sp, #8
   82c6e:	bd10      	pop	{r4, pc}

00082c70 <SCPI_CoreSreQ>:
   82c70:	b510      	push	{r4, lr}
   82c72:	4604      	mov	r4, r0
   82c74:	f04f 0101 	mov.w	r1, #1
   82c78:	f642 03e9 	movw	r3, #10473	; 0x28e9
   82c7c:	f2c0 0308 	movt	r3, #8
   82c80:	4798      	blx	r3
   82c82:	4601      	mov	r1, r0
   82c84:	4620      	mov	r0, r4
   82c86:	f243 12e5 	movw	r2, #12773	; 0x31e5
   82c8a:	f2c0 0208 	movt	r2, #8
   82c8e:	4790      	blx	r2
   82c90:	f04f 0001 	mov.w	r0, #1
   82c94:	bd10      	pop	{r4, pc}
   82c96:	bf00      	nop

00082c98 <SCPI_CoreStbQ>:
   82c98:	b510      	push	{r4, lr}
   82c9a:	4604      	mov	r4, r0
   82c9c:	f04f 0100 	mov.w	r1, #0
   82ca0:	f642 03e9 	movw	r3, #10473	; 0x28e9
   82ca4:	f2c0 0308 	movt	r3, #8
   82ca8:	4798      	blx	r3
   82caa:	4601      	mov	r1, r0
   82cac:	4620      	mov	r0, r4
   82cae:	f243 12e5 	movw	r2, #12773	; 0x31e5
   82cb2:	f2c0 0208 	movt	r2, #8
   82cb6:	4790      	blx	r2
   82cb8:	f04f 0001 	mov.w	r0, #1
   82cbc:	bd10      	pop	{r4, pc}
   82cbe:	bf00      	nop

00082cc0 <SCPI_CoreTstQ>:
   82cc0:	b510      	push	{r4, lr}
   82cc2:	4604      	mov	r4, r0
   82cc4:	b130      	cbz	r0, 82cd4 <SCPI_CoreTstQ+0x14>
   82cc6:	69c3      	ldr	r3, [r0, #28]
   82cc8:	b13b      	cbz	r3, 82cda <SCPI_CoreTstQ+0x1a>
   82cca:	6959      	ldr	r1, [r3, #20]
   82ccc:	b141      	cbz	r1, 82ce0 <SCPI_CoreTstQ+0x20>
   82cce:	4788      	blx	r1
   82cd0:	4601      	mov	r1, r0
   82cd2:	e007      	b.n	82ce4 <SCPI_CoreTstQ+0x24>
   82cd4:	f04f 0100 	mov.w	r1, #0
   82cd8:	e004      	b.n	82ce4 <SCPI_CoreTstQ+0x24>
   82cda:	f04f 0100 	mov.w	r1, #0
   82cde:	e001      	b.n	82ce4 <SCPI_CoreTstQ+0x24>
   82ce0:	f04f 0100 	mov.w	r1, #0
   82ce4:	4620      	mov	r0, r4
   82ce6:	f243 12e5 	movw	r2, #12773	; 0x31e5
   82cea:	f2c0 0208 	movt	r2, #8
   82cee:	4790      	blx	r2
   82cf0:	f04f 0001 	mov.w	r0, #1
   82cf4:	bd10      	pop	{r4, pc}
   82cf6:	bf00      	nop

00082cf8 <SCPI_CoreWai>:
   82cf8:	f04f 0001 	mov.w	r0, #1
   82cfc:	4770      	bx	lr
   82cfe:	bf00      	nop

00082d00 <SCPI_StubQ>:
   82d00:	b508      	push	{r3, lr}
   82d02:	f64c 414c 	movw	r1, #52300	; 0xcc4c
   82d06:	f2c0 0108 	movt	r1, #8
   82d0a:	f243 13a5 	movw	r3, #12709	; 0x31a5
   82d0e:	f2c0 0308 	movt	r3, #8
   82d12:	4798      	blx	r3
   82d14:	f04f 0001 	mov.w	r0, #1
   82d18:	bd08      	pop	{r3, pc}
   82d1a:	bf00      	nop

00082d1c <SCPI_SystemVersionQ>:
   82d1c:	b508      	push	{r3, lr}
   82d1e:	f64c 111c 	movw	r1, #51484	; 0xc91c
   82d22:	f2c0 0108 	movt	r1, #8
   82d26:	f243 13a5 	movw	r3, #12709	; 0x31a5
   82d2a:	f2c0 0308 	movt	r3, #8
   82d2e:	4798      	blx	r3
   82d30:	f04f 0001 	mov.w	r0, #1
   82d34:	bd08      	pop	{r3, pc}
   82d36:	bf00      	nop

00082d38 <SCPI_SystemErrorNextQ>:
   82d38:	b538      	push	{r3, r4, r5, lr}
   82d3a:	4604      	mov	r4, r0
   82d3c:	f242 6309 	movw	r3, #9737	; 0x2609
   82d40:	f2c0 0308 	movt	r3, #8
   82d44:	4798      	blx	r3
   82d46:	4605      	mov	r5, r0
   82d48:	4620      	mov	r0, r4
   82d4a:	4629      	mov	r1, r5
   82d4c:	f243 12e5 	movw	r2, #12773	; 0x31e5
   82d50:	f2c0 0208 	movt	r2, #8
   82d54:	4790      	blx	r2
   82d56:	4628      	mov	r0, r5
   82d58:	f242 717d 	movw	r1, #10109	; 0x277d
   82d5c:	f2c0 0108 	movt	r1, #8
   82d60:	4788      	blx	r1
   82d62:	4601      	mov	r1, r0
   82d64:	4620      	mov	r0, r4
   82d66:	f243 232d 	movw	r3, #12845	; 0x322d
   82d6a:	f2c0 0308 	movt	r3, #8
   82d6e:	4798      	blx	r3
   82d70:	f04f 0001 	mov.w	r0, #1
   82d74:	bd38      	pop	{r3, r4, r5, pc}
   82d76:	bf00      	nop

00082d78 <SCPI_SystemErrorCountQ>:
   82d78:	b510      	push	{r4, lr}
   82d7a:	4604      	mov	r4, r0
   82d7c:	f242 632d 	movw	r3, #9773	; 0x262d
   82d80:	f2c0 0308 	movt	r3, #8
   82d84:	4798      	blx	r3
   82d86:	4601      	mov	r1, r0
   82d88:	4620      	mov	r0, r4
   82d8a:	f243 12e5 	movw	r2, #12773	; 0x31e5
   82d8e:	f2c0 0208 	movt	r2, #8
   82d92:	4790      	blx	r2
   82d94:	f04f 0001 	mov.w	r0, #1
   82d98:	bd10      	pop	{r4, pc}
   82d9a:	bf00      	nop

00082d9c <SCPI_StatusQuestionableEventQ>:
   82d9c:	b510      	push	{r4, lr}
   82d9e:	4604      	mov	r4, r0
   82da0:	f04f 0106 	mov.w	r1, #6
   82da4:	f642 03e9 	movw	r3, #10473	; 0x28e9
   82da8:	f2c0 0308 	movt	r3, #8
   82dac:	4798      	blx	r3
   82dae:	4601      	mov	r1, r0
   82db0:	4620      	mov	r0, r4
   82db2:	f243 12e5 	movw	r2, #12773	; 0x31e5
   82db6:	f2c0 0208 	movt	r2, #8
   82dba:	4790      	blx	r2
   82dbc:	4620      	mov	r0, r4
   82dbe:	f04f 0106 	mov.w	r1, #6
   82dc2:	f04f 0200 	mov.w	r2, #0
   82dc6:	f642 1361 	movw	r3, #10593	; 0x2961
   82dca:	f2c0 0308 	movt	r3, #8
   82dce:	4798      	blx	r3
   82dd0:	f04f 0001 	mov.w	r0, #1
   82dd4:	bd10      	pop	{r4, pc}
   82dd6:	bf00      	nop

00082dd8 <SCPI_StatusQuestionableEnableQ>:
   82dd8:	b510      	push	{r4, lr}
   82dda:	4604      	mov	r4, r0
   82ddc:	f04f 0107 	mov.w	r1, #7
   82de0:	f642 03e9 	movw	r3, #10473	; 0x28e9
   82de4:	f2c0 0308 	movt	r3, #8
   82de8:	4798      	blx	r3
   82dea:	4601      	mov	r1, r0
   82dec:	4620      	mov	r0, r4
   82dee:	f243 12e5 	movw	r2, #12773	; 0x31e5
   82df2:	f2c0 0208 	movt	r2, #8
   82df6:	4790      	blx	r2
   82df8:	f04f 0001 	mov.w	r0, #1
   82dfc:	bd10      	pop	{r4, pc}
   82dfe:	bf00      	nop

00082e00 <SCPI_StatusQuestionableEnable>:
   82e00:	b510      	push	{r4, lr}
   82e02:	b082      	sub	sp, #8
   82e04:	4604      	mov	r4, r0
   82e06:	a901      	add	r1, sp, #4
   82e08:	f04f 0201 	mov.w	r2, #1
   82e0c:	f243 23fd 	movw	r3, #13053	; 0x32fd
   82e10:	f2c0 0308 	movt	r3, #8
   82e14:	4798      	blx	r3
   82e16:	b148      	cbz	r0, 82e2c <SCPI_StatusQuestionableEnable+0x2c>
   82e18:	4620      	mov	r0, r4
   82e1a:	f04f 0107 	mov.w	r1, #7
   82e1e:	f8bd 2004 	ldrh.w	r2, [sp, #4]
   82e22:	f642 1361 	movw	r3, #10593	; 0x2961
   82e26:	f2c0 0308 	movt	r3, #8
   82e2a:	4798      	blx	r3
   82e2c:	f04f 0001 	mov.w	r0, #1
   82e30:	b002      	add	sp, #8
   82e32:	bd10      	pop	{r4, pc}

00082e34 <SCPI_StatusPreset>:
   82e34:	b508      	push	{r3, lr}
   82e36:	f04f 0106 	mov.w	r1, #6
   82e3a:	f04f 0200 	mov.w	r2, #0
   82e3e:	f642 1361 	movw	r3, #10593	; 0x2961
   82e42:	f2c0 0308 	movt	r3, #8
   82e46:	4798      	blx	r3
   82e48:	f04f 0001 	mov.w	r0, #1
   82e4c:	bd08      	pop	{r3, pc}
   82e4e:	bf00      	nop

00082e50 <writeData>:
 * @param context
 * @param data
 * @param len - lenght of data to be written
 * @return number of bytes written
 */
static size_t writeData(scpi_t * context, const char * data, size_t len) {
   82e50:	b508      	push	{r3, lr}
    return context->interface->write(context, data, len);
   82e52:	69c3      	ldr	r3, [r0, #28]
   82e54:	685b      	ldr	r3, [r3, #4]
   82e56:	4798      	blx	r3
}
   82e58:	bd08      	pop	{r3, pc}
   82e5a:	bf00      	nop

00082e5c <writeDelimiter>:
/**
 * Write result delimiter to output
 * @param context
 * @return number of bytes written
 */
static size_t writeDelimiter(scpi_t * context) {
   82e5c:	b508      	push	{r3, lr}
    if (context->output_count > 0) {
   82e5e:	6a03      	ldr	r3, [r0, #32]
   82e60:	2b00      	cmp	r3, #0
   82e62:	dd0b      	ble.n	82e7c <writeDelimiter+0x20>
        return writeData(context, ", ", 2);
   82e64:	f64c 1124 	movw	r1, #51492	; 0xc924
   82e68:	f2c0 0108 	movt	r1, #8
   82e6c:	f04f 0202 	mov.w	r2, #2
   82e70:	f642 6351 	movw	r3, #11857	; 0x2e51
   82e74:	f2c0 0308 	movt	r3, #8
   82e78:	4798      	blx	r3
   82e7a:	bd08      	pop	{r3, pc}
    } else {
        return 0;
   82e7c:	f04f 0000 	mov.w	r0, #0
    }
}
   82e80:	bd08      	pop	{r3, pc}
   82e82:	bf00      	nop

00082e84 <paramSkipBytes>:
 * Skip num bytes from the begginig of parameters
 * @param context
 * @param num
 */
void paramSkipBytes(scpi_t * context, size_t num) {
    if (context->paramlist.length < num) {
   82e84:	6983      	ldr	r3, [r0, #24]
   82e86:	4299      	cmp	r1, r3
   82e88:	bf28      	it	cs
   82e8a:	4619      	movcs	r1, r3
        num = context->paramlist.length;
    }
    context->paramlist.parameters += num;
   82e8c:	6942      	ldr	r2, [r0, #20]
   82e8e:	1852      	adds	r2, r2, r1
   82e90:	6142      	str	r2, [r0, #20]
    context->paramlist.length -= num;
   82e92:	1a59      	subs	r1, r3, r1
   82e94:	6181      	str	r1, [r0, #24]
   82e96:	4770      	bx	lr

00082e98 <paramSkipWhitespace>:

/**
 * Skip white spaces from the beggining of parameters
 * @param context
 */
void paramSkipWhitespace(scpi_t * context) {
   82e98:	b510      	push	{r4, lr}
   82e9a:	4604      	mov	r4, r0
    size_t ws = skipWhitespace(context->paramlist.parameters, context->paramlist.length);
   82e9c:	6940      	ldr	r0, [r0, #20]
   82e9e:	69a1      	ldr	r1, [r4, #24]
   82ea0:	f243 63e5 	movw	r3, #14053	; 0x36e5
   82ea4:	f2c0 0308 	movt	r3, #8
   82ea8:	4798      	blx	r3
   82eaa:	4601      	mov	r1, r0
    paramSkipBytes(context, ws);
   82eac:	4620      	mov	r0, r4
   82eae:	f642 6285 	movw	r2, #11909	; 0x2e85
   82eb2:	f2c0 0208 	movt	r2, #8
   82eb6:	4790      	blx	r2
   82eb8:	bd10      	pop	{r4, pc}
   82eba:	bf00      	nop

00082ebc <paramNext>:
 * Find next parameter
 * @param context
 * @param mandatory
 * @return 
 */
bool_t paramNext(scpi_t * context, bool_t mandatory) {
   82ebc:	b538      	push	{r3, r4, r5, lr}
   82ebe:	4604      	mov	r4, r0
   82ec0:	460d      	mov	r5, r1
    paramSkipWhitespace(context);
   82ec2:	f642 6399 	movw	r3, #11929	; 0x2e99
   82ec6:	f2c0 0308 	movt	r3, #8
   82eca:	4798      	blx	r3
    if (context->paramlist.length == 0) {
   82ecc:	69a0      	ldr	r0, [r4, #24]
   82ece:	b960      	cbnz	r0, 82eea <paramNext+0x2e>
        if (mandatory) {
   82ed0:	2d00      	cmp	r5, #0
   82ed2:	d031      	beq.n	82f38 <paramNext+0x7c>
            SCPI_ErrorPush(context, SCPI_ERROR_MISSING_PARAMETER);
   82ed4:	4620      	mov	r0, r4
   82ed6:	f06f 016c 	mvn.w	r1, #108	; 0x6c
   82eda:	f242 6251 	movw	r2, #9809	; 0x2651
   82ede:	f2c0 0208 	movt	r2, #8
   82ee2:	4790      	blx	r2
        }
        return FALSE;
   82ee4:	f04f 0000 	mov.w	r0, #0
   82ee8:	bd38      	pop	{r3, r4, r5, pc}
    }
    if (context->input_count != 0) {
   82eea:	6a61      	ldr	r1, [r4, #36]	; 0x24
   82eec:	b1e9      	cbz	r1, 82f2a <paramNext+0x6e>
        if (context->paramlist.parameters[0] == ',') {
   82eee:	6962      	ldr	r2, [r4, #20]
   82ef0:	7813      	ldrb	r3, [r2, #0]
   82ef2:	2b2c      	cmp	r3, #44	; 0x2c
   82ef4:	d10e      	bne.n	82f14 <paramNext+0x58>
            paramSkipBytes(context, 1);
   82ef6:	4620      	mov	r0, r4
   82ef8:	f04f 0101 	mov.w	r1, #1
   82efc:	f642 6385 	movw	r3, #11909	; 0x2e85
   82f00:	f2c0 0308 	movt	r3, #8
   82f04:	4798      	blx	r3
            paramSkipWhitespace(context);
   82f06:	4620      	mov	r0, r4
   82f08:	f642 6199 	movw	r1, #11929	; 0x2e99
   82f0c:	f2c0 0108 	movt	r1, #8
   82f10:	4788      	blx	r1
   82f12:	e00a      	b.n	82f2a <paramNext+0x6e>
        } else {
            SCPI_ErrorPush(context, SCPI_ERROR_INVALID_SEPARATOR);
   82f14:	4620      	mov	r0, r4
   82f16:	f06f 0166 	mvn.w	r1, #102	; 0x66
   82f1a:	f242 6251 	movw	r2, #9809	; 0x2651
   82f1e:	f2c0 0208 	movt	r2, #8
   82f22:	4790      	blx	r2
            return FALSE;
   82f24:	f04f 0000 	mov.w	r0, #0
   82f28:	bd38      	pop	{r3, r4, r5, pc}
        }
    }
    context->input_count++;
   82f2a:	6a60      	ldr	r0, [r4, #36]	; 0x24
   82f2c:	f100 0001 	add.w	r0, r0, #1
   82f30:	6260      	str	r0, [r4, #36]	; 0x24
    return TRUE;
   82f32:	f04f 0001 	mov.w	r0, #1
   82f36:	bd38      	pop	{r3, r4, r5, pc}
    paramSkipWhitespace(context);
    if (context->paramlist.length == 0) {
        if (mandatory) {
            SCPI_ErrorPush(context, SCPI_ERROR_MISSING_PARAMETER);
        }
        return FALSE;
   82f38:	f04f 0000 	mov.w	r0, #0
            return FALSE;
        }
    }
    context->input_count++;
    return TRUE;
}
   82f3c:	bd38      	pop	{r3, r4, r5, pc}
   82f3e:	bf00      	nop

00082f40 <cmdlineSeparator>:
 * Find command line separator
 * @param cmd - input command
 * @param len - max search length
 * @return pointer to line separator or NULL
 */
const char * cmdlineSeparator(const char * cmd, size_t len) {
   82f40:	b508      	push	{r3, lr}
    return strnpbrk(cmd, len, ";\r\n");
   82f42:	f64c 1228 	movw	r2, #51496	; 0xc928
   82f46:	f2c0 0208 	movt	r2, #8
   82f4a:	f243 3375 	movw	r3, #13173	; 0x3375
   82f4e:	f2c0 0308 	movt	r3, #8
   82f52:	4798      	blx	r3
}
   82f54:	bd08      	pop	{r3, pc}
   82f56:	bf00      	nop

00082f58 <SCPI_Parse>:
 * @param context
 * @param data - complete command line
 * @param len - command line length
 * @return 1 if the last evaluated command was found
 */
int SCPI_Parse(scpi_t * context, const char * data, size_t len) {
   82f58:	e92d 4ff0 	stmdb	sp!, {r4, r5, r6, r7, r8, r9, sl, fp, lr}
   82f5c:	b083      	sub	sp, #12
    int result = 0;
    const char * cmdline_end = data + len;
   82f5e:	eb01 0b02 	add.w	fp, r1, r2
    const char * cmdline_ptr = data;
    size_t cmd_len;
    size_t cmdline_len;

    if (context == NULL) {
   82f62:	4607      	mov	r7, r0
   82f64:	2800      	cmp	r0, #0
   82f66:	f000 809e 	beq.w	830a6 <SCPI_Parse+0x14e>
        return -1;
    }

	
    while (cmdline_ptr < cmdline_end) {
   82f6a:	4559      	cmp	r1, fp
   82f6c:	f080 809e 	bcs.w	830ac <SCPI_Parse+0x154>
   82f70:	460d      	mov	r5, r1
        if (cmd_len > 0) {
            if(findCommand(context, cmdline_ptr, cmdline_len, cmd_len)) {
                processCommand(context);
                result = 1;
            } else {
                SCPI_ErrorPush(context, SCPI_ERROR_UNDEFINED_HEADER);
   82f72:	f242 6351 	movw	r3, #9809	; 0x2651
   82f76:	f2c0 0308 	movt	r3, #8
   82f7a:	9301      	str	r3, [sp, #4]
    }

	
    while (cmdline_ptr < cmdline_end) {
        result = 0;
        cmd_len = cmdTerminatorPos(cmdline_ptr, cmdline_end - cmdline_ptr);
   82f7c:	462c      	mov	r4, r5
   82f7e:	ebc5 080b 	rsb	r8, r5, fp
 * @param cmd - input command
 * @param len - max search length
 * @return position of terminator or len
 */
size_t cmdTerminatorPos(const char * cmd, size_t len) {
    const char * terminator = strnpbrk(cmd, len, "; \r\n\t");
   82f82:	4628      	mov	r0, r5
   82f84:	4641      	mov	r1, r8
   82f86:	4a51      	ldr	r2, [pc, #324]	; (830cc <SCPI_Parse+0x174>)
   82f88:	f243 3675 	movw	r6, #13173	; 0x3375
   82f8c:	f2c0 0608 	movt	r6, #8
   82f90:	47b0      	blx	r6
    if (terminator == NULL) {
   82f92:	b108      	cbz	r0, 82f98 <SCPI_Parse+0x40>
        return len;
    } else {
        return terminator - cmd;
   82f94:	1b46      	subs	r6, r0, r5
   82f96:	e000      	b.n	82f9a <SCPI_Parse+0x42>
 * @return position of terminator or len
 */
size_t cmdTerminatorPos(const char * cmd, size_t len) {
    const char * terminator = strnpbrk(cmd, len, "; \r\n\t");
    if (terminator == NULL) {
        return len;
   82f98:	4646      	mov	r6, r8
 * @param cmd - input command
 * @param len - max search length
 * @return position of line separator or len
 */
size_t cmdlineSeparatorPos(const char * cmd, size_t len) {
    const char * separator = cmdlineSeparator(cmd, len);
   82f9a:	4628      	mov	r0, r5
   82f9c:	4641      	mov	r1, r8
   82f9e:	f642 7241 	movw	r2, #12097	; 0x2f41
   82fa2:	f2c0 0208 	movt	r2, #8
   82fa6:	4790      	blx	r2
    if (separator == NULL) {
   82fa8:	b110      	cbz	r0, 82fb0 <SCPI_Parse+0x58>
        return len;
    } else {
        return separator - cmd;
   82faa:	1b00      	subs	r0, r0, r4
   82fac:	9000      	str	r0, [sp, #0]
   82fae:	e001      	b.n	82fb4 <SCPI_Parse+0x5c>
 * @return position of line separator or len
 */
size_t cmdlineSeparatorPos(const char * cmd, size_t len) {
    const char * separator = cmdlineSeparator(cmd, len);
    if (separator == NULL) {
        return len;
   82fb0:	f8cd 8000 	str.w	r8, [sp]
	
    while (cmdline_ptr < cmdline_end) {
        result = 0;
        cmd_len = cmdTerminatorPos(cmdline_ptr, cmdline_end - cmdline_ptr);
        cmdline_len = cmdlineSeparatorPos(cmdline_ptr, cmdline_end - cmdline_ptr);
        if (cmd_len > 0) {
   82fb4:	2e00      	cmp	r6, #0
   82fb6:	d05f      	beq.n	83078 <SCPI_Parse+0x120>
 */
static bool_t findCommand(scpi_t * context, const char * cmdline_ptr, size_t cmdline_len, size_t cmd_len) {
    int32_t i;
    const scpi_command_t * cmd;

    for (i = 0; context->cmdlist[i].pattern != NULL; i++) {
   82fb8:	f8d7 9000 	ldr.w	r9, [r7]
   82fbc:	f8d9 0000 	ldr.w	r0, [r9]
   82fc0:	2800      	cmp	r0, #0
   82fc2:	d076      	beq.n	830b2 <SCPI_Parse+0x15a>
   82fc4:	f04f 0408 	mov.w	r4, #8
        cmd = &context->cmdlist[i];
        if (matchCommand(cmd->pattern, cmdline_ptr, cmd_len)) {
   82fc8:	f643 0a39 	movw	sl, #14393	; 0x3839
   82fcc:	f2c0 0a08 	movt	sl, #8
   82fd0:	4629      	mov	r1, r5
   82fd2:	4632      	mov	r2, r6
   82fd4:	47d0      	blx	sl
   82fd6:	b190      	cbz	r0, 82ffe <SCPI_Parse+0xa6>
            context->paramlist.cmd = cmd;
   82fd8:	f8c7 9010 	str.w	r9, [r7, #16]
            context->paramlist.parameters = cmdline_ptr + cmd_len;
   82fdc:	19ab      	adds	r3, r5, r6
   82fde:	617b      	str	r3, [r7, #20]
            context->paramlist.length = cmdline_len - cmd_len;
   82fe0:	9800      	ldr	r0, [sp, #0]
   82fe2:	1b86      	subs	r6, r0, r6
   82fe4:	61be      	str	r6, [r7, #24]
 * @param context
 */
static void processCommand(scpi_t * context) {
    const scpi_command_t * cmd = context->paramlist.cmd;

    context->cmd_error = FALSE;
   82fe6:	f04f 0400 	mov.w	r4, #0
   82fea:	f887 4028 	strb.w	r4, [r7, #40]	; 0x28
    context->output_count = 0;
   82fee:	f04f 0100 	mov.w	r1, #0
   82ff2:	6239      	str	r1, [r7, #32]
    context->input_count = 0;
   82ff4:	6279      	str	r1, [r7, #36]	; 0x24

    SCPI_DEBUG_COMMAND(context);
    /* if callback exists - call command callback */
    if (cmd->callback != NULL) {
   82ff6:	f8d9 2004 	ldr.w	r2, [r9, #4]
   82ffa:	b94a      	cbnz	r2, 83010 <SCPI_Parse+0xb8>
   82ffc:	e014      	b.n	83028 <SCPI_Parse+0xd0>
 */
static bool_t findCommand(scpi_t * context, const char * cmdline_ptr, size_t cmdline_len, size_t cmd_len) {
    int32_t i;
    const scpi_command_t * cmd;

    for (i = 0; context->cmdlist[i].pattern != NULL; i++) {
   82ffe:	6839      	ldr	r1, [r7, #0]
   83000:	eb01 0904 	add.w	r9, r1, r4
   83004:	5908      	ldr	r0, [r1, r4]
   83006:	f104 0408 	add.w	r4, r4, #8
   8300a:	2800      	cmp	r0, #0
   8300c:	d1e0      	bne.n	82fd0 <SCPI_Parse+0x78>
   8300e:	e050      	b.n	830b2 <SCPI_Parse+0x15a>
    context->input_count = 0;

    SCPI_DEBUG_COMMAND(context);
    /* if callback exists - call command callback */
    if (cmd->callback != NULL) {
        if ((cmd->callback(context) != SCPI_RES_OK) && !context->cmd_error) {
   83010:	4638      	mov	r0, r7
   83012:	4790      	blx	r2
   83014:	2801      	cmp	r0, #1
   83016:	d007      	beq.n	83028 <SCPI_Parse+0xd0>
   83018:	f897 3028 	ldrb.w	r3, [r7, #40]	; 0x28
   8301c:	b923      	cbnz	r3, 83028 <SCPI_Parse+0xd0>
            SCPI_ErrorPush(context, SCPI_ERROR_EXECUTION_ERROR);
   8301e:	4638      	mov	r0, r7
   83020:	f06f 01c7 	mvn.w	r1, #199	; 0xc7
   83024:	9c01      	ldr	r4, [sp, #4]
   83026:	47a0      	blx	r4
 * Conditionaly write "New Line"
 * @param context
 * @return number of characters written
 */
static size_t writeNewLine(scpi_t * context) {
    if (context->output_count > 0) {
   83028:	6a38      	ldr	r0, [r7, #32]
   8302a:	2800      	cmp	r0, #0
   8302c:	dd11      	ble.n	83052 <SCPI_Parse+0xfa>
        size_t len;
        len = writeData(context, "\r\n", 2);
   8302e:	4638      	mov	r0, r7
   83030:	f64c 4130 	movw	r1, #52272	; 0xcc30
   83034:	f2c0 0108 	movt	r1, #8
   83038:	f04f 0202 	mov.w	r2, #2
   8303c:	f642 6351 	movw	r3, #11857	; 0x2e51
   83040:	f2c0 0308 	movt	r3, #8
   83044:	4798      	blx	r3
 * Flush data to SCPI output
 * @param context
 * @return
 */
static int flushData(scpi_t * context) {
    if (context && context->interface && context->interface->flush) {
   83046:	69f9      	ldr	r1, [r7, #28]
   83048:	b119      	cbz	r1, 83052 <SCPI_Parse+0xfa>
   8304a:	68ca      	ldr	r2, [r1, #12]
   8304c:	b10a      	cbz	r2, 83052 <SCPI_Parse+0xfa>
        return context->interface->flush(context);
   8304e:	4638      	mov	r0, r7
   83050:	4790      	blx	r2

    /* conditionaly write new line */
    writeNewLine(context);

    /* skip all whitespaces */
    paramSkipWhitespace(context);
   83052:	4638      	mov	r0, r7
   83054:	f642 6499 	movw	r4, #11929	; 0x2e99
   83058:	f2c0 0408 	movt	r4, #8
   8305c:	47a0      	blx	r4

    /* set error if command callback did not read all parameters */
    if (context->paramlist.length != 0 && !context->cmd_error) {
   8305e:	69b8      	ldr	r0, [r7, #24]
   83060:	b168      	cbz	r0, 8307e <SCPI_Parse+0x126>
   83062:	f897 3028 	ldrb.w	r3, [r7, #40]	; 0x28
   83066:	b96b      	cbnz	r3, 83084 <SCPI_Parse+0x12c>
        SCPI_ErrorPush(context, SCPI_ERROR_PARAMETER_NOT_ALLOWED);
   83068:	4638      	mov	r0, r7
   8306a:	f06f 016b 	mvn.w	r1, #107	; 0x6b
   8306e:	9a01      	ldr	r2, [sp, #4]
   83070:	4790      	blx	r2
        cmd_len = cmdTerminatorPos(cmdline_ptr, cmdline_end - cmdline_ptr);
        cmdline_len = cmdlineSeparatorPos(cmdline_ptr, cmdline_end - cmdline_ptr);
        if (cmd_len > 0) {
            if(findCommand(context, cmdline_ptr, cmdline_len, cmd_len)) {
                processCommand(context);
                result = 1;
   83072:	f04f 0401 	mov.w	r4, #1
   83076:	e007      	b.n	83088 <SCPI_Parse+0x130>
        return -1;
    }

	
    while (cmdline_ptr < cmdline_end) {
        result = 0;
   83078:	f04f 0400 	mov.w	r4, #0
   8307c:	e004      	b.n	83088 <SCPI_Parse+0x130>
        cmd_len = cmdTerminatorPos(cmdline_ptr, cmdline_end - cmdline_ptr);
        cmdline_len = cmdlineSeparatorPos(cmdline_ptr, cmdline_end - cmdline_ptr);
        if (cmd_len > 0) {
            if(findCommand(context, cmdline_ptr, cmdline_len, cmd_len)) {
                processCommand(context);
                result = 1;
   8307e:	f04f 0401 	mov.w	r4, #1
   83082:	e001      	b.n	83088 <SCPI_Parse+0x130>
   83084:	f04f 0401 	mov.w	r4, #1
 * @param cmd - input command
 * @param len - max search length
 * @return Pointer to next part of command
 */
const char * cmdlineNext(const char * cmd, size_t len) {
    const char * separator = cmdlineSeparator(cmd, len);
   83088:	4628      	mov	r0, r5
   8308a:	4641      	mov	r1, r8
   8308c:	f642 7341 	movw	r3, #12097	; 0x2f41
   83090:	f2c0 0308 	movt	r3, #8
   83094:	4798      	blx	r3
    if (separator == NULL) {
        return cmd + len;
   83096:	4445      	add	r5, r8
 * @param len - max search length
 * @return Pointer to next part of command
 */
const char * cmdlineNext(const char * cmd, size_t len) {
    const char * separator = cmdlineSeparator(cmd, len);
    if (separator == NULL) {
   83098:	b108      	cbz	r0, 8309e <SCPI_Parse+0x146>
        return cmd + len;
    } else {
        return separator + 1;
   8309a:	f100 0501 	add.w	r5, r0, #1
    if (context == NULL) {
        return -1;
    }

	
    while (cmdline_ptr < cmdline_end) {
   8309e:	45ab      	cmp	fp, r5
   830a0:	f63f af6c 	bhi.w	82f7c <SCPI_Parse+0x24>
   830a4:	e00d      	b.n	830c2 <SCPI_Parse+0x16a>
    const char * cmdline_ptr = data;
    size_t cmd_len;
    size_t cmdline_len;

    if (context == NULL) {
        return -1;
   830a6:	f04f 34ff 	mov.w	r4, #4294967295
   830aa:	e00a      	b.n	830c2 <SCPI_Parse+0x16a>
    }

	
    while (cmdline_ptr < cmdline_end) {
   830ac:	f04f 0400 	mov.w	r4, #0
   830b0:	e007      	b.n	830c2 <SCPI_Parse+0x16a>
        if (cmd_len > 0) {
            if(findCommand(context, cmdline_ptr, cmdline_len, cmd_len)) {
                processCommand(context);
                result = 1;
            } else {
                SCPI_ErrorPush(context, SCPI_ERROR_UNDEFINED_HEADER);
   830b2:	4638      	mov	r0, r7
   830b4:	f06f 0170 	mvn.w	r1, #112	; 0x70
   830b8:	9a01      	ldr	r2, [sp, #4]
   830ba:	4790      	blx	r2
        return -1;
    }

	
    while (cmdline_ptr < cmdline_end) {
        result = 0;
   830bc:	f04f 0400 	mov.w	r4, #0
   830c0:	e7e2      	b.n	83088 <SCPI_Parse+0x130>
            }
        }
        cmdline_ptr = cmdlineNext(cmdline_ptr, cmdline_end - cmdline_ptr);
    }
    return result;
}
   830c2:	4620      	mov	r0, r4
   830c4:	b003      	add	sp, #12
   830c6:	e8bd 8ff0 	ldmia.w	sp!, {r4, r5, r6, r7, r8, r9, sl, fp, pc}
   830ca:	bf00      	nop
   830cc:	0008c92c 	.word	0x0008c92c

000830d0 <SCPI_Init>:
 * @param context
 * @param command_list
 * @param buffer
 * @param interface
 */
void SCPI_Init(scpi_t * context) {
   830d0:	b508      	push	{r3, lr}
    context->buffer.position = 0;
   830d2:	f04f 0200 	mov.w	r2, #0
   830d6:	6082      	str	r2, [r0, #8]
    SCPI_ErrorInit(context);
   830d8:	f242 51dd 	movw	r1, #9693	; 0x25dd
   830dc:	f2c0 0108 	movt	r1, #8
   830e0:	4788      	blx	r1
   830e2:	bd08      	pop	{r3, pc}

000830e4 <SCPI_Input>:
 * @param context
 * @param data - data to process
 * @param len - length of data
 * @return 
 */
int SCPI_Input(scpi_t * context, const char * data, size_t len) {
   830e4:	b5f8      	push	{r3, r4, r5, r6, r7, lr}
   830e6:	4604      	mov	r4, r0
    int result = 0;
    const char * cmd_term;
	if (len == 0) {
   830e8:	4615      	mov	r5, r2
   830ea:	b972      	cbnz	r2, 8310a <SCPI_Input+0x26>
        context->buffer.data[context->buffer.position] = 0;
   830ec:	68c1      	ldr	r1, [r0, #12]
   830ee:	6882      	ldr	r2, [r0, #8]
   830f0:	f04f 0600 	mov.w	r6, #0
   830f4:	548e      	strb	r6, [r1, r2]
        result = SCPI_Parse(context, context->buffer.data, context->buffer.position);
   830f6:	68e1      	ldr	r1, [r4, #12]
   830f8:	68a2      	ldr	r2, [r4, #8]
   830fa:	f642 7559 	movw	r5, #12121	; 0x2f59
   830fe:	f2c0 0508 	movt	r5, #8
   83102:	47a8      	blx	r5
   83104:	4605      	mov	r5, r0
        context->buffer.position = 0;
   83106:	60a6      	str	r6, [r4, #8]
   83108:	e049      	b.n	8319e <SCPI_Input+0xba>
    } else {
        size_t buffer_free;
        int ws;
        buffer_free = context->buffer.length - context->buffer.position;
   8310a:	6883      	ldr	r3, [r0, #8]
   8310c:	6842      	ldr	r2, [r0, #4]
   8310e:	f102 30ff 	add.w	r0, r2, #4294967295
        if (len > (buffer_free - 1)) {
   83112:	1ac2      	subs	r2, r0, r3
   83114:	4295      	cmp	r5, r2
   83116:	d83d      	bhi.n	83194 <SCPI_Input+0xb0>
            return -1;
        }
        memcpy(&context->buffer.data[context->buffer.position], data, len);
   83118:	68e7      	ldr	r7, [r4, #12]
   8311a:	18f8      	adds	r0, r7, r3
   8311c:	462a      	mov	r2, r5
   8311e:	f649 7321 	movw	r3, #40737	; 0x9f21
   83122:	f2c0 0308 	movt	r3, #8
   83126:	4798      	blx	r3
        context->buffer.position += len;
   83128:	68a1      	ldr	r1, [r4, #8]
   8312a:	186d      	adds	r5, r5, r1
   8312c:	60a5      	str	r5, [r4, #8]
        context->buffer.data[context->buffer.position] = 0;
   8312e:	68e0      	ldr	r0, [r4, #12]
   83130:	f04f 0200 	mov.w	r2, #0
   83134:	5542      	strb	r2, [r0, r5]

        ws = skipWhitespace(context->buffer.data, context->buffer.position);
   83136:	68e0      	ldr	r0, [r4, #12]
   83138:	68a1      	ldr	r1, [r4, #8]
   8313a:	f243 67e5 	movw	r7, #14053	; 0x36e5
   8313e:	f2c0 0708 	movt	r7, #8
   83142:	47b8      	blx	r7
   83144:	4605      	mov	r5, r0
        cmd_term = cmdlineTerminator(context->buffer.data + ws, context->buffer.position - ws);
   83146:	68e3      	ldr	r3, [r4, #12]
   83148:	68a1      	ldr	r1, [r4, #8]
 * @param cmd - input command
 * @param len - max search length
 * @return pointer to command line terminator or NULL
 */
const char * cmdlineTerminator(const char * cmd, size_t len) {
    return strnpbrk(cmd, len, "\r\n");
   8314a:	1818      	adds	r0, r3, r0
   8314c:	1b49      	subs	r1, r1, r5
   8314e:	f64c 4230 	movw	r2, #52272	; 0xcc30
   83152:	f2c0 0208 	movt	r2, #8
   83156:	f243 3775 	movw	r7, #13173	; 0x3375
   8315a:	f2c0 0708 	movt	r7, #8
   8315e:	47b8      	blx	r7
        context->buffer.position += len;
        context->buffer.data[context->buffer.position] = 0;

        ws = skipWhitespace(context->buffer.data, context->buffer.position);
        cmd_term = cmdlineTerminator(context->buffer.data + ws, context->buffer.position - ws);
        if (cmd_term != NULL) {
   83160:	4607      	mov	r7, r0
   83162:	b1d0      	cbz	r0, 8319a <SCPI_Input+0xb6>
            int curr_len = cmd_term - context->buffer.data;
   83164:	68e2      	ldr	r2, [r4, #12]
   83166:	1a86      	subs	r6, r0, r2
            result = SCPI_Parse(context, context->buffer.data + ws, curr_len - ws);
   83168:	4620      	mov	r0, r4
   8316a:	1951      	adds	r1, r2, r5
   8316c:	1b72      	subs	r2, r6, r5
   8316e:	f642 7559 	movw	r5, #12121	; 0x2f59
   83172:	f2c0 0508 	movt	r5, #8
   83176:	47a8      	blx	r5
   83178:	4605      	mov	r5, r0
            memmove(context->buffer.data, cmd_term, context->buffer.position - curr_len);
   8317a:	68a3      	ldr	r3, [r4, #8]
   8317c:	68e0      	ldr	r0, [r4, #12]
   8317e:	4639      	mov	r1, r7
   83180:	1b9a      	subs	r2, r3, r6
   83182:	f649 7333 	movw	r3, #40755	; 0x9f33
   83186:	f2c0 0308 	movt	r3, #8
   8318a:	4798      	blx	r3
            context->buffer.position -= curr_len;
   8318c:	68a0      	ldr	r0, [r4, #8]
   8318e:	1b86      	subs	r6, r0, r6
   83190:	60a6      	str	r6, [r4, #8]
   83192:	e004      	b.n	8319e <SCPI_Input+0xba>
    } else {
        size_t buffer_free;
        int ws;
        buffer_free = context->buffer.length - context->buffer.position;
        if (len > (buffer_free - 1)) {
            return -1;
   83194:	f04f 35ff 	mov.w	r5, #4294967295
   83198:	e001      	b.n	8319e <SCPI_Input+0xba>
 * @param data - data to process
 * @param len - length of data
 * @return 
 */
int SCPI_Input(scpi_t * context, const char * data, size_t len) {
    int result = 0;
   8319a:	f04f 0500 	mov.w	r5, #0
            context->buffer.position -= curr_len;
        }
    }

    return result;
}
   8319e:	4628      	mov	r0, r5
   831a0:	bdf8      	pop	{r3, r4, r5, r6, r7, pc}
   831a2:	bf00      	nop

000831a4 <SCPI_ResultString>:
 * Write raw string result to the output
 * @param context
 * @param data
 * @return 
 */
size_t SCPI_ResultString(scpi_t * context, const char * data) {
   831a4:	b5f8      	push	{r3, r4, r5, r6, r7, lr}
   831a6:	4604      	mov	r4, r0
   831a8:	460d      	mov	r5, r1
    size_t len = strlen(data);
   831aa:	4608      	mov	r0, r1
   831ac:	f24a 032d 	movw	r3, #41005	; 0xa02d
   831b0:	f2c0 0308 	movt	r3, #8
   831b4:	4798      	blx	r3
   831b6:	4607      	mov	r7, r0
    size_t result = 0;
    result += writeDelimiter(context);
   831b8:	4620      	mov	r0, r4
   831ba:	f642 615d 	movw	r1, #11869	; 0x2e5d
   831be:	f2c0 0108 	movt	r1, #8
   831c2:	4788      	blx	r1
   831c4:	4606      	mov	r6, r0
    result += writeData(context, data, len);
   831c6:	4620      	mov	r0, r4
   831c8:	4629      	mov	r1, r5
   831ca:	463a      	mov	r2, r7
   831cc:	f642 6351 	movw	r3, #11857	; 0x2e51
   831d0:	f2c0 0308 	movt	r3, #8
   831d4:	4798      	blx	r3
    context->output_count++;
   831d6:	6a22      	ldr	r2, [r4, #32]
   831d8:	f102 0201 	add.w	r2, r2, #1
   831dc:	6222      	str	r2, [r4, #32]
    return result;
}
   831de:	1980      	adds	r0, r0, r6
   831e0:	bdf8      	pop	{r3, r4, r5, r6, r7, pc}
   831e2:	bf00      	nop

000831e4 <SCPI_ResultInt>:
 * Write integer value to the result
 * @param context
 * @param val
 * @return 
 */
size_t SCPI_ResultInt(scpi_t * context, int32_t val) {
   831e4:	b570      	push	{r4, r5, r6, lr}
   831e6:	b084      	sub	sp, #16
   831e8:	4604      	mov	r4, r0
    char buffer[12];
    size_t result = 0;
    size_t len = longToStr(val, buffer, sizeof (buffer));
   831ea:	4608      	mov	r0, r1
   831ec:	a901      	add	r1, sp, #4
   831ee:	f04f 020c 	mov.w	r2, #12
   831f2:	f243 33c1 	movw	r3, #13249	; 0x33c1
   831f6:	f2c0 0308 	movt	r3, #8
   831fa:	4798      	blx	r3
   831fc:	4606      	mov	r6, r0
    result += writeDelimiter(context);
   831fe:	4620      	mov	r0, r4
   83200:	f642 615d 	movw	r1, #11869	; 0x2e5d
   83204:	f2c0 0108 	movt	r1, #8
   83208:	4788      	blx	r1
   8320a:	4605      	mov	r5, r0
    result += writeData(context, buffer, len);
   8320c:	4620      	mov	r0, r4
   8320e:	a901      	add	r1, sp, #4
   83210:	4632      	mov	r2, r6
   83212:	f642 6351 	movw	r3, #11857	; 0x2e51
   83216:	f2c0 0308 	movt	r3, #8
   8321a:	4798      	blx	r3
    context->output_count++;
   8321c:	6a22      	ldr	r2, [r4, #32]
   8321e:	f102 0201 	add.w	r2, r2, #1
   83222:	6222      	str	r2, [r4, #32]
    return result;
}
   83224:	1940      	adds	r0, r0, r5
   83226:	b004      	add	sp, #16
   83228:	bd70      	pop	{r4, r5, r6, pc}
   8322a:	bf00      	nop

0008322c <SCPI_ResultText>:
 * Write string withn " to the result
 * @param context
 * @param data
 * @return 
 */
size_t SCPI_ResultText(scpi_t * context, const char * data) {
   8322c:	e92d 41f0 	stmdb	sp!, {r4, r5, r6, r7, r8, lr}
   83230:	4604      	mov	r4, r0
   83232:	460f      	mov	r7, r1
    size_t result = 0;
    result += writeDelimiter(context);
   83234:	f642 635d 	movw	r3, #11869	; 0x2e5d
   83238:	f2c0 0308 	movt	r3, #8
   8323c:	4798      	blx	r3
   8323e:	4680      	mov	r8, r0
    result += writeData(context, "\"", 1);
   83240:	f64c 4684 	movw	r6, #52356	; 0xcc84
   83244:	f2c0 0608 	movt	r6, #8
   83248:	4620      	mov	r0, r4
   8324a:	4631      	mov	r1, r6
   8324c:	f04f 0201 	mov.w	r2, #1
   83250:	f642 6551 	movw	r5, #11857	; 0x2e51
   83254:	f2c0 0508 	movt	r5, #8
   83258:	47a8      	blx	r5
   8325a:	4480      	add	r8, r0
    result += writeData(context, data, strlen(data));
   8325c:	4638      	mov	r0, r7
   8325e:	f24a 012d 	movw	r1, #41005	; 0xa02d
   83262:	f2c0 0108 	movt	r1, #8
   83266:	4788      	blx	r1
   83268:	4602      	mov	r2, r0
   8326a:	4620      	mov	r0, r4
   8326c:	4639      	mov	r1, r7
   8326e:	47a8      	blx	r5
   83270:	eb08 0700 	add.w	r7, r8, r0
    result += writeData(context, "\"", 1);
   83274:	4620      	mov	r0, r4
   83276:	4631      	mov	r1, r6
   83278:	f04f 0201 	mov.w	r2, #1
   8327c:	47a8      	blx	r5
    context->output_count++;
   8327e:	6a22      	ldr	r2, [r4, #32]
   83280:	f102 0201 	add.w	r2, r2, #1
   83284:	6222      	str	r2, [r4, #32]
    return result;
}
   83286:	1838      	adds	r0, r7, r0
   83288:	e8bd 81f0 	ldmia.w	sp!, {r4, r5, r6, r7, r8, pc}

0008328c <SCPI_ParamString>:
 * @param value
 * @param len
 * @param mandatory
 * @return 
 */
bool_t SCPI_ParamString(scpi_t * context, const char ** value, size_t * len, bool_t mandatory) {
   8328c:	b570      	push	{r4, r5, r6, lr}
   8328e:	b082      	sub	sp, #8
   83290:	4604      	mov	r4, r0
   83292:	4615      	mov	r5, r2
    size_t length;

    if (!value || !len) {
   83294:	460e      	mov	r6, r1
   83296:	b319      	cbz	r1, 832e0 <SCPI_ParamString+0x54>
   83298:	b32a      	cbz	r2, 832e6 <SCPI_ParamString+0x5a>
        return FALSE;
    }

    if (!paramNext(context, mandatory)) {
   8329a:	4619      	mov	r1, r3
   8329c:	f642 63bd 	movw	r3, #11965	; 0x2ebd
   832a0:	f2c0 0308 	movt	r3, #8
   832a4:	4798      	blx	r3
   832a6:	b308      	cbz	r0, 832ec <SCPI_ParamString+0x60>
        return FALSE;
    }

    if (locateStr(context->paramlist.parameters, context->paramlist.length, value, &length)) {
   832a8:	6960      	ldr	r0, [r4, #20]
   832aa:	69a1      	ldr	r1, [r4, #24]
   832ac:	4632      	mov	r2, r6
   832ae:	ab01      	add	r3, sp, #4
   832b0:	f243 5615 	movw	r6, #13589	; 0x3515
   832b4:	f2c0 0608 	movt	r6, #8
   832b8:	47b0      	blx	r6
   832ba:	b1d0      	cbz	r0, 832f2 <SCPI_ParamString+0x66>
        paramSkipBytes(context, length);
   832bc:	4620      	mov	r0, r4
   832be:	9901      	ldr	r1, [sp, #4]
   832c0:	f642 6285 	movw	r2, #11909	; 0x2e85
   832c4:	f2c0 0208 	movt	r2, #8
   832c8:	4790      	blx	r2
        paramSkipWhitespace(context);
   832ca:	4620      	mov	r0, r4
   832cc:	f642 6199 	movw	r1, #11929	; 0x2e99
   832d0:	f2c0 0108 	movt	r1, #8
   832d4:	4788      	blx	r1
        if (len) {
            *len = length;
   832d6:	9801      	ldr	r0, [sp, #4]
   832d8:	6028      	str	r0, [r5, #0]
        }
        return TRUE;
   832da:	f04f 0001 	mov.w	r0, #1
   832de:	e00a      	b.n	832f6 <SCPI_ParamString+0x6a>
 */
bool_t SCPI_ParamString(scpi_t * context, const char ** value, size_t * len, bool_t mandatory) {
    size_t length;

    if (!value || !len) {
        return FALSE;
   832e0:	f04f 0000 	mov.w	r0, #0
   832e4:	e007      	b.n	832f6 <SCPI_ParamString+0x6a>
   832e6:	f04f 0000 	mov.w	r0, #0
   832ea:	e004      	b.n	832f6 <SCPI_ParamString+0x6a>
    }

    if (!paramNext(context, mandatory)) {
        return FALSE;
   832ec:	f04f 0000 	mov.w	r0, #0
   832f0:	e001      	b.n	832f6 <SCPI_ParamString+0x6a>
            *len = length;
        }
        return TRUE;
    }

    return FALSE;
   832f2:	f04f 0000 	mov.w	r0, #0
}
   832f6:	b002      	add	sp, #8
   832f8:	bd70      	pop	{r4, r5, r6, pc}
   832fa:	bf00      	nop

000832fc <SCPI_ParamInt>:
 * @param context
 * @param value
 * @param mandatory
 * @return 
 */
bool_t SCPI_ParamInt(scpi_t * context, int32_t * value, bool_t mandatory) {
   832fc:	b570      	push	{r4, r5, r6, lr}
   832fe:	b082      	sub	sp, #8
   83300:	4604      	mov	r4, r0
   83302:	4613      	mov	r3, r2
    const char * param;
    size_t param_len;
    size_t num_len;

    if (!value) {
   83304:	460e      	mov	r6, r1
   83306:	b1e1      	cbz	r1, 83342 <SCPI_ParamInt+0x46>
        return FALSE;
    }

    if (!SCPI_ParamString(context, &param, &param_len, mandatory)) {
   83308:	a901      	add	r1, sp, #4
   8330a:	466a      	mov	r2, sp
   8330c:	f243 258d 	movw	r5, #12941	; 0x328d
   83310:	f2c0 0508 	movt	r5, #8
   83314:	47a8      	blx	r5
   83316:	b1b8      	cbz	r0, 83348 <SCPI_ParamInt+0x4c>
        return FALSE;
    }

    num_len = strToLong(param, value);
   83318:	9801      	ldr	r0, [sp, #4]
   8331a:	4631      	mov	r1, r6
   8331c:	f243 43c9 	movw	r3, #13513	; 0x34c9
   83320:	f2c0 0308 	movt	r3, #8
   83324:	4798      	blx	r3

    if (num_len != param_len) {
   83326:	9900      	ldr	r1, [sp, #0]
   83328:	4288      	cmp	r0, r1
   8332a:	d010      	beq.n	8334e <SCPI_ParamInt+0x52>
        SCPI_ErrorPush(context, SCPI_ERROR_SUFFIX_NOT_ALLOWED);
   8332c:	4620      	mov	r0, r4
   8332e:	f06f 0189 	mvn.w	r1, #137	; 0x89
   83332:	f242 6251 	movw	r2, #9809	; 0x2651
   83336:	f2c0 0208 	movt	r2, #8
   8333a:	4790      	blx	r2
        return FALSE;
   8333c:	f04f 0000 	mov.w	r0, #0
   83340:	e007      	b.n	83352 <SCPI_ParamInt+0x56>
    const char * param;
    size_t param_len;
    size_t num_len;

    if (!value) {
        return FALSE;
   83342:	f04f 0000 	mov.w	r0, #0
   83346:	e004      	b.n	83352 <SCPI_ParamInt+0x56>
    }

    if (!SCPI_ParamString(context, &param, &param_len, mandatory)) {
        return FALSE;
   83348:	f04f 0000 	mov.w	r0, #0
   8334c:	e001      	b.n	83352 <SCPI_ParamInt+0x56>
    if (num_len != param_len) {
        SCPI_ErrorPush(context, SCPI_ERROR_SUFFIX_NOT_ALLOWED);
        return FALSE;
    }

    return TRUE;
   8334e:	f04f 0001 	mov.w	r0, #1
}
   83352:	b002      	add	sp, #8
   83354:	bd70      	pop	{r4, r5, r6, pc}
   83356:	bf00      	nop

00083358 <isFinalState>:
   83358:	f1a0 0302 	sub.w	r3, r0, #2
   8335c:	b2d9      	uxtb	r1, r3
   8335e:	2902      	cmp	r1, #2
   83360:	d904      	bls.n	8336c <isFinalState+0x14>
   83362:	f1d0 0001 	rsbs	r0, r0, #1
   83366:	bf38      	it	cc
   83368:	2000      	movcc	r0, #0
   8336a:	4770      	bx	lr
   8336c:	f04f 0001 	mov.w	r0, #1
   83370:	4770      	bx	lr
   83372:	bf00      	nop

00083374 <strnpbrk>:
   83374:	b470      	push	{r4, r5, r6}
   83376:	1841      	adds	r1, r0, r1
   83378:	4288      	cmp	r0, r1
   8337a:	d01a      	beq.n	833b2 <strnpbrk+0x3e>
   8337c:	4603      	mov	r3, r0
   8337e:	f813 6b01 	ldrb.w	r6, [r3], #1
   83382:	b936      	cbnz	r6, 83392 <strnpbrk+0x1e>
   83384:	f04f 0000 	mov.w	r0, #0
   83388:	e018      	b.n	833bc <strnpbrk+0x48>
   8338a:	42b5      	cmp	r5, r6
   8338c:	d102      	bne.n	83394 <strnpbrk+0x20>
   8338e:	e015      	b.n	833bc <strnpbrk+0x48>
   83390:	4623      	mov	r3, r4
   83392:	4614      	mov	r4, r2
   83394:	f814 5b01 	ldrb.w	r5, [r4], #1
   83398:	2d00      	cmp	r5, #0
   8339a:	d1f6      	bne.n	8338a <strnpbrk+0x16>
   8339c:	428b      	cmp	r3, r1
   8339e:	d00b      	beq.n	833b8 <strnpbrk+0x44>
   833a0:	461c      	mov	r4, r3
   833a2:	f814 6b01 	ldrb.w	r6, [r4], #1
   833a6:	4618      	mov	r0, r3
   833a8:	2e00      	cmp	r6, #0
   833aa:	d1f1      	bne.n	83390 <strnpbrk+0x1c>
   833ac:	f04f 0000 	mov.w	r0, #0
   833b0:	e004      	b.n	833bc <strnpbrk+0x48>
   833b2:	f04f 0000 	mov.w	r0, #0
   833b6:	e001      	b.n	833bc <strnpbrk+0x48>
   833b8:	f04f 0000 	mov.w	r0, #0
   833bc:	bc70      	pop	{r4, r5, r6}
   833be:	4770      	bx	lr

000833c0 <longToStr>:
   833c0:	b4f0      	push	{r4, r5, r6, r7}
   833c2:	4603      	mov	r3, r0
   833c4:	b938      	cbnz	r0, 833d6 <longToStr+0x16>
   833c6:	2a00      	cmp	r2, #0
   833c8:	d055      	beq.n	83476 <longToStr+0xb6>
   833ca:	f04f 0030 	mov.w	r0, #48	; 0x30
   833ce:	7008      	strb	r0, [r1, #0]
   833d0:	f04f 0001 	mov.w	r0, #1
   833d4:	e049      	b.n	8346a <longToStr+0xaa>
   833d6:	2800      	cmp	r0, #0
   833d8:	da08      	bge.n	833ec <longToStr+0x2c>
   833da:	f1c0 0300 	rsb	r3, r0, #0
   833de:	b142      	cbz	r2, 833f2 <longToStr+0x32>
   833e0:	f04f 002d 	mov.w	r0, #45	; 0x2d
   833e4:	7008      	strb	r0, [r1, #0]
   833e6:	f04f 0001 	mov.w	r0, #1
   833ea:	e004      	b.n	833f6 <longToStr+0x36>
   833ec:	f04f 0000 	mov.w	r0, #0
   833f0:	e001      	b.n	833f6 <longToStr+0x36>
   833f2:	f04f 0000 	mov.w	r0, #0
   833f6:	461d      	mov	r5, r3
   833f8:	f64c 14ff 	movw	r4, #51711	; 0xc9ff
   833fc:	f6c3 349a 	movt	r4, #15258	; 0x3b9a
   83400:	42a3      	cmp	r3, r4
   83402:	d810      	bhi.n	83426 <longToStr+0x66>
   83404:	f44f 434a 	mov.w	r3, #51712	; 0xca00
   83408:	f6c3 339a 	movt	r3, #15258	; 0x3b9a
   8340c:	f64c 46cd 	movw	r6, #52429	; 0xcccd
   83410:	f6cc 46cc 	movt	r6, #52428	; 0xcccc
   83414:	fba6 4303 	umull	r4, r3, r6, r3
   83418:	ea4f 03d3 	mov.w	r3, r3, lsr #3
   8341c:	fbb5 f4f3 	udiv	r4, r5, r3
   83420:	2c00      	cmp	r4, #0
   83422:	d0f7      	beq.n	83414 <longToStr+0x54>
   83424:	e003      	b.n	8342e <longToStr+0x6e>
   83426:	f44f 434a 	mov.w	r3, #51712	; 0xca00
   8342a:	f6c3 339a 	movt	r3, #15258	; 0x3b9a
   8342e:	4282      	cmp	r2, r0
   83430:	d933      	bls.n	8349a <longToStr+0xda>
   83432:	fbb5 f6f3 	udiv	r6, r5, r3
   83436:	b2f6      	uxtb	r6, r6
   83438:	f64c 47cd 	movw	r7, #52429	; 0xcccd
   8343c:	f6cc 47cc 	movt	r7, #52428	; 0xcccc
   83440:	ea6f 0400 	mvn.w	r4, r0
   83444:	18a4      	adds	r4, r4, r2
   83446:	f014 0f01 	tst.w	r4, #1
   8344a:	d128      	bne.n	8349e <longToStr+0xde>
   8344c:	f106 0430 	add.w	r4, r6, #48	; 0x30
   83450:	540c      	strb	r4, [r1, r0]
   83452:	f100 0401 	add.w	r4, r0, #1
   83456:	4620      	mov	r0, r4
   83458:	fb03 5516 	mls	r5, r3, r6, r5
   8345c:	fba7 6303 	umull	r6, r3, r7, r3
   83460:	08db      	lsrs	r3, r3, #3
   83462:	d002      	beq.n	8346a <longToStr+0xaa>
   83464:	42a2      	cmp	r2, r4
   83466:	d809      	bhi.n	8347c <longToStr+0xbc>
   83468:	e017      	b.n	8349a <longToStr+0xda>
   8346a:	4290      	cmp	r0, r2
   8346c:	d215      	bcs.n	8349a <longToStr+0xda>
   8346e:	f04f 0200 	mov.w	r2, #0
   83472:	540a      	strb	r2, [r1, r0]
   83474:	e011      	b.n	8349a <longToStr+0xda>
   83476:	f04f 0000 	mov.w	r0, #0
   8347a:	e00e      	b.n	8349a <longToStr+0xda>
   8347c:	fbb5 f0f3 	udiv	r0, r5, r3
   83480:	b2c6      	uxtb	r6, r0
   83482:	f106 0030 	add.w	r0, r6, #48	; 0x30
   83486:	5508      	strb	r0, [r1, r4]
   83488:	f104 0001 	add.w	r0, r4, #1
   8348c:	fb03 5516 	mls	r5, r3, r6, r5
   83490:	fba7 4303 	umull	r4, r3, r7, r3
   83494:	08db      	lsrs	r3, r3, #3
   83496:	d113      	bne.n	834c0 <longToStr+0x100>
   83498:	e7e7      	b.n	8346a <longToStr+0xaa>
   8349a:	bcf0      	pop	{r4, r5, r6, r7}
   8349c:	4770      	bx	lr
   8349e:	f106 0430 	add.w	r4, r6, #48	; 0x30
   834a2:	540c      	strb	r4, [r1, r0]
   834a4:	f100 0001 	add.w	r0, r0, #1
   834a8:	fb03 5516 	mls	r5, r3, r6, r5
   834ac:	fba7 6303 	umull	r6, r3, r7, r3
   834b0:	08db      	lsrs	r3, r3, #3
   834b2:	d0da      	beq.n	8346a <longToStr+0xaa>
   834b4:	4282      	cmp	r2, r0
   834b6:	d9f0      	bls.n	8349a <longToStr+0xda>
   834b8:	fbb5 f6f3 	udiv	r6, r5, r3
   834bc:	b2f6      	uxtb	r6, r6
   834be:	e7c5      	b.n	8344c <longToStr+0x8c>
   834c0:	fbb5 f6f3 	udiv	r6, r5, r3
   834c4:	b2f6      	uxtb	r6, r6
   834c6:	e7c1      	b.n	8344c <longToStr+0x8c>

000834c8 <strToLong>:
   834c8:	b530      	push	{r4, r5, lr}
   834ca:	b083      	sub	sp, #12
   834cc:	4604      	mov	r4, r0
   834ce:	460d      	mov	r5, r1
   834d0:	a901      	add	r1, sp, #4
   834d2:	f04f 0200 	mov.w	r2, #0
   834d6:	f24a 13d5 	movw	r3, #41429	; 0xa1d5
   834da:	f2c0 0308 	movt	r3, #8
   834de:	4798      	blx	r3
   834e0:	6028      	str	r0, [r5, #0]
   834e2:	9801      	ldr	r0, [sp, #4]
   834e4:	1b00      	subs	r0, r0, r4
   834e6:	b003      	add	sp, #12
   834e8:	bd30      	pop	{r4, r5, pc}
   834ea:	bf00      	nop

000834ec <compareStr>:
   834ec:	b510      	push	{r4, lr}
   834ee:	460c      	mov	r4, r1
   834f0:	4299      	cmp	r1, r3
   834f2:	d10b      	bne.n	8350c <compareStr+0x20>
   834f4:	4611      	mov	r1, r2
   834f6:	4622      	mov	r2, r4
   834f8:	f24a 033d 	movw	r3, #41021	; 0xa03d
   834fc:	f2c0 0308 	movt	r3, #8
   83500:	4798      	blx	r3
   83502:	f1d0 0001 	rsbs	r0, r0, #1
   83506:	bf38      	it	cc
   83508:	2000      	movcc	r0, #0
   8350a:	bd10      	pop	{r4, pc}
   8350c:	f04f 0000 	mov.w	r0, #0
   83510:	bd10      	pop	{r4, pc}
   83512:	bf00      	nop

00083514 <locateStr>:
   83514:	e92d 4ff0 	stmdb	sp!, {r4, r5, r6, r7, r8, r9, sl, fp, lr}
   83518:	b083      	sub	sp, #12
   8351a:	4606      	mov	r6, r0
   8351c:	9201      	str	r2, [sp, #4]
   8351e:	4699      	mov	r9, r3
   83520:	460b      	mov	r3, r1
   83522:	2900      	cmp	r1, #0
   83524:	d03e      	beq.n	835a4 <locateStr+0x90>
   83526:	f240 22a0 	movw	r2, #672	; 0x2a0
   8352a:	f2c2 0207 	movt	r2, #8199	; 0x2007
   8352e:	f8d2 e000 	ldr.w	lr, [r2]
   83532:	f04f 0501 	mov.w	r5, #1
   83536:	f04f 0400 	mov.w	r4, #0
   8353a:	4627      	mov	r7, r4
   8353c:	46a0      	mov	r8, r4
   8353e:	f04f 0b02 	mov.w	fp, #2
   83542:	ea6f 0104 	mvn.w	r1, r4
   83546:	18c9      	adds	r1, r1, r3
   83548:	4029      	ands	r1, r5
   8354a:	5d00      	ldrb	r0, [r0, r4]
   8354c:	4622      	mov	r2, r4
   8354e:	2c00      	cmp	r4, #0
   83550:	d04f      	beq.n	835f2 <locateStr+0xde>
   83552:	e062      	b.n	8361a <locateStr+0x106>
   83554:	5d31      	ldrb	r1, [r6, r4]
   83556:	b112      	cbz	r2, 8355e <locateStr+0x4a>
   83558:	2a02      	cmp	r2, #2
   8355a:	d11b      	bne.n	83594 <locateStr+0x80>
   8355c:	e00f      	b.n	8357e <locateStr+0x6a>
   8355e:	eb0e 0001 	add.w	r0, lr, r1
   83562:	7840      	ldrb	r0, [r0, #1]
   83564:	f000 0008 	and.w	r0, r0, #8
   83568:	b2c0      	uxtb	r0, r0
   8356a:	b110      	cbz	r0, 83572 <locateStr+0x5e>
   8356c:	462f      	mov	r7, r5
   8356e:	46a8      	mov	r8, r5
   83570:	e010      	b.n	83594 <locateStr+0x80>
   83572:	292c      	cmp	r1, #44	; 0x2c
   83574:	d01b      	beq.n	835ae <locateStr+0x9a>
   83576:	46a0      	mov	r8, r4
   83578:	462f      	mov	r7, r5
   8357a:	465a      	mov	r2, fp
   8357c:	e00a      	b.n	83594 <locateStr+0x80>
   8357e:	292c      	cmp	r1, #44	; 0x2c
   83580:	d018      	beq.n	835b4 <locateStr+0xa0>
   83582:	eb0e 0001 	add.w	r0, lr, r1
   83586:	7841      	ldrb	r1, [r0, #1]
   83588:	f001 0008 	and.w	r0, r1, #8
   8358c:	b2c1      	uxtb	r1, r0
   8358e:	2900      	cmp	r1, #0
   83590:	bf08      	it	eq
   83592:	462f      	moveq	r7, r5
   83594:	f104 0401 	add.w	r4, r4, #1
   83598:	f105 0501 	add.w	r5, r5, #1
   8359c:	5d31      	ldrb	r1, [r6, r4]
   8359e:	2a00      	cmp	r2, #0
   835a0:	d076      	beq.n	83690 <locateStr+0x17c>
   835a2:	e089      	b.n	836b8 <locateStr+0x1a4>
   835a4:	f04f 0700 	mov.w	r7, #0
   835a8:	46b8      	mov	r8, r7
   835aa:	463a      	mov	r2, r7
   835ac:	e004      	b.n	835b8 <locateStr+0xa4>
   835ae:	f04f 0204 	mov.w	r2, #4
   835b2:	e001      	b.n	835b8 <locateStr+0xa4>
   835b4:	f04f 0204 	mov.w	r2, #4
   835b8:	4610      	mov	r0, r2
   835ba:	f243 3359 	movw	r3, #13145	; 0x3359
   835be:	f2c0 0308 	movt	r3, #8
   835c2:	4798      	blx	r3
   835c4:	b168      	cbz	r0, 835e2 <locateStr+0xce>
   835c6:	9a01      	ldr	r2, [sp, #4]
   835c8:	b10a      	cbz	r2, 835ce <locateStr+0xba>
   835ca:	4446      	add	r6, r8
   835cc:	6016      	str	r6, [r2, #0]
   835ce:	f1b9 0f00 	cmp.w	r9, #0
   835d2:	d009      	beq.n	835e8 <locateStr+0xd4>
   835d4:	ebc8 0707 	rsb	r7, r8, r7
   835d8:	f8c9 7000 	str.w	r7, [r9]
   835dc:	f04f 0001 	mov.w	r0, #1
   835e0:	e004      	b.n	835ec <locateStr+0xd8>
   835e2:	f04f 0000 	mov.w	r0, #0
   835e6:	e001      	b.n	835ec <locateStr+0xd8>
   835e8:	f04f 0001 	mov.w	r0, #1
   835ec:	b003      	add	sp, #12
   835ee:	e8bd 8ff0 	ldmia.w	sp!, {r4, r5, r6, r7, r8, r9, sl, fp, pc}
   835f2:	eb0e 0c00 	add.w	ip, lr, r0
   835f6:	f89c c001 	ldrb.w	ip, [ip, #1]
   835fa:	f00c 0c08 	and.w	ip, ip, #8
   835fe:	fa5f fc8c 	uxtb.w	ip, ip
   83602:	f1bc 0f00 	cmp.w	ip, #0
   83606:	d105      	bne.n	83614 <locateStr+0x100>
   83608:	282c      	cmp	r0, #44	; 0x2c
   8360a:	d0d0      	beq.n	835ae <locateStr+0x9a>
   8360c:	46a0      	mov	r8, r4
   8360e:	462f      	mov	r7, r5
   83610:	465a      	mov	r2, fp
   83612:	e00e      	b.n	83632 <locateStr+0x11e>
   83614:	462f      	mov	r7, r5
   83616:	46a8      	mov	r8, r5
   83618:	e00b      	b.n	83632 <locateStr+0x11e>
   8361a:	2c02      	cmp	r4, #2
   8361c:	d109      	bne.n	83632 <locateStr+0x11e>
   8361e:	282c      	cmp	r0, #44	; 0x2c
   83620:	d0c8      	beq.n	835b4 <locateStr+0xa0>
   83622:	4470      	add	r0, lr
   83624:	7840      	ldrb	r0, [r0, #1]
   83626:	f000 0008 	and.w	r0, r0, #8
   8362a:	b2c0      	uxtb	r0, r0
   8362c:	2800      	cmp	r0, #0
   8362e:	bf08      	it	eq
   83630:	462f      	moveq	r7, r5
   83632:	f104 0401 	add.w	r4, r4, #1
   83636:	f105 0501 	add.w	r5, r5, #1
   8363a:	429c      	cmp	r4, r3
   8363c:	d0bc      	beq.n	835b8 <locateStr+0xa4>
   8363e:	2900      	cmp	r1, #0
   83640:	d088      	beq.n	83554 <locateStr+0x40>
   83642:	5d31      	ldrb	r1, [r6, r4]
   83644:	b97a      	cbnz	r2, 83666 <locateStr+0x152>
   83646:	eb0e 0001 	add.w	r0, lr, r1
   8364a:	7840      	ldrb	r0, [r0, #1]
   8364c:	f000 0008 	and.w	r0, r0, #8
   83650:	b2c0      	uxtb	r0, r0
   83652:	b928      	cbnz	r0, 83660 <locateStr+0x14c>
   83654:	292c      	cmp	r1, #44	; 0x2c
   83656:	d0aa      	beq.n	835ae <locateStr+0x9a>
   83658:	46a0      	mov	r8, r4
   8365a:	462f      	mov	r7, r5
   8365c:	465a      	mov	r2, fp
   8365e:	e00f      	b.n	83680 <locateStr+0x16c>
   83660:	462f      	mov	r7, r5
   83662:	46a8      	mov	r8, r5
   83664:	e00c      	b.n	83680 <locateStr+0x16c>
   83666:	2a02      	cmp	r2, #2
   83668:	d10a      	bne.n	83680 <locateStr+0x16c>
   8366a:	292c      	cmp	r1, #44	; 0x2c
   8366c:	d0a2      	beq.n	835b4 <locateStr+0xa0>
   8366e:	eb0e 0001 	add.w	r0, lr, r1
   83672:	7841      	ldrb	r1, [r0, #1]
   83674:	f001 0008 	and.w	r0, r1, #8
   83678:	b2c1      	uxtb	r1, r0
   8367a:	2900      	cmp	r1, #0
   8367c:	bf08      	it	eq
   8367e:	462f      	moveq	r7, r5
   83680:	f104 0401 	add.w	r4, r4, #1
   83684:	f105 0501 	add.w	r5, r5, #1
   83688:	429c      	cmp	r4, r3
   8368a:	f47f af63 	bne.w	83554 <locateStr+0x40>
   8368e:	e793      	b.n	835b8 <locateStr+0xa4>
   83690:	eb0e 0a01 	add.w	sl, lr, r1
   83694:	f89a a001 	ldrb.w	sl, [sl, #1]
   83698:	f00a 0a08 	and.w	sl, sl, #8
   8369c:	fa5f fa8a 	uxtb.w	sl, sl
   836a0:	f1ba 0f00 	cmp.w	sl, #0
   836a4:	d105      	bne.n	836b2 <locateStr+0x19e>
   836a6:	292c      	cmp	r1, #44	; 0x2c
   836a8:	d081      	beq.n	835ae <locateStr+0x9a>
   836aa:	46a0      	mov	r8, r4
   836ac:	462f      	mov	r7, r5
   836ae:	465a      	mov	r2, fp
   836b0:	e00f      	b.n	836d2 <locateStr+0x1be>
   836b2:	462f      	mov	r7, r5
   836b4:	46a8      	mov	r8, r5
   836b6:	e00c      	b.n	836d2 <locateStr+0x1be>
   836b8:	2a02      	cmp	r2, #2
   836ba:	d10a      	bne.n	836d2 <locateStr+0x1be>
   836bc:	292c      	cmp	r1, #44	; 0x2c
   836be:	f43f af79 	beq.w	835b4 <locateStr+0xa0>
   836c2:	4471      	add	r1, lr
   836c4:	7849      	ldrb	r1, [r1, #1]
   836c6:	f001 0108 	and.w	r1, r1, #8
   836ca:	b2c9      	uxtb	r1, r1
   836cc:	2900      	cmp	r1, #0
   836ce:	bf08      	it	eq
   836d0:	462f      	moveq	r7, r5
   836d2:	f104 0401 	add.w	r4, r4, #1
   836d6:	f105 0501 	add.w	r5, r5, #1
   836da:	429c      	cmp	r4, r3
   836dc:	f47f af3a 	bne.w	83554 <locateStr+0x40>
   836e0:	e76a      	b.n	835b8 <locateStr+0xa4>
   836e2:	bf00      	nop

000836e4 <skipWhitespace>:
   836e4:	b470      	push	{r4, r5, r6}
   836e6:	460e      	mov	r6, r1
   836e8:	b311      	cbz	r1, 83730 <skipWhitespace+0x4c>
   836ea:	f240 23a0 	movw	r3, #672	; 0x2a0
   836ee:	f2c2 0307 	movt	r3, #8199	; 0x2007
   836f2:	681c      	ldr	r4, [r3, #0]
   836f4:	7801      	ldrb	r1, [r0, #0]
   836f6:	1862      	adds	r2, r4, r1
   836f8:	7853      	ldrb	r3, [r2, #1]
   836fa:	f003 0108 	and.w	r1, r3, #8
   836fe:	b2ca      	uxtb	r2, r1
   83700:	b1c2      	cbz	r2, 83734 <skipWhitespace+0x50>
   83702:	4603      	mov	r3, r0
   83704:	f04f 0000 	mov.w	r0, #0
   83708:	f016 0f01 	tst.w	r6, #1
   8370c:	d109      	bne.n	83722 <skipWhitespace+0x3e>
   8370e:	e015      	b.n	8373c <skipWhitespace+0x58>
   83710:	f813 5f01 	ldrb.w	r5, [r3, #1]!
   83714:	1961      	adds	r1, r4, r5
   83716:	784d      	ldrb	r5, [r1, #1]
   83718:	f005 0108 	and.w	r1, r5, #8
   8371c:	b2cd      	uxtb	r5, r1
   8371e:	b9cd      	cbnz	r5, 83754 <skipWhitespace+0x70>
   83720:	e00a      	b.n	83738 <skipWhitespace+0x54>
   83722:	f100 0201 	add.w	r2, r0, #1
   83726:	4610      	mov	r0, r2
   83728:	42b2      	cmp	r2, r6
   8372a:	d1f1      	bne.n	83710 <skipWhitespace+0x2c>
   8372c:	4630      	mov	r0, r6
   8372e:	e003      	b.n	83738 <skipWhitespace+0x54>
   83730:	4608      	mov	r0, r1
   83732:	e001      	b.n	83738 <skipWhitespace+0x54>
   83734:	f04f 0000 	mov.w	r0, #0
   83738:	bc70      	pop	{r4, r5, r6}
   8373a:	4770      	bx	lr
   8373c:	f100 0001 	add.w	r0, r0, #1
   83740:	f813 1f01 	ldrb.w	r1, [r3, #1]!
   83744:	1862      	adds	r2, r4, r1
   83746:	7851      	ldrb	r1, [r2, #1]
   83748:	f001 0208 	and.w	r2, r1, #8
   8374c:	b2d1      	uxtb	r1, r2
   8374e:	2900      	cmp	r1, #0
   83750:	d1e7      	bne.n	83722 <skipWhitespace+0x3e>
   83752:	e7f1      	b.n	83738 <skipWhitespace+0x54>
   83754:	f102 0001 	add.w	r0, r2, #1
   83758:	f813 2f01 	ldrb.w	r2, [r3, #1]!
   8375c:	18a1      	adds	r1, r4, r2
   8375e:	784a      	ldrb	r2, [r1, #1]
   83760:	f002 0108 	and.w	r1, r2, #8
   83764:	b2ca      	uxtb	r2, r1
   83766:	2a00      	cmp	r2, #0
   83768:	d1db      	bne.n	83722 <skipWhitespace+0x3e>
   8376a:	e7e5      	b.n	83738 <skipWhitespace+0x54>

0008376c <matchPattern>:
   8376c:	e92d 47f0 	stmdb	sp!, {r4, r5, r6, r7, r8, r9, sl, lr}
   83770:	4680      	mov	r8, r0
   83772:	4691      	mov	r9, r2
   83774:	469a      	mov	sl, r3
   83776:	468e      	mov	lr, r1
   83778:	b321      	cbz	r1, 837c4 <matchPattern+0x58>
   8377a:	7803      	ldrb	r3, [r0, #0]
   8377c:	b32b      	cbz	r3, 837ca <matchPattern+0x5e>
   8377e:	f240 22a0 	movw	r2, #672	; 0x2a0
   83782:	f2c2 0207 	movt	r2, #8199	; 0x2007
   83786:	6810      	ldr	r0, [r2, #0]
   83788:	18c1      	adds	r1, r0, r3
   8378a:	784c      	ldrb	r4, [r1, #1]
   8378c:	f004 0503 	and.w	r5, r4, #3
   83790:	2d02      	cmp	r5, #2
   83792:	d01d      	beq.n	837d0 <matchPattern+0x64>
   83794:	4642      	mov	r2, r8
   83796:	f04f 0400 	mov.w	r4, #0
   8379a:	f01e 0f01 	tst.w	lr, #1
   8379e:	d107      	bne.n	837b0 <matchPattern+0x44>
   837a0:	e02f      	b.n	83802 <matchPattern+0x96>
   837a2:	19c7      	adds	r7, r0, r7
   837a4:	7879      	ldrb	r1, [r7, #1]
   837a6:	f001 0503 	and.w	r5, r1, #3
   837aa:	2d02      	cmp	r5, #2
   837ac:	d136      	bne.n	8381c <matchPattern+0xb0>
   837ae:	e011      	b.n	837d4 <matchPattern+0x68>
   837b0:	f104 0601 	add.w	r6, r4, #1
   837b4:	4634      	mov	r4, r6
   837b6:	4576      	cmp	r6, lr
   837b8:	d00c      	beq.n	837d4 <matchPattern+0x68>
   837ba:	f812 7f01 	ldrb.w	r7, [r2, #1]!
   837be:	2f00      	cmp	r7, #0
   837c0:	d1ef      	bne.n	837a2 <matchPattern+0x36>
   837c2:	e007      	b.n	837d4 <matchPattern+0x68>
   837c4:	f04f 0400 	mov.w	r4, #0
   837c8:	e004      	b.n	837d4 <matchPattern+0x68>
   837ca:	f04f 0400 	mov.w	r4, #0
   837ce:	e001      	b.n	837d4 <matchPattern+0x68>
   837d0:	f04f 0400 	mov.w	r4, #0
   837d4:	4640      	mov	r0, r8
   837d6:	4671      	mov	r1, lr
   837d8:	464a      	mov	r2, r9
   837da:	4653      	mov	r3, sl
   837dc:	f243 45ed 	movw	r5, #13549	; 0x34ed
   837e0:	f2c0 0508 	movt	r5, #8
   837e4:	47a8      	blx	r5
   837e6:	b930      	cbnz	r0, 837f6 <matchPattern+0x8a>
   837e8:	4640      	mov	r0, r8
   837ea:	4621      	mov	r1, r4
   837ec:	464a      	mov	r2, r9
   837ee:	4653      	mov	r3, sl
   837f0:	462c      	mov	r4, r5
   837f2:	47a8      	blx	r5
   837f4:	e001      	b.n	837fa <matchPattern+0x8e>
   837f6:	f04f 0001 	mov.w	r0, #1
   837fa:	f000 0001 	and.w	r0, r0, #1
   837fe:	e8bd 87f0 	ldmia.w	sp!, {r4, r5, r6, r7, r8, r9, sl, pc}
   83802:	f104 0401 	add.w	r4, r4, #1
   83806:	f812 3f01 	ldrb.w	r3, [r2, #1]!
   8380a:	2b00      	cmp	r3, #0
   8380c:	d0e2      	beq.n	837d4 <matchPattern+0x68>
   8380e:	18c1      	adds	r1, r0, r3
   83810:	784d      	ldrb	r5, [r1, #1]
   83812:	f005 0303 	and.w	r3, r5, #3
   83816:	2b02      	cmp	r3, #2
   83818:	d1ca      	bne.n	837b0 <matchPattern+0x44>
   8381a:	e7db      	b.n	837d4 <matchPattern+0x68>
   8381c:	f106 0401 	add.w	r4, r6, #1
   83820:	f812 3f01 	ldrb.w	r3, [r2, #1]!
   83824:	2b00      	cmp	r3, #0
   83826:	d0d5      	beq.n	837d4 <matchPattern+0x68>
   83828:	18c1      	adds	r1, r0, r3
   8382a:	784d      	ldrb	r5, [r1, #1]
   8382c:	f005 0303 	and.w	r3, r5, #3
   83830:	2b02      	cmp	r3, #2
   83832:	d1bd      	bne.n	837b0 <matchPattern+0x44>
   83834:	e7ce      	b.n	837d4 <matchPattern+0x68>
   83836:	bf00      	nop

00083838 <matchCommand>:
   83838:	e92d 4ff8 	stmdb	sp!, {r3, r4, r5, r6, r7, r8, r9, sl, fp, lr}
   8383c:	4605      	mov	r5, r0
   8383e:	460c      	mov	r4, r1
   83840:	4616      	mov	r6, r2
   83842:	f24a 032d 	movw	r3, #41005	; 0xa02d
   83846:	f2c0 0308 	movt	r3, #8
   8384a:	4798      	blx	r3
   8384c:	eb05 0900 	add.w	r9, r5, r0
   83850:	4620      	mov	r0, r4
   83852:	4631      	mov	r1, r6
   83854:	f24a 02af 	movw	r2, #41135	; 0xa0af
   83858:	f2c0 0208 	movt	r2, #8
   8385c:	4790      	blx	r2
   8385e:	eb04 0a00 	add.w	sl, r4, r0
   83862:	7820      	ldrb	r0, [r4, #0]
   83864:	283a      	cmp	r0, #58	; 0x3a
   83866:	bf08      	it	eq
   83868:	3401      	addeq	r4, #1
   8386a:	f64c 3b9c 	movw	fp, #52124	; 0xcb9c
   8386e:	f2c0 0b08 	movt	fp, #8
   83872:	f243 3875 	movw	r8, #13173	; 0x3375
   83876:	f2c0 0808 	movt	r8, #8
   8387a:	ebc5 0709 	rsb	r7, r5, r9
   8387e:	4628      	mov	r0, r5
   83880:	4639      	mov	r1, r7
   83882:	465a      	mov	r2, fp
   83884:	47c0      	blx	r8
   83886:	b100      	cbz	r0, 8388a <matchCommand+0x52>
   83888:	1b47      	subs	r7, r0, r5
   8388a:	ebc4 060a 	rsb	r6, r4, sl
   8388e:	4620      	mov	r0, r4
   83890:	4631      	mov	r1, r6
   83892:	4a1b      	ldr	r2, [pc, #108]	; (83900 <matchCommand+0xc8>)
   83894:	47c0      	blx	r8
   83896:	b100      	cbz	r0, 8389a <matchCommand+0x62>
   83898:	1b06      	subs	r6, r0, r4
   8389a:	4628      	mov	r0, r5
   8389c:	4639      	mov	r1, r7
   8389e:	4622      	mov	r2, r4
   838a0:	4633      	mov	r3, r6
   838a2:	f243 7c6d 	movw	ip, #14189	; 0x376d
   838a6:	f2c0 0c08 	movt	ip, #8
   838aa:	47e0      	blx	ip
   838ac:	b1c0      	cbz	r0, 838e0 <matchCommand+0xa8>
   838ae:	19ed      	adds	r5, r5, r7
   838b0:	19a4      	adds	r4, r4, r6
   838b2:	454d      	cmp	r5, r9
   838b4:	d105      	bne.n	838c2 <matchCommand+0x8a>
   838b6:	45a2      	cmp	sl, r4
   838b8:	bf8c      	ite	hi
   838ba:	2000      	movhi	r0, #0
   838bc:	2001      	movls	r0, #1
   838be:	e8bd 8ff8 	ldmia.w	sp!, {r3, r4, r5, r6, r7, r8, r9, sl, fp, pc}
   838c2:	45a2      	cmp	sl, r4
   838c4:	d910      	bls.n	838e8 <matchCommand+0xb0>
   838c6:	7828      	ldrb	r0, [r5, #0]
   838c8:	7822      	ldrb	r2, [r4, #0]
   838ca:	4282      	cmp	r2, r0
   838cc:	d110      	bne.n	838f0 <matchCommand+0xb8>
   838ce:	283a      	cmp	r0, #58	; 0x3a
   838d0:	d001      	beq.n	838d6 <matchCommand+0x9e>
   838d2:	283f      	cmp	r0, #63	; 0x3f
   838d4:	d110      	bne.n	838f8 <matchCommand+0xc0>
   838d6:	f105 0501 	add.w	r5, r5, #1
   838da:	f104 0401 	add.w	r4, r4, #1
   838de:	e7cc      	b.n	8387a <matchCommand+0x42>
   838e0:	f04f 0000 	mov.w	r0, #0
   838e4:	e8bd 8ff8 	ldmia.w	sp!, {r3, r4, r5, r6, r7, r8, r9, sl, fp, pc}
   838e8:	f04f 0000 	mov.w	r0, #0
   838ec:	e8bd 8ff8 	ldmia.w	sp!, {r3, r4, r5, r6, r7, r8, r9, sl, fp, pc}
   838f0:	f04f 0000 	mov.w	r0, #0
   838f4:	e8bd 8ff8 	ldmia.w	sp!, {r3, r4, r5, r6, r7, r8, r9, sl, fp, pc}
   838f8:	f04f 0000 	mov.w	r0, #0
   838fc:	e8bd 8ff8 	ldmia.w	sp!, {r3, r4, r5, r6, r7, r8, r9, sl, fp, pc}
   83900:	0008cba4 	.word	0x0008cba4

00083904 <SCPI_GetModuleType>:
 #include <string.h>
 #include <math.h>
 #include "asf.h"
 
 scpi_result_t SCPI_GetModuleType(scpi_t * context)
 {
   83904:	b538      	push	{r3, r4, r5, lr}
	 printf("High speed dual delay lines\x0D");
   83906:	f641 25e4 	movw	r5, #6884	; 0x1ae4
   8390a:	f2c2 0507 	movt	r5, #8199	; 0x2007
   8390e:	f64c 34a8 	movw	r4, #52136	; 0xcba8
   83912:	f2c0 0408 	movt	r4, #8
   83916:	cc0f      	ldmia	r4!, {r0, r1, r2, r3}
   83918:	6028      	str	r0, [r5, #0]
   8391a:	6069      	str	r1, [r5, #4]
   8391c:	60aa      	str	r2, [r5, #8]
   8391e:	60eb      	str	r3, [r5, #12]
   83920:	cc07      	ldmia	r4!, {r0, r1, r2}
   83922:	6128      	str	r0, [r5, #16]
   83924:	6169      	str	r1, [r5, #20]
   83926:	61aa      	str	r2, [r5, #24]
   83928:	7823      	ldrb	r3, [r4, #0]
   8392a:	772b      	strb	r3, [r5, #28]
   8392c:	4628      	mov	r0, r5
   8392e:	f644 0179 	movw	r1, #18553	; 0x4879
   83932:	f2c0 0108 	movt	r1, #8
   83936:	4788      	blx	r1
	 return SCPI_RES_OK;
 }
   83938:	f04f 0001 	mov.w	r0, #1
   8393c:	bd38      	pop	{r3, r4, r5, pc}
   8393e:	bf00      	nop

00083940 <SCPI_GetModuleName>:

scpi_result_t SCPI_GetModuleName(scpi_t * context)
{
   83940:	b538      	push	{r3, r4, r5, lr}
	printf("High speed dual delay lines\x0D");
   83942:	f641 25e4 	movw	r5, #6884	; 0x1ae4
   83946:	f2c2 0507 	movt	r5, #8199	; 0x2007
   8394a:	f64c 34a8 	movw	r4, #52136	; 0xcba8
   8394e:	f2c0 0408 	movt	r4, #8
   83952:	cc0f      	ldmia	r4!, {r0, r1, r2, r3}
   83954:	6028      	str	r0, [r5, #0]
   83956:	6069      	str	r1, [r5, #4]
   83958:	60aa      	str	r2, [r5, #8]
   8395a:	60eb      	str	r3, [r5, #12]
   8395c:	cc07      	ldmia	r4!, {r0, r1, r2}
   8395e:	6128      	str	r0, [r5, #16]
   83960:	6169      	str	r1, [r5, #20]
   83962:	61aa      	str	r2, [r5, #24]
   83964:	7823      	ldrb	r3, [r4, #0]
   83966:	772b      	strb	r3, [r5, #28]
   83968:	4628      	mov	r0, r5
   8396a:	f644 0179 	movw	r1, #18553	; 0x4879
   8396e:	f2c0 0108 	movt	r1, #8
   83972:	4788      	blx	r1
	return SCPI_RES_OK;
}
   83974:	f04f 0001 	mov.w	r0, #1
   83978:	bd38      	pop	{r3, r4, r5, pc}
   8397a:	bf00      	nop

0008397c <SCPI_GetModuleDescription>:

scpi_result_t SCPI_GetModuleDescription(scpi_t * context)
{
   8397c:	b538      	push	{r3, r4, r5, lr}
	printf("High speed dual delay lines\x0D");
   8397e:	f641 25e4 	movw	r5, #6884	; 0x1ae4
   83982:	f2c2 0507 	movt	r5, #8199	; 0x2007
   83986:	f64c 34a8 	movw	r4, #52136	; 0xcba8
   8398a:	f2c0 0408 	movt	r4, #8
   8398e:	cc0f      	ldmia	r4!, {r0, r1, r2, r3}
   83990:	6028      	str	r0, [r5, #0]
   83992:	6069      	str	r1, [r5, #4]
   83994:	60aa      	str	r2, [r5, #8]
   83996:	60eb      	str	r3, [r5, #12]
   83998:	cc07      	ldmia	r4!, {r0, r1, r2}
   8399a:	6128      	str	r0, [r5, #16]
   8399c:	6169      	str	r1, [r5, #20]
   8399e:	61aa      	str	r2, [r5, #24]
   839a0:	7823      	ldrb	r3, [r4, #0]
   839a2:	772b      	strb	r3, [r5, #28]
   839a4:	4628      	mov	r0, r5
   839a6:	f644 0179 	movw	r1, #18553	; 0x4879
   839aa:	f2c0 0108 	movt	r1, #8
   839ae:	4788      	blx	r1
	return SCPI_RES_OK;
}
   839b0:	f04f 0001 	mov.w	r0, #1
   839b4:	bd38      	pop	{r3, r4, r5, pc}
   839b6:	bf00      	nop

000839b8 <SCPI_GetModuleSN>:

scpi_result_t SCPI_GetModuleSN(scpi_t * context)
{
   839b8:	b508      	push	{r3, lr}
	printf("0x0000\x0D");
   839ba:	f641 22e4 	movw	r2, #6884	; 0x1ae4
   839be:	f2c2 0207 	movt	r2, #8199	; 0x2007
   839c2:	f64c 33c8 	movw	r3, #52168	; 0xcbc8
   839c6:	f2c0 0308 	movt	r3, #8
   839ca:	cb03      	ldmia	r3!, {r0, r1}
   839cc:	6010      	str	r0, [r2, #0]
   839ce:	6051      	str	r1, [r2, #4]
   839d0:	4610      	mov	r0, r2
   839d2:	f644 0179 	movw	r1, #18553	; 0x4879
   839d6:	f2c0 0108 	movt	r1, #8
   839da:	4788      	blx	r1
	return SCPI_RES_OK;
}
   839dc:	f04f 0001 	mov.w	r0, #1
   839e0:	bd08      	pop	{r3, pc}
   839e2:	bf00      	nop

000839e4 <SCPI_GetDissipatedPower>:

scpi_result_t SCPI_GetDissipatedPower(scpi_t * context)
{
   839e4:	b508      	push	{r3, lr}
	printf("840mW\x0D");
   839e6:	f641 23e4 	movw	r3, #6884	; 0x1ae4
   839ea:	f2c2 0307 	movt	r3, #8199	; 0x2007
   839ee:	f64c 32d0 	movw	r2, #52176	; 0xcbd0
   839f2:	f2c0 0208 	movt	r2, #8
   839f6:	6810      	ldr	r0, [r2, #0]
   839f8:	6018      	str	r0, [r3, #0]
   839fa:	8891      	ldrh	r1, [r2, #4]
   839fc:	7992      	ldrb	r2, [r2, #6]
   839fe:	8099      	strh	r1, [r3, #4]
   83a00:	719a      	strb	r2, [r3, #6]
   83a02:	4618      	mov	r0, r3
   83a04:	f644 0379 	movw	r3, #18553	; 0x4879
   83a08:	f2c0 0308 	movt	r3, #8
   83a0c:	4798      	blx	r3
	return SCPI_RES_OK;
}
   83a0e:	f04f 0001 	mov.w	r0, #1
   83a12:	bd08      	pop	{r3, pc}

00083a14 <SCPI_GetMaxCurrent>:

scpi_result_t SCPI_GetMaxCurrent(scpi_t * context)
{
   83a14:	b508      	push	{r3, lr}
	printf("0mA\x0D");
   83a16:	f641 23e4 	movw	r3, #6884	; 0x1ae4
   83a1a:	f2c2 0307 	movt	r3, #8199	; 0x2007
   83a1e:	f64c 32d8 	movw	r2, #52184	; 0xcbd8
   83a22:	f2c0 0208 	movt	r2, #8
   83a26:	6810      	ldr	r0, [r2, #0]
   83a28:	6018      	str	r0, [r3, #0]
   83a2a:	7911      	ldrb	r1, [r2, #4]
   83a2c:	7119      	strb	r1, [r3, #4]
   83a2e:	4618      	mov	r0, r3
   83a30:	f644 0379 	movw	r3, #18553	; 0x4879
   83a34:	f2c0 0308 	movt	r3, #8
   83a38:	4798      	blx	r3
	return SCPI_RES_OK;
}
   83a3a:	f04f 0001 	mov.w	r0, #1
   83a3e:	bd08      	pop	{r3, pc}

00083a40 <SCPI_GetNomCurrent>:

scpi_result_t SCPI_GetNomCurrent(scpi_t * context)
{
   83a40:	b508      	push	{r3, lr}
	printf("0mA\x0D");
   83a42:	f641 23e4 	movw	r3, #6884	; 0x1ae4
   83a46:	f2c2 0307 	movt	r3, #8199	; 0x2007
   83a4a:	f64c 32d8 	movw	r2, #52184	; 0xcbd8
   83a4e:	f2c0 0208 	movt	r2, #8
   83a52:	6810      	ldr	r0, [r2, #0]
   83a54:	6018      	str	r0, [r3, #0]
   83a56:	7911      	ldrb	r1, [r2, #4]
   83a58:	7119      	strb	r1, [r3, #4]
   83a5a:	4618      	mov	r0, r3
   83a5c:	f644 0379 	movw	r3, #18553	; 0x4879
   83a60:	f2c0 0308 	movt	r3, #8
   83a64:	4798      	blx	r3
	return SCPI_RES_OK;
}
   83a66:	f04f 0001 	mov.w	r0, #1
   83a6a:	bd08      	pop	{r3, pc}

00083a6c <SCPI_GetSDCardStatus>:

scpi_result_t SCPI_GetSDCardStatus(scpi_t * context)
{
   83a6c:	b508      	push	{r3, lr}
	printf("OK\x0D");
   83a6e:	f641 23e4 	movw	r3, #6884	; 0x1ae4
   83a72:	f2c2 0307 	movt	r3, #8199	; 0x2007
   83a76:	f64c 32e0 	movw	r2, #52192	; 0xcbe0
   83a7a:	f2c0 0208 	movt	r2, #8
   83a7e:	6810      	ldr	r0, [r2, #0]
   83a80:	6018      	str	r0, [r3, #0]
   83a82:	4618      	mov	r0, r3
   83a84:	f644 0179 	movw	r1, #18553	; 0x4879
   83a88:	f2c0 0108 	movt	r1, #8
   83a8c:	4788      	blx	r1
	return SCPI_RES_OK;
}
   83a8e:	f04f 0001 	mov.w	r0, #1
   83a92:	bd08      	pop	{r3, pc}

00083a94 <SCPI_LedStatus>:

scpi_result_t SCPI_LedStatus(scpi_t * context)
{
   83a94:	b508      	push	{r3, lr}
	printf("OK\x0D");
   83a96:	f641 23e4 	movw	r3, #6884	; 0x1ae4
   83a9a:	f2c2 0307 	movt	r3, #8199	; 0x2007
   83a9e:	f64c 32e0 	movw	r2, #52192	; 0xcbe0
   83aa2:	f2c0 0208 	movt	r2, #8
   83aa6:	6810      	ldr	r0, [r2, #0]
   83aa8:	6018      	str	r0, [r3, #0]
   83aaa:	4618      	mov	r0, r3
   83aac:	f644 0179 	movw	r1, #18553	; 0x4879
   83ab0:	f2c0 0108 	movt	r1, #8
   83ab4:	4788      	blx	r1
	return SCPI_RES_OK;
}
   83ab6:	f04f 0001 	mov.w	r0, #1
   83aba:	bd08      	pop	{r3, pc}

00083abc <SCPI_ButtonStatus>:

scpi_result_t SCPI_ButtonStatus(scpi_t * context)
{
   83abc:	b508      	push	{r3, lr}
	if(get_user_button_status() == RETURN_OK)
   83abe:	f242 5389 	movw	r3, #9609	; 0x2589
   83ac2:	f2c0 0308 	movt	r3, #8
   83ac6:	4798      	blx	r3
   83ac8:	2801      	cmp	r0, #1
   83aca:	d111      	bne.n	83af0 <SCPI_ButtonStatus+0x34>
	{
		printf("pushed\x0D");
   83acc:	f641 22e4 	movw	r2, #6884	; 0x1ae4
   83ad0:	f2c2 0207 	movt	r2, #8199	; 0x2007
   83ad4:	f64c 33e4 	movw	r3, #52196	; 0xcbe4
   83ad8:	f2c0 0308 	movt	r3, #8
   83adc:	cb03      	ldmia	r3!, {r0, r1}
   83ade:	6010      	str	r0, [r2, #0]
   83ae0:	6051      	str	r1, [r2, #4]
   83ae2:	4610      	mov	r0, r2
   83ae4:	f644 0179 	movw	r1, #18553	; 0x4879
   83ae8:	f2c0 0108 	movt	r1, #8
   83aec:	4788      	blx	r1
   83aee:	e012      	b.n	83b16 <SCPI_ButtonStatus+0x5a>
	} 
	else
	{
		printf("released\x0D");
   83af0:	f641 22e4 	movw	r2, #6884	; 0x1ae4
   83af4:	f2c2 0207 	movt	r2, #8199	; 0x2007
   83af8:	f64c 33ec 	movw	r3, #52204	; 0xcbec
   83afc:	f2c0 0308 	movt	r3, #8
   83b00:	cb03      	ldmia	r3!, {r0, r1}
   83b02:	6010      	str	r0, [r2, #0]
   83b04:	6051      	str	r1, [r2, #4]
   83b06:	8818      	ldrh	r0, [r3, #0]
   83b08:	8110      	strh	r0, [r2, #8]
   83b0a:	4610      	mov	r0, r2
   83b0c:	f644 0179 	movw	r1, #18553	; 0x4879
   83b10:	f2c0 0108 	movt	r1, #8
   83b14:	4788      	blx	r1
	}
	return SCPI_RES_OK;
}
   83b16:	f04f 0001 	mov.w	r0, #1
   83b1a:	bd08      	pop	{r3, pc}

00083b1c <SCPI_EEPROM_Read>:

scpi_result_t SCPI_EEPROM_Read(scpi_t * context)
{
	// TBD...
	return SCPI_RES_OK;
}
   83b1c:	f04f 0001 	mov.w	r0, #1
   83b20:	4770      	bx	lr
   83b22:	bf00      	nop

00083b24 <SCPI_EEPROM_Write>:

scpi_result_t SCPI_EEPROM_Write(scpi_t * context)
{
	// TBD...
	return SCPI_RES_OK;
}
   83b24:	f04f 0001 	mov.w	r0, #1
   83b28:	4770      	bx	lr
   83b2a:	bf00      	nop

00083b2c <SCPI_SetPower>:

scpi_result_t SCPI_SetPower(scpi_t * context)
{
   83b2c:	b530      	push	{r4, r5, lr}
   83b2e:	b083      	sub	sp, #12
	const char * param;
	size_t param_len;

	if(!SCPI_ParamString(context, &param, &param_len, true)) 
   83b30:	a901      	add	r1, sp, #4
   83b32:	466a      	mov	r2, sp
   83b34:	f04f 0301 	mov.w	r3, #1
   83b38:	f243 248d 	movw	r4, #12941	; 0x328d
   83b3c:	f2c0 0408 	movt	r4, #8
   83b40:	47a0      	blx	r4
   83b42:	2800      	cmp	r0, #0
   83b44:	d039      	beq.n	83bba <SCPI_SetPower+0x8e>
		return SCPI_RES_ERR;
		
	if(param_len >= 2)
   83b46:	9c00      	ldr	r4, [sp, #0]
   83b48:	2c01      	cmp	r4, #1
   83b4a:	d939      	bls.n	83bc0 <SCPI_SetPower+0x94>
	{
		if(strncmp(param, "ON", 2) == 0)
   83b4c:	9d01      	ldr	r5, [sp, #4]
   83b4e:	4628      	mov	r0, r5
   83b50:	f64c 31f8 	movw	r1, #52216	; 0xcbf8
   83b54:	f2c0 0108 	movt	r1, #8
   83b58:	f04f 0202 	mov.w	r2, #2
   83b5c:	f24a 0381 	movw	r3, #41089	; 0xa081
   83b60:	f2c0 0308 	movt	r3, #8
   83b64:	4798      	blx	r3
   83b66:	b960      	cbnz	r0, 83b82 <SCPI_SetPower+0x56>
		{
			enable_12v();
   83b68:	f242 53bd 	movw	r3, #9661	; 0x25bd
   83b6c:	f2c0 0308 	movt	r3, #8
   83b70:	4798      	blx	r3
			init_module_peripherals_ap();
   83b72:	f242 30d5 	movw	r0, #9173	; 0x23d5
   83b76:	f2c0 0008 	movt	r0, #8
   83b7a:	4780      	blx	r0
			return SCPI_RES_OK;
   83b7c:	f04f 0001 	mov.w	r0, #1
   83b80:	e026      	b.n	83bd0 <SCPI_SetPower+0xa4>
		}
		else if((param_len > 2) && (strncmp(param, "OFF", 3) == 0))
   83b82:	2c02      	cmp	r4, #2
   83b84:	d91f      	bls.n	83bc6 <SCPI_SetPower+0x9a>
   83b86:	4628      	mov	r0, r5
   83b88:	f64c 31fc 	movw	r1, #52220	; 0xcbfc
   83b8c:	f2c0 0108 	movt	r1, #8
   83b90:	f04f 0203 	mov.w	r2, #3
   83b94:	f24a 0381 	movw	r3, #41089	; 0xa081
   83b98:	f2c0 0308 	movt	r3, #8
   83b9c:	4798      	blx	r3
   83b9e:	b9a8      	cbnz	r0, 83bcc <SCPI_SetPower+0xa0>
		{
			deinit_module_peripherals();
   83ba0:	f242 31d9 	movw	r1, #9177	; 0x23d9
   83ba4:	f2c0 0108 	movt	r1, #8
   83ba8:	4788      	blx	r1
			disable_12v();
   83baa:	f242 52cd 	movw	r2, #9677	; 0x25cd
   83bae:	f2c0 0208 	movt	r2, #8
   83bb2:	4790      	blx	r2
			return SCPI_RES_OK;
   83bb4:	f04f 0001 	mov.w	r0, #1
   83bb8:	e00a      	b.n	83bd0 <SCPI_SetPower+0xa4>
{
	const char * param;
	size_t param_len;

	if(!SCPI_ParamString(context, &param, &param_len, true)) 
		return SCPI_RES_ERR;
   83bba:	f04f 00ff 	mov.w	r0, #255	; 0xff
   83bbe:	e007      	b.n	83bd0 <SCPI_SetPower+0xa4>
			return SCPI_RES_ERR;
		}
	}
	else
	{
		return SCPI_RES_OK;
   83bc0:	f04f 0001 	mov.w	r0, #1
   83bc4:	e004      	b.n	83bd0 <SCPI_SetPower+0xa4>
			disable_12v();
			return SCPI_RES_OK;
		}
		else
		{
			return SCPI_RES_ERR;
   83bc6:	f04f 00ff 	mov.w	r0, #255	; 0xff
   83bca:	e001      	b.n	83bd0 <SCPI_SetPower+0xa4>
   83bcc:	f04f 00ff 	mov.w	r0, #255	; 0xff
	{
		return SCPI_RES_OK;
	}
	
	return SCPI_RES_OK;
}
   83bd0:	b240      	sxtb	r0, r0
   83bd2:	b003      	add	sp, #12
   83bd4:	bd30      	pop	{r4, r5, pc}
   83bd6:	bf00      	nop

00083bd8 <SCPI_SetUserLed>:

scpi_result_t SCPI_SetUserLed(scpi_t * context)
{
   83bd8:	e92d 47f0 	stmdb	sp!, {r4, r5, r6, r7, r8, r9, sl, lr}
   83bdc:	b084      	sub	sp, #16
   83bde:	4604      	mov	r4, r0
	uint32_t param1, param2, param3;
	
	// read first parameter if present
	if (!SCPI_ParamInt(context, &param1, true)) {
   83be0:	a903      	add	r1, sp, #12
   83be2:	f04f 0201 	mov.w	r2, #1
   83be6:	f243 23fd 	movw	r3, #13053	; 0x32fd
   83bea:	f2c0 0308 	movt	r3, #8
   83bee:	4798      	blx	r3
   83bf0:	2800      	cmp	r0, #0
   83bf2:	d046      	beq.n	83c82 <SCPI_SetUserLed+0xaa>
		// do something, if parameter not present
		return SCPI_RES_ERR;
	}

	// read second paraeter if present
	if (!SCPI_ParamInt(context, &param2, true)) {
   83bf4:	4620      	mov	r0, r4
   83bf6:	a902      	add	r1, sp, #8
   83bf8:	f04f 0201 	mov.w	r2, #1
   83bfc:	f243 23fd 	movw	r3, #13053	; 0x32fd
   83c00:	f2c0 0308 	movt	r3, #8
   83c04:	4798      	blx	r3
   83c06:	2800      	cmp	r0, #0
   83c08:	d03e      	beq.n	83c88 <SCPI_SetUserLed+0xb0>
		// do something, if parameter not present
		return SCPI_RES_ERR;
	}

	// read second paraeter if present
	if (!SCPI_ParamInt(context, &param3, true)) {
   83c0a:	4620      	mov	r0, r4
   83c0c:	a901      	add	r1, sp, #4
   83c0e:	f04f 0201 	mov.w	r2, #1
   83c12:	f243 23fd 	movw	r3, #13053	; 0x32fd
   83c16:	f2c0 0308 	movt	r3, #8
   83c1a:	4798      	blx	r3
   83c1c:	2800      	cmp	r0, #0
   83c1e:	d036      	beq.n	83c8e <SCPI_SetUserLed+0xb6>
		// do something, if parameter not present
		return SCPI_RES_ERR;
	}

	set_user_led_colour((uint16_t)round(param1), (uint16_t)round(param2), (uint16_t)round(param3));
   83c20:	f649 49e1 	movw	r9, #40161	; 0x9ce1
   83c24:	f2c0 0908 	movt	r9, #8
   83c28:	9803      	ldr	r0, [sp, #12]
   83c2a:	47c8      	blx	r9
   83c2c:	f649 18c9 	movw	r8, #39369	; 0x99c9
   83c30:	f2c0 0808 	movt	r8, #8
   83c34:	47c0      	blx	r8
   83c36:	4606      	mov	r6, r0
   83c38:	460f      	mov	r7, r1
   83c3a:	9802      	ldr	r0, [sp, #8]
   83c3c:	47c8      	blx	r9
   83c3e:	47c0      	blx	r8
   83c40:	4604      	mov	r4, r0
   83c42:	460d      	mov	r5, r1
   83c44:	9801      	ldr	r0, [sp, #4]
   83c46:	47c8      	blx	r9
   83c48:	47c0      	blx	r8
   83c4a:	4680      	mov	r8, r0
   83c4c:	4689      	mov	r9, r1
   83c4e:	f649 5acd 	movw	sl, #40397	; 0x9dcd
   83c52:	f2c0 0a08 	movt	sl, #8
   83c56:	4630      	mov	r0, r6
   83c58:	4639      	mov	r1, r7
   83c5a:	47d0      	blx	sl
   83c5c:	b286      	uxth	r6, r0
   83c5e:	4620      	mov	r0, r4
   83c60:	4629      	mov	r1, r5
   83c62:	47d0      	blx	sl
   83c64:	b284      	uxth	r4, r0
   83c66:	4640      	mov	r0, r8
   83c68:	4649      	mov	r1, r9
   83c6a:	47d0      	blx	sl
   83c6c:	b282      	uxth	r2, r0
   83c6e:	4630      	mov	r0, r6
   83c70:	4621      	mov	r1, r4
   83c72:	f242 5345 	movw	r3, #9541	; 0x2545
   83c76:	f2c0 0308 	movt	r3, #8
   83c7a:	4798      	blx	r3
	return SCPI_RES_OK;
   83c7c:	f04f 0001 	mov.w	r0, #1
   83c80:	e007      	b.n	83c92 <SCPI_SetUserLed+0xba>
	uint32_t param1, param2, param3;
	
	// read first parameter if present
	if (!SCPI_ParamInt(context, &param1, true)) {
		// do something, if parameter not present
		return SCPI_RES_ERR;
   83c82:	f04f 00ff 	mov.w	r0, #255	; 0xff
   83c86:	e004      	b.n	83c92 <SCPI_SetUserLed+0xba>
	}

	// read second paraeter if present
	if (!SCPI_ParamInt(context, &param2, true)) {
		// do something, if parameter not present
		return SCPI_RES_ERR;
   83c88:	f04f 00ff 	mov.w	r0, #255	; 0xff
   83c8c:	e001      	b.n	83c92 <SCPI_SetUserLed+0xba>
	}

	// read second paraeter if present
	if (!SCPI_ParamInt(context, &param3, true)) {
		// do something, if parameter not present
		return SCPI_RES_ERR;
   83c8e:	f04f 00ff 	mov.w	r0, #255	; 0xff
	}

	set_user_led_colour((uint16_t)round(param1), (uint16_t)round(param2), (uint16_t)round(param3));
	return SCPI_RES_OK;
   83c92:	b240      	sxtb	r0, r0
   83c94:	b004      	add	sp, #16
   83c96:	e8bd 87f0 	ldmia.w	sp!, {r4, r5, r6, r7, r8, r9, sl, pc}
   83c9a:	bf00      	nop

00083c9c <SCPI_SetDelayChannelA>:
#include "peripherals_module.h"
#include <math.h>


scpi_result_t SCPI_SetDelayChannelA(scpi_t* context)
{
   83c9c:	b500      	push	{lr}
   83c9e:	b083      	sub	sp, #12
	uint32_t param;
	
	// read first parameter if present
	if (!SCPI_ParamInt(context, &param, true)) {
   83ca0:	a901      	add	r1, sp, #4
   83ca2:	f04f 0201 	mov.w	r2, #1
   83ca6:	f243 23fd 	movw	r3, #13053	; 0x32fd
   83caa:	f2c0 0308 	movt	r3, #8
   83cae:	4798      	blx	r3
   83cb0:	b300      	cbz	r0, 83cf4 <SCPI_SetDelayChannelA+0x58>
		// do something, if parameter not present
		return SCPI_RES_ERR;
	}
	
	setup_channel1_delay((uint16_t)round(param/5));
   83cb2:	f64c 41cd 	movw	r1, #52429	; 0xcccd
   83cb6:	f6cc 41cc 	movt	r1, #52428	; 0xcccc
   83cba:	9801      	ldr	r0, [sp, #4]
   83cbc:	fba1 2300 	umull	r2, r3, r1, r0
   83cc0:	ea4f 0093 	mov.w	r0, r3, lsr #2
   83cc4:	f649 42e1 	movw	r2, #40161	; 0x9ce1
   83cc8:	f2c0 0208 	movt	r2, #8
   83ccc:	4790      	blx	r2
   83cce:	f649 13c9 	movw	r3, #39369	; 0x99c9
   83cd2:	f2c0 0308 	movt	r3, #8
   83cd6:	4798      	blx	r3
   83cd8:	f649 52cd 	movw	r2, #40397	; 0x9dcd
   83cdc:	f2c0 0208 	movt	r2, #8
   83ce0:	4790      	blx	r2
   83ce2:	b280      	uxth	r0, r0
   83ce4:	f242 314d 	movw	r1, #9037	; 0x234d
   83ce8:	f2c0 0108 	movt	r1, #8
   83cec:	4788      	blx	r1
	return SCPI_RES_OK;
   83cee:	f04f 0001 	mov.w	r0, #1
   83cf2:	e001      	b.n	83cf8 <SCPI_SetDelayChannelA+0x5c>
	uint32_t param;
	
	// read first parameter if present
	if (!SCPI_ParamInt(context, &param, true)) {
		// do something, if parameter not present
		return SCPI_RES_ERR;
   83cf4:	f04f 00ff 	mov.w	r0, #255	; 0xff
	}
	
	setup_channel1_delay((uint16_t)round(param/5));
	return SCPI_RES_OK;
}
   83cf8:	b240      	sxtb	r0, r0
   83cfa:	b003      	add	sp, #12
   83cfc:	bd00      	pop	{pc}
   83cfe:	bf00      	nop

00083d00 <SCPI_SetDelayChannelB>:

scpi_result_t SCPI_SetDelayChannelB(scpi_t* context)
{
   83d00:	b500      	push	{lr}
   83d02:	b083      	sub	sp, #12
	uint32_t param;
	
	// read first parameter if present
	if (!SCPI_ParamInt(context, &param, true)) {
   83d04:	a901      	add	r1, sp, #4
   83d06:	f04f 0201 	mov.w	r2, #1
   83d0a:	f243 23fd 	movw	r3, #13053	; 0x32fd
   83d0e:	f2c0 0308 	movt	r3, #8
   83d12:	4798      	blx	r3
   83d14:	b300      	cbz	r0, 83d58 <SCPI_SetDelayChannelB+0x58>
		// do something, if parameter not present
		return SCPI_RES_ERR;
	}
	
	setup_channel2_delay((uint16_t)round(param/5));
   83d16:	f64c 41cd 	movw	r1, #52429	; 0xcccd
   83d1a:	f6cc 41cc 	movt	r1, #52428	; 0xcccc
   83d1e:	9801      	ldr	r0, [sp, #4]
   83d20:	fba1 2300 	umull	r2, r3, r1, r0
   83d24:	ea4f 0093 	mov.w	r0, r3, lsr #2
   83d28:	f649 42e1 	movw	r2, #40161	; 0x9ce1
   83d2c:	f2c0 0208 	movt	r2, #8
   83d30:	4790      	blx	r2
   83d32:	f649 13c9 	movw	r3, #39369	; 0x99c9
   83d36:	f2c0 0308 	movt	r3, #8
   83d3a:	4798      	blx	r3
   83d3c:	f649 52cd 	movw	r2, #40397	; 0x9dcd
   83d40:	f2c0 0208 	movt	r2, #8
   83d44:	4790      	blx	r2
   83d46:	b280      	uxth	r0, r0
   83d48:	f242 3171 	movw	r1, #9073	; 0x2371
   83d4c:	f2c0 0108 	movt	r1, #8
   83d50:	4788      	blx	r1
	return SCPI_RES_OK;
   83d52:	f04f 0001 	mov.w	r0, #1
   83d56:	e001      	b.n	83d5c <SCPI_SetDelayChannelB+0x5c>
	uint32_t param;
	
	// read first parameter if present
	if (!SCPI_ParamInt(context, &param, true)) {
		// do something, if parameter not present
		return SCPI_RES_ERR;
   83d58:	f04f 00ff 	mov.w	r0, #255	; 0xff
	}
	
	setup_channel2_delay((uint16_t)round(param/5));
	return SCPI_RES_OK;
}
   83d5c:	b240      	sxtb	r0, r0
   83d5e:	b003      	add	sp, #12
   83d60:	bd00      	pop	{pc}
   83d62:	bf00      	nop

00083d64 <SCPI_GetDelayChannelA>:

scpi_result_t SCPI_GetDelayChannelA(scpi_t* context)
{
   83d64:	b538      	push	{r3, r4, r5, lr}
	printf("%u\x0D", get_channel1_delay()*5);
   83d66:	f242 3395 	movw	r3, #9109	; 0x2395
   83d6a:	f2c0 0308 	movt	r3, #8
   83d6e:	4798      	blx	r3
   83d70:	f641 24e4 	movw	r4, #6884	; 0x1ae4
   83d74:	f2c2 0407 	movt	r4, #8199	; 0x2007
   83d78:	eb00 0380 	add.w	r3, r0, r0, lsl #2
   83d7c:	4620      	mov	r0, r4
   83d7e:	f04f 0164 	mov.w	r1, #100	; 0x64
   83d82:	f64c 4200 	movw	r2, #52224	; 0xcc00
   83d86:	f2c0 0208 	movt	r2, #8
   83d8a:	f649 75c7 	movw	r5, #40903	; 0x9fc7
   83d8e:	f2c0 0508 	movt	r5, #8
   83d92:	47a8      	blx	r5
   83d94:	4620      	mov	r0, r4
   83d96:	f644 0179 	movw	r1, #18553	; 0x4879
   83d9a:	f2c0 0108 	movt	r1, #8
   83d9e:	4788      	blx	r1
	return SCPI_RES_OK;
}
   83da0:	f04f 0001 	mov.w	r0, #1
   83da4:	bd38      	pop	{r3, r4, r5, pc}
   83da6:	bf00      	nop

00083da8 <SCPI_GetDelayChannelB>:

scpi_result_t SCPI_GetDelayChannelB(scpi_t* context)
{
   83da8:	b538      	push	{r3, r4, r5, lr}
	printf("%u\x0D", get_channel2_delay()*5);
   83daa:	f242 33b5 	movw	r3, #9141	; 0x23b5
   83dae:	f2c0 0308 	movt	r3, #8
   83db2:	4798      	blx	r3
   83db4:	f641 24e4 	movw	r4, #6884	; 0x1ae4
   83db8:	f2c2 0407 	movt	r4, #8199	; 0x2007
   83dbc:	eb00 0380 	add.w	r3, r0, r0, lsl #2
   83dc0:	4620      	mov	r0, r4
   83dc2:	f04f 0164 	mov.w	r1, #100	; 0x64
   83dc6:	f64c 4200 	movw	r2, #52224	; 0xcc00
   83dca:	f2c0 0208 	movt	r2, #8
   83dce:	f649 75c7 	movw	r5, #40903	; 0x9fc7
   83dd2:	f2c0 0508 	movt	r5, #8
   83dd6:	47a8      	blx	r5
   83dd8:	4620      	mov	r0, r4
   83dda:	f644 0179 	movw	r1, #18553	; 0x4879
   83dde:	f2c0 0108 	movt	r1, #8
   83de2:	4788      	blx	r1
	return SCPI_RES_OK;
}
   83de4:	f04f 0001 	mov.w	r0, #1
   83de8:	bd38      	pop	{r3, r4, r5, pc}
   83dea:	bf00      	nop

00083dec <SCPI_EnableChannelA>:

scpi_result_t SCPI_EnableChannelA(scpi_t* context)
{
   83dec:	b500      	push	{lr}
   83dee:	b083      	sub	sp, #12
	uint32_t param;
	
	// read first parameter if present
	if (!SCPI_ParamInt(context, &param, true)) {
   83df0:	a901      	add	r1, sp, #4
   83df2:	f04f 0201 	mov.w	r2, #1
   83df6:	f243 23fd 	movw	r3, #13053	; 0x32fd
   83dfa:	f2c0 0308 	movt	r3, #8
   83dfe:	4798      	blx	r3
   83e00:	b1a8      	cbz	r0, 83e2e <SCPI_EnableChannelA+0x42>
		// do something, if parameter not present
		return SCPI_RES_ERR;
	}
	
	if(param == 0)
   83e02:	9801      	ldr	r0, [sp, #4]
   83e04:	b948      	cbnz	r0, 83e1a <SCPI_EnableChannelA+0x2e>
		enable_disable_ch1_delay(FALSE);
   83e06:	f04f 0000 	mov.w	r0, #0
   83e0a:	f242 2221 	movw	r2, #8737	; 0x2221
   83e0e:	f2c0 0208 	movt	r2, #8
   83e12:	4790      	blx	r2
	else
		enable_disable_ch1_delay(TRUE);
	
	return SCPI_RES_OK;
   83e14:	f04f 0301 	mov.w	r3, #1
   83e18:	e00b      	b.n	83e32 <SCPI_EnableChannelA+0x46>
	}
	
	if(param == 0)
		enable_disable_ch1_delay(FALSE);
	else
		enable_disable_ch1_delay(TRUE);
   83e1a:	f04f 0001 	mov.w	r0, #1
   83e1e:	f242 2121 	movw	r1, #8737	; 0x2221
   83e22:	f2c0 0108 	movt	r1, #8
   83e26:	4788      	blx	r1
	
	return SCPI_RES_OK;
   83e28:	f04f 0301 	mov.w	r3, #1
   83e2c:	e001      	b.n	83e32 <SCPI_EnableChannelA+0x46>
	uint32_t param;
	
	// read first parameter if present
	if (!SCPI_ParamInt(context, &param, true)) {
		// do something, if parameter not present
		return SCPI_RES_ERR;
   83e2e:	f04f 03ff 	mov.w	r3, #255	; 0xff
		enable_disable_ch1_delay(FALSE);
	else
		enable_disable_ch1_delay(TRUE);
	
	return SCPI_RES_OK;
}
   83e32:	b258      	sxtb	r0, r3
   83e34:	b003      	add	sp, #12
   83e36:	bd00      	pop	{pc}

00083e38 <SCPI_EnableChannelB>:

scpi_result_t SCPI_EnableChannelB(scpi_t* context)
{
   83e38:	b500      	push	{lr}
   83e3a:	b083      	sub	sp, #12
	uint32_t param;
	
	// read first parameter if present
	if (!SCPI_ParamInt(context, &param, true)) {
   83e3c:	a901      	add	r1, sp, #4
   83e3e:	f04f 0201 	mov.w	r2, #1
   83e42:	f243 23fd 	movw	r3, #13053	; 0x32fd
   83e46:	f2c0 0308 	movt	r3, #8
   83e4a:	4798      	blx	r3
   83e4c:	b1a8      	cbz	r0, 83e7a <SCPI_EnableChannelB+0x42>
		// do something, if parameter not present
		return SCPI_RES_ERR;
	}
	
	if(param == 0)
   83e4e:	9801      	ldr	r0, [sp, #4]
   83e50:	b948      	cbnz	r0, 83e66 <SCPI_EnableChannelB+0x2e>
		enable_disable_ch2_delay(FALSE);
   83e52:	f04f 0000 	mov.w	r0, #0
   83e56:	f242 225d 	movw	r2, #8797	; 0x225d
   83e5a:	f2c0 0208 	movt	r2, #8
   83e5e:	4790      	blx	r2
	else
		enable_disable_ch2_delay(TRUE);
	
	return SCPI_RES_OK;
   83e60:	f04f 0301 	mov.w	r3, #1
   83e64:	e00b      	b.n	83e7e <SCPI_EnableChannelB+0x46>
	}
	
	if(param == 0)
		enable_disable_ch2_delay(FALSE);
	else
		enable_disable_ch2_delay(TRUE);
   83e66:	f04f 0001 	mov.w	r0, #1
   83e6a:	f242 215d 	movw	r1, #8797	; 0x225d
   83e6e:	f2c0 0108 	movt	r1, #8
   83e72:	4788      	blx	r1
	
	return SCPI_RES_OK;
   83e74:	f04f 0301 	mov.w	r3, #1
   83e78:	e001      	b.n	83e7e <SCPI_EnableChannelB+0x46>
	uint32_t param;
	
	// read first parameter if present
	if (!SCPI_ParamInt(context, &param, true)) {
		// do something, if parameter not present
		return SCPI_RES_ERR;
   83e7a:	f04f 03ff 	mov.w	r3, #255	; 0xff
		enable_disable_ch2_delay(FALSE);
	else
		enable_disable_ch2_delay(TRUE);
	
	return SCPI_RES_OK;
}
   83e7e:	b258      	sxtb	r0, r3
   83e80:	b003      	add	sp, #12
   83e82:	bd00      	pop	{pc}

00083e84 <SCPI_GetEnableChannelA>:

scpi_result_t SCPI_GetEnableChannelA(scpi_t* context)
{
   83e84:	b538      	push	{r3, r4, r5, lr}
	printf("%u\x0D", is_channel1_delay_enabled());
   83e86:	f242 2309 	movw	r3, #8713	; 0x2209
   83e8a:	f2c0 0308 	movt	r3, #8
   83e8e:	4798      	blx	r3
   83e90:	4603      	mov	r3, r0
   83e92:	f641 24e4 	movw	r4, #6884	; 0x1ae4
   83e96:	f2c2 0407 	movt	r4, #8199	; 0x2007
   83e9a:	4620      	mov	r0, r4
   83e9c:	f04f 0164 	mov.w	r1, #100	; 0x64
   83ea0:	f64c 4200 	movw	r2, #52224	; 0xcc00
   83ea4:	f2c0 0208 	movt	r2, #8
   83ea8:	f649 75c7 	movw	r5, #40903	; 0x9fc7
   83eac:	f2c0 0508 	movt	r5, #8
   83eb0:	47a8      	blx	r5
   83eb2:	4620      	mov	r0, r4
   83eb4:	f644 0179 	movw	r1, #18553	; 0x4879
   83eb8:	f2c0 0108 	movt	r1, #8
   83ebc:	4788      	blx	r1
	return SCPI_RES_OK;
}
   83ebe:	f04f 0001 	mov.w	r0, #1
   83ec2:	bd38      	pop	{r3, r4, r5, pc}

00083ec4 <SCPI_GetEnableChannelB>:

scpi_result_t SCPI_GetEnableChannelB(scpi_t* context)
{
   83ec4:	b538      	push	{r3, r4, r5, lr}
	printf("%u\x0D", is_channel2_delay_enabled());
   83ec6:	f242 2315 	movw	r3, #8725	; 0x2215
   83eca:	f2c0 0308 	movt	r3, #8
   83ece:	4798      	blx	r3
   83ed0:	4603      	mov	r3, r0
   83ed2:	f641 24e4 	movw	r4, #6884	; 0x1ae4
   83ed6:	f2c2 0407 	movt	r4, #8199	; 0x2007
   83eda:	4620      	mov	r0, r4
   83edc:	f04f 0164 	mov.w	r1, #100	; 0x64
   83ee0:	f64c 4200 	movw	r2, #52224	; 0xcc00
   83ee4:	f2c0 0208 	movt	r2, #8
   83ee8:	f649 75c7 	movw	r5, #40903	; 0x9fc7
   83eec:	f2c0 0508 	movt	r5, #8
   83ef0:	47a8      	blx	r5
   83ef2:	4620      	mov	r0, r4
   83ef4:	f644 0179 	movw	r1, #18553	; 0x4879
   83ef8:	f2c0 0108 	movt	r1, #8
   83efc:	4788      	blx	r1
	return SCPI_RES_OK;
}
   83efe:	f04f 0001 	mov.w	r0, #1
   83f02:	bd38      	pop	{r3, r4, r5, pc}

00083f04 <sd_mmc_test_unit_ready>:
   83f04:	b510      	push	{r4, lr}
   83f06:	4604      	mov	r4, r0
   83f08:	f240 4395 	movw	r3, #1173	; 0x495
   83f0c:	f2c0 0308 	movt	r3, #8
   83f10:	4798      	blx	r3
   83f12:	2801      	cmp	r0, #1
   83f14:	d003      	beq.n	83f1e <sd_mmc_test_unit_ready+0x1a>
   83f16:	b128      	cbz	r0, 83f24 <sd_mmc_test_unit_ready+0x20>
   83f18:	2802      	cmp	r0, #2
   83f1a:	d120      	bne.n	83f5e <sd_mmc_test_unit_ready+0x5a>
   83f1c:	e015      	b.n	83f4a <sd_mmc_test_unit_ready+0x46>
   83f1e:	f04f 0003 	mov.w	r0, #3
   83f22:	bd10      	pop	{r4, pc}
   83f24:	f640 4150 	movw	r1, #3152	; 0xc50
   83f28:	f2c2 0107 	movt	r1, #8199	; 0x2007
   83f2c:	5d0b      	ldrb	r3, [r1, r4]
   83f2e:	b9cb      	cbnz	r3, 83f64 <sd_mmc_test_unit_ready+0x60>
   83f30:	4620      	mov	r0, r4
   83f32:	f241 022d 	movw	r2, #4141	; 0x102d
   83f36:	f2c0 0208 	movt	r2, #8
   83f3a:	4790      	blx	r2
   83f3c:	f000 0003 	and.w	r0, r0, #3
   83f40:	2800      	cmp	r0, #0
   83f42:	bf0c      	ite	eq
   83f44:	2002      	moveq	r0, #2
   83f46:	2000      	movne	r0, #0
   83f48:	bd10      	pop	{r4, pc}
   83f4a:	f640 4050 	movw	r0, #3152	; 0xc50
   83f4e:	f2c2 0007 	movt	r0, #8199	; 0x2007
   83f52:	f04f 0200 	mov.w	r2, #0
   83f56:	5502      	strb	r2, [r0, r4]
   83f58:	f04f 0002 	mov.w	r0, #2
   83f5c:	bd10      	pop	{r4, pc}
   83f5e:	f04f 0001 	mov.w	r0, #1
   83f62:	bd10      	pop	{r4, pc}
   83f64:	f04f 0002 	mov.w	r0, #2
   83f68:	bd10      	pop	{r4, pc}
   83f6a:	bf00      	nop

00083f6c <sd_mmc_test_unit_ready_0>:
   83f6c:	b508      	push	{r3, lr}
   83f6e:	f04f 0000 	mov.w	r0, #0
   83f72:	f643 7305 	movw	r3, #16133	; 0x3f05
   83f76:	f2c0 0308 	movt	r3, #8
   83f7a:	4798      	blx	r3
   83f7c:	bd08      	pop	{r3, pc}
   83f7e:	bf00      	nop

00083f80 <sd_mmc_read_capacity>:
   83f80:	b538      	push	{r3, r4, r5, lr}
   83f82:	4604      	mov	r4, r0
   83f84:	460d      	mov	r5, r1
   83f86:	f241 0359 	movw	r3, #4185	; 0x1059
   83f8a:	f2c0 0308 	movt	r3, #8
   83f8e:	4798      	blx	r3
   83f90:	ea4f 0040 	mov.w	r0, r0, lsl #1
   83f94:	f100 31ff 	add.w	r1, r0, #4294967295
   83f98:	6029      	str	r1, [r5, #0]
   83f9a:	4620      	mov	r0, r4
   83f9c:	f643 7205 	movw	r2, #16133	; 0x3f05
   83fa0:	f2c0 0208 	movt	r2, #8
   83fa4:	4790      	blx	r2
   83fa6:	bd38      	pop	{r3, r4, r5, pc}

00083fa8 <sd_mmc_read_capacity_0>:
   83fa8:	b508      	push	{r3, lr}
   83faa:	4601      	mov	r1, r0
   83fac:	f04f 0000 	mov.w	r0, #0
   83fb0:	f643 7381 	movw	r3, #16257	; 0x3f81
   83fb4:	f2c0 0308 	movt	r3, #8
   83fb8:	4798      	blx	r3
   83fba:	bd08      	pop	{r3, pc}

00083fbc <sd_mmc_wr_protect>:
   83fbc:	b508      	push	{r3, lr}
   83fbe:	f241 0385 	movw	r3, #4229	; 0x1085
   83fc2:	f2c0 0308 	movt	r3, #8
   83fc6:	4798      	blx	r3
   83fc8:	bd08      	pop	{r3, pc}
   83fca:	bf00      	nop

00083fcc <sd_mmc_wr_protect_0>:
   83fcc:	b508      	push	{r3, lr}
   83fce:	f04f 0000 	mov.w	r0, #0
   83fd2:	f643 73bd 	movw	r3, #16317	; 0x3fbd
   83fd6:	f2c0 0308 	movt	r3, #8
   83fda:	4798      	blx	r3
   83fdc:	bd08      	pop	{r3, pc}
   83fde:	bf00      	nop

00083fe0 <sd_mmc_removal>:
   83fe0:	f04f 0001 	mov.w	r0, #1
   83fe4:	4770      	bx	lr
   83fe6:	bf00      	nop

00083fe8 <sd_mmc_removal_0>:
   83fe8:	b508      	push	{r3, lr}
   83fea:	f04f 0000 	mov.w	r0, #0
   83fee:	f643 73e1 	movw	r3, #16353	; 0x3fe1
   83ff2:	f2c0 0308 	movt	r3, #8
   83ff6:	4798      	blx	r3
   83ff8:	bd08      	pop	{r3, pc}
   83ffa:	bf00      	nop

00083ffc <sd_mmc_usb_read_10>:
   83ffc:	e92d 41f0 	stmdb	sp!, {r4, r5, r6, r7, r8, lr}
   84000:	4614      	mov	r4, r2
   84002:	f241 038d 	movw	r3, #4237	; 0x108d
   84006:	f2c0 0308 	movt	r3, #8
   8400a:	4798      	blx	r3
   8400c:	4601      	mov	r1, r0
   8400e:	b370      	cbz	r0, 8406e <sd_mmc_usb_read_10+0x72>
   84010:	2802      	cmp	r0, #2
   84012:	bf0c      	ite	eq
   84014:	2002      	moveq	r0, #2
   84016:	2001      	movne	r0, #1
   84018:	e8bd 81f0 	ldmia.w	sp!, {r4, r5, r6, r7, r8, pc}
   8401c:	b144      	cbz	r4, 84030 <sd_mmc_usb_read_10+0x34>
   8401e:	f014 0f01 	tst.w	r4, #1
   84022:	bf0c      	ite	eq
   84024:	4638      	moveq	r0, r7
   84026:	4640      	movne	r0, r8
   84028:	f04f 0101 	mov.w	r1, #1
   8402c:	47b0      	blx	r6
   8402e:	bba0      	cbnz	r0, 8409a <sd_mmc_usb_read_10+0x9e>
   84030:	b985      	cbnz	r5, 84054 <sd_mmc_usb_read_10+0x58>
   84032:	f014 0f01 	tst.w	r4, #1
   84036:	bf0c      	ite	eq
   84038:	4641      	moveq	r1, r8
   8403a:	4639      	movne	r1, r7
   8403c:	f04f 0001 	mov.w	r0, #1
   84040:	f44f 7200 	mov.w	r2, #512	; 0x200
   84044:	f04f 0300 	mov.w	r3, #0
   84048:	f246 4531 	movw	r5, #25649	; 0x6431
   8404c:	f2c0 0508 	movt	r5, #8
   84050:	47a8      	blx	r5
   84052:	b330      	cbz	r0, 840a2 <sd_mmc_usb_read_10+0xa6>
   84054:	b12c      	cbz	r4, 84062 <sd_mmc_usb_read_10+0x66>
   84056:	f241 2015 	movw	r0, #4629	; 0x1215
   8405a:	f2c0 0008 	movt	r0, #8
   8405e:	4780      	blx	r0
   84060:	bb18      	cbnz	r0, 840aa <sd_mmc_usb_read_10+0xae>
   84062:	f104 34ff 	add.w	r4, r4, #4294967295
   84066:	b2a4      	uxth	r4, r4
   84068:	f04f 0500 	mov.w	r5, #0
   8406c:	e00d      	b.n	8408a <sd_mmc_usb_read_10+0x8e>
   8406e:	f04f 0501 	mov.w	r5, #1
   84072:	f241 16dd 	movw	r6, #4573	; 0x11dd
   84076:	f2c0 0608 	movt	r6, #8
   8407a:	f241 68e4 	movw	r8, #5860	; 0x16e4
   8407e:	f2c2 0807 	movt	r8, #8199	; 0x2007
   84082:	f641 07e4 	movw	r7, #6372	; 0x18e4
   84086:	f2c2 0707 	movt	r7, #8199	; 0x2007
   8408a:	f64f 72ff 	movw	r2, #65535	; 0xffff
   8408e:	4294      	cmp	r4, r2
   84090:	d1c4      	bne.n	8401c <sd_mmc_usb_read_10+0x20>
   84092:	f04f 0000 	mov.w	r0, #0
   84096:	e8bd 81f0 	ldmia.w	sp!, {r4, r5, r6, r7, r8, pc}
   8409a:	f04f 0001 	mov.w	r0, #1
   8409e:	e8bd 81f0 	ldmia.w	sp!, {r4, r5, r6, r7, r8, pc}
   840a2:	f04f 0001 	mov.w	r0, #1
   840a6:	e8bd 81f0 	ldmia.w	sp!, {r4, r5, r6, r7, r8, pc}
   840aa:	f04f 0001 	mov.w	r0, #1
   840ae:	e8bd 81f0 	ldmia.w	sp!, {r4, r5, r6, r7, r8, pc}
   840b2:	bf00      	nop

000840b4 <sd_mmc_usb_read_10_0>:
   840b4:	b508      	push	{r3, lr}
   840b6:	4603      	mov	r3, r0
   840b8:	460a      	mov	r2, r1
   840ba:	f04f 0000 	mov.w	r0, #0
   840be:	4619      	mov	r1, r3
   840c0:	f643 73fd 	movw	r3, #16381	; 0x3ffd
   840c4:	f2c0 0308 	movt	r3, #8
   840c8:	4798      	blx	r3
   840ca:	bd08      	pop	{r3, pc}

000840cc <sd_mmc_usb_write_10>:
   840cc:	e92d 41f0 	stmdb	sp!, {r4, r5, r6, r7, r8, lr}
   840d0:	4614      	mov	r4, r2
   840d2:	f241 2395 	movw	r3, #4757	; 0x1295
   840d6:	f2c0 0308 	movt	r3, #8
   840da:	4798      	blx	r3
   840dc:	4601      	mov	r1, r0
   840de:	b368      	cbz	r0, 8413c <sd_mmc_usb_write_10+0x70>
   840e0:	2802      	cmp	r0, #2
   840e2:	bf0c      	ite	eq
   840e4:	2002      	moveq	r0, #2
   840e6:	2001      	movne	r0, #1
   840e8:	e8bd 81f0 	ldmia.w	sp!, {r4, r5, r6, r7, r8, pc}
   840ec:	b945      	cbnz	r5, 84100 <sd_mmc_usb_write_10+0x34>
   840ee:	f014 0f01 	tst.w	r4, #1
   840f2:	bf0c      	ite	eq
   840f4:	4638      	moveq	r0, r7
   840f6:	4640      	movne	r0, r8
   840f8:	f04f 0101 	mov.w	r1, #1
   840fc:	47b0      	blx	r6
   840fe:	bb98      	cbnz	r0, 84168 <sd_mmc_usb_write_10+0x9c>
   84100:	b17c      	cbz	r4, 84122 <sd_mmc_usb_write_10+0x56>
   84102:	f014 0f01 	tst.w	r4, #1
   84106:	bf0c      	ite	eq
   84108:	4641      	moveq	r1, r8
   8410a:	4639      	movne	r1, r7
   8410c:	f04f 0000 	mov.w	r0, #0
   84110:	f44f 7200 	mov.w	r2, #512	; 0x200
   84114:	4603      	mov	r3, r0
   84116:	f246 4c31 	movw	ip, #25649	; 0x6431
   8411a:	f2c0 0c08 	movt	ip, #8
   8411e:	47e0      	blx	ip
   84120:	b330      	cbz	r0, 84170 <sd_mmc_usb_write_10+0xa4>
   84122:	b92d      	cbnz	r5, 84130 <sd_mmc_usb_write_10+0x64>
   84124:	f241 30a1 	movw	r0, #5025	; 0x13a1
   84128:	f2c0 0008 	movt	r0, #8
   8412c:	4780      	blx	r0
   8412e:	bb18      	cbnz	r0, 84178 <sd_mmc_usb_write_10+0xac>
   84130:	f104 34ff 	add.w	r4, r4, #4294967295
   84134:	b2a4      	uxth	r4, r4
   84136:	f04f 0500 	mov.w	r5, #0
   8413a:	e00d      	b.n	84158 <sd_mmc_usb_write_10+0x8c>
   8413c:	f04f 0501 	mov.w	r5, #1
   84140:	f241 3669 	movw	r6, #4969	; 0x1369
   84144:	f2c0 0608 	movt	r6, #8
   84148:	f241 68e4 	movw	r8, #5860	; 0x16e4
   8414c:	f2c2 0807 	movt	r8, #8199	; 0x2007
   84150:	f641 07e4 	movw	r7, #6372	; 0x18e4
   84154:	f2c2 0707 	movt	r7, #8199	; 0x2007
   84158:	f64f 72ff 	movw	r2, #65535	; 0xffff
   8415c:	4294      	cmp	r4, r2
   8415e:	d1c5      	bne.n	840ec <sd_mmc_usb_write_10+0x20>
   84160:	f04f 0000 	mov.w	r0, #0
   84164:	e8bd 81f0 	ldmia.w	sp!, {r4, r5, r6, r7, r8, pc}
   84168:	f04f 0001 	mov.w	r0, #1
   8416c:	e8bd 81f0 	ldmia.w	sp!, {r4, r5, r6, r7, r8, pc}
   84170:	f04f 0001 	mov.w	r0, #1
   84174:	e8bd 81f0 	ldmia.w	sp!, {r4, r5, r6, r7, r8, pc}
   84178:	f04f 0001 	mov.w	r0, #1
   8417c:	e8bd 81f0 	ldmia.w	sp!, {r4, r5, r6, r7, r8, pc}

00084180 <sd_mmc_usb_write_10_0>:
   84180:	b508      	push	{r3, lr}
   84182:	4603      	mov	r3, r0
   84184:	460a      	mov	r2, r1
   84186:	f04f 0000 	mov.w	r0, #0
   8418a:	4619      	mov	r1, r3
   8418c:	f244 03cd 	movw	r3, #16589	; 0x40cd
   84190:	f2c0 0308 	movt	r3, #8
   84194:	4798      	blx	r3
   84196:	bd08      	pop	{r3, pc}

00084198 <hsmci_reset>:
   84198:	b470      	push	{r4, r5, r6}
   8419a:	f04f 4380 	mov.w	r3, #1073741824	; 0x40000000
   8419e:	685d      	ldr	r5, [r3, #4]
   841a0:	689c      	ldr	r4, [r3, #8]
   841a2:	68d8      	ldr	r0, [r3, #12]
   841a4:	69d9      	ldr	r1, [r3, #28]
   841a6:	6d5a      	ldr	r2, [r3, #84]	; 0x54
   841a8:	f04f 0680 	mov.w	r6, #128	; 0x80
   841ac:	601e      	str	r6, [r3, #0]
   841ae:	605d      	str	r5, [r3, #4]
   841b0:	609c      	str	r4, [r3, #8]
   841b2:	60d8      	str	r0, [r3, #12]
   841b4:	61d9      	str	r1, [r3, #28]
   841b6:	655a      	str	r2, [r3, #84]	; 0x54
   841b8:	f04f 0000 	mov.w	r0, #0
   841bc:	6518      	str	r0, [r3, #80]	; 0x50
   841be:	f04f 0105 	mov.w	r1, #5
   841c2:	6019      	str	r1, [r3, #0]
   841c4:	bc70      	pop	{r4, r5, r6}
   841c6:	4770      	bx	lr

000841c8 <hsmci_send_cmd_execute>:
   841c8:	b508      	push	{r3, lr}
   841ca:	f001 033f 	and.w	r3, r1, #63	; 0x3f
   841ce:	4318      	orrs	r0, r3
   841d0:	f411 7f80 	tst.w	r1, #256	; 0x100
   841d4:	d00c      	beq.n	841f0 <hsmci_send_cmd_execute+0x28>
   841d6:	f411 6f00 	tst.w	r1, #2048	; 0x800
   841da:	d002      	beq.n	841e2 <hsmci_send_cmd_execute+0x1a>
   841dc:	f440 5084 	orr.w	r0, r0, #4224	; 0x1080
   841e0:	e006      	b.n	841f0 <hsmci_send_cmd_execute+0x28>
   841e2:	f411 5f00 	tst.w	r1, #8192	; 0x2000
   841e6:	bf14      	ite	ne
   841e8:	f440 5086 	orrne.w	r0, r0, #4288	; 0x10c0
   841ec:	f440 5082 	orreq.w	r0, r0, #4160	; 0x1040
   841f0:	f411 4f80 	tst.w	r1, #16384	; 0x4000
   841f4:	bf18      	it	ne
   841f6:	f440 6000 	orrne.w	r0, r0, #2048	; 0x800
   841fa:	f04f 4380 	mov.w	r3, #1073741824	; 0x40000000
   841fe:	611a      	str	r2, [r3, #16]
   84200:	6158      	str	r0, [r3, #20]
   84202:	4618      	mov	r0, r3
   84204:	f401 5280 	and.w	r2, r1, #4096	; 0x1000
   84208:	6c03      	ldr	r3, [r0, #64]	; 0x40
   8420a:	b152      	cbz	r2, 84222 <hsmci_send_cmd_execute+0x5a>
   8420c:	f413 0f1f 	tst.w	r3, #10420224	; 0x9f0000
   84210:	d012      	beq.n	84238 <hsmci_send_cmd_execute+0x70>
   84212:	f244 1299 	movw	r2, #16793	; 0x4199
   84216:	f2c0 0208 	movt	r2, #8
   8421a:	4790      	blx	r2
   8421c:	f04f 0000 	mov.w	r0, #0
   84220:	bd08      	pop	{r3, pc}
   84222:	f413 0f1b 	tst.w	r3, #10158080	; 0x9b0000
   84226:	d007      	beq.n	84238 <hsmci_send_cmd_execute+0x70>
   84228:	f244 1199 	movw	r1, #16793	; 0x4199
   8422c:	f2c0 0108 	movt	r1, #8
   84230:	4788      	blx	r1
   84232:	f04f 0000 	mov.w	r0, #0
   84236:	bd08      	pop	{r3, pc}
   84238:	f013 0f01 	tst.w	r3, #1
   8423c:	d0e4      	beq.n	84208 <hsmci_send_cmd_execute+0x40>
   8423e:	f411 5f00 	tst.w	r1, #8192	; 0x2000
   84242:	d119      	bne.n	84278 <hsmci_send_cmd_execute+0xb0>
   84244:	f04f 0001 	mov.w	r0, #1
   84248:	bd08      	pop	{r3, pc}
   8424a:	6c08      	ldr	r0, [r1, #64]	; 0x40
   8424c:	f103 33ff 	add.w	r3, r3, #4294967295
   84250:	f000 0230 	and.w	r2, r0, #48	; 0x30
   84254:	2a20      	cmp	r2, #32
   84256:	d119      	bne.n	8428c <hsmci_send_cmd_execute+0xc4>
   84258:	e00b      	b.n	84272 <hsmci_send_cmd_execute+0xaa>
   8425a:	f244 1199 	movw	r1, #16793	; 0x4199
   8425e:	f2c0 0108 	movt	r1, #8
   84262:	4788      	blx	r1
   84264:	f04f 0000 	mov.w	r0, #0
   84268:	bd08      	pop	{r3, pc}
   8426a:	f000 0230 	and.w	r2, r0, #48	; 0x30
   8426e:	2a20      	cmp	r2, #32
   84270:	d1eb      	bne.n	8424a <hsmci_send_cmd_execute+0x82>
   84272:	f04f 0001 	mov.w	r0, #1
   84276:	bd08      	pop	{r3, pc}
   84278:	f04f 4080 	mov.w	r0, #1073741824	; 0x40000000
   8427c:	6c00      	ldr	r0, [r0, #64]	; 0x40
   8427e:	f244 2340 	movw	r3, #16960	; 0x4240
   84282:	f2c0 030f 	movt	r3, #15
   84286:	f04f 4180 	mov.w	r1, #1073741824	; 0x40000000
   8428a:	e7ee      	b.n	8426a <hsmci_send_cmd_execute+0xa2>
   8428c:	6c08      	ldr	r0, [r1, #64]	; 0x40
   8428e:	3b01      	subs	r3, #1
   84290:	d1eb      	bne.n	8426a <hsmci_send_cmd_execute+0xa2>
   84292:	e7e2      	b.n	8425a <hsmci_send_cmd_execute+0x92>

00084294 <hsmci_init>:
   84294:	b510      	push	{r4, lr}
   84296:	f04f 0015 	mov.w	r0, #21
   8429a:	f247 34e9 	movw	r4, #29673	; 0x73e9
   8429e:	f2c0 0408 	movt	r4, #8
   842a2:	47a0      	blx	r4
   842a4:	f04f 0027 	mov.w	r0, #39	; 0x27
   842a8:	47a0      	blx	r4
   842aa:	f04f 4380 	mov.w	r3, #1073741824	; 0x40000000
   842ae:	f04f 0272 	mov.w	r2, #114	; 0x72
   842b2:	609a      	str	r2, [r3, #8]
   842b4:	61da      	str	r2, [r3, #28]
   842b6:	f04f 0011 	mov.w	r0, #17
   842ba:	6558      	str	r0, [r3, #84]	; 0x54
   842bc:	f44f 61e0 	mov.w	r1, #1792	; 0x700
   842c0:	6059      	str	r1, [r3, #4]
   842c2:	f04f 0205 	mov.w	r2, #5
   842c6:	601a      	str	r2, [r3, #0]
   842c8:	bd10      	pop	{r4, pc}
   842ca:	bf00      	nop

000842cc <hsmci_get_bus_width>:
   842cc:	2800      	cmp	r0, #0
   842ce:	bf0c      	ite	eq
   842d0:	2004      	moveq	r0, #4
   842d2:	2000      	movne	r0, #0
   842d4:	4770      	bx	lr
   842d6:	bf00      	nop

000842d8 <hsmci_is_high_speed_capable>:
   842d8:	f04f 0001 	mov.w	r0, #1
   842dc:	4770      	bx	lr
   842de:	bf00      	nop

000842e0 <hsmci_select_device>:
   842e0:	b133      	cbz	r3, 842f0 <hsmci_select_device+0x10>
   842e2:	f04f 4380 	mov.w	r3, #1073741824	; 0x40000000
   842e6:	6d58      	ldr	r0, [r3, #84]	; 0x54
   842e8:	f440 7080 	orr.w	r0, r0, #256	; 0x100
   842ec:	6558      	str	r0, [r3, #84]	; 0x54
   842ee:	e005      	b.n	842fc <hsmci_select_device+0x1c>
   842f0:	f04f 4380 	mov.w	r3, #1073741824	; 0x40000000
   842f4:	6d58      	ldr	r0, [r3, #84]	; 0x54
   842f6:	f420 7080 	bic.w	r0, r0, #256	; 0x100
   842fa:	6558      	str	r0, [r3, #84]	; 0x54
   842fc:	b181      	cbz	r1, 84320 <hsmci_select_device+0x40>
   842fe:	ea4f 0141 	mov.w	r1, r1, lsl #1
   84302:	f44f 433d 	mov.w	r3, #48384	; 0xbd00
   84306:	f2c0 5301 	movt	r3, #1281	; 0x501
   8430a:	fbb3 f0f1 	udiv	r0, r3, r1
   8430e:	fb01 3110 	mls	r1, r1, r0, r3
   84312:	b109      	cbz	r1, 84318 <hsmci_select_device+0x38>
   84314:	f100 0001 	add.w	r0, r0, #1
   84318:	b120      	cbz	r0, 84324 <hsmci_select_device+0x44>
   8431a:	f100 30ff 	add.w	r0, r0, #4294967295
   8431e:	e001      	b.n	84324 <hsmci_select_device+0x44>
   84320:	f04f 0000 	mov.w	r0, #0
   84324:	f04f 4380 	mov.w	r3, #1073741824	; 0x40000000
   84328:	6859      	ldr	r1, [r3, #4]
   8432a:	f021 01ff 	bic.w	r1, r1, #255	; 0xff
   8432e:	6059      	str	r1, [r3, #4]
   84330:	6859      	ldr	r1, [r3, #4]
   84332:	b2c0      	uxtb	r0, r0
   84334:	4308      	orrs	r0, r1
   84336:	6058      	str	r0, [r3, #4]
   84338:	2a04      	cmp	r2, #4
   8433a:	d004      	beq.n	84346 <hsmci_select_device+0x66>
   8433c:	2a08      	cmp	r2, #8
   8433e:	bf0c      	ite	eq
   84340:	22c0      	moveq	r2, #192	; 0xc0
   84342:	2200      	movne	r2, #0
   84344:	e001      	b.n	8434a <hsmci_select_device+0x6a>
   84346:	f04f 0280 	mov.w	r2, #128	; 0x80
   8434a:	f04f 4380 	mov.w	r3, #1073741824	; 0x40000000
   8434e:	60da      	str	r2, [r3, #12]
   84350:	4770      	bx	lr
   84352:	bf00      	nop

00084354 <hsmci_deselect_device>:
   84354:	4770      	bx	lr
   84356:	bf00      	nop

00084358 <hsmci_send_clock>:
   84358:	f04f 4380 	mov.w	r3, #1073741824	; 0x40000000
   8435c:	685a      	ldr	r2, [r3, #4]
   8435e:	f422 5060 	bic.w	r0, r2, #14336	; 0x3800
   84362:	6058      	str	r0, [r3, #4]
   84364:	f04f 0100 	mov.w	r1, #0
   84368:	6119      	str	r1, [r3, #16]
   8436a:	f44f 6210 	mov.w	r2, #2304	; 0x900
   8436e:	615a      	str	r2, [r3, #20]
   84370:	4618      	mov	r0, r3
   84372:	6c03      	ldr	r3, [r0, #64]	; 0x40
   84374:	f013 0f01 	tst.w	r3, #1
   84378:	d0fb      	beq.n	84372 <hsmci_send_clock+0x1a>
   8437a:	4770      	bx	lr

0008437c <hsmci_send_cmd>:
   8437c:	b510      	push	{r4, lr}
   8437e:	4604      	mov	r4, r0
   84380:	460a      	mov	r2, r1
   84382:	f04f 4380 	mov.w	r3, #1073741824	; 0x40000000
   84386:	6859      	ldr	r1, [r3, #4]
   84388:	f421 5060 	bic.w	r0, r1, #14336	; 0x3800
   8438c:	6058      	str	r0, [r3, #4]
   8438e:	f04f 0000 	mov.w	r0, #0
   84392:	6518      	str	r0, [r3, #80]	; 0x50
   84394:	6198      	str	r0, [r3, #24]
   84396:	4621      	mov	r1, r4
   84398:	f244 13c9 	movw	r3, #16841	; 0x41c9
   8439c:	f2c0 0308 	movt	r3, #8
   843a0:	4798      	blx	r3
   843a2:	bd10      	pop	{r4, pc}

000843a4 <hsmci_get_response>:
   843a4:	f04f 4380 	mov.w	r3, #1073741824	; 0x40000000
   843a8:	6a18      	ldr	r0, [r3, #32]
   843aa:	4770      	bx	lr

000843ac <hsmci_get_response_128>:
   843ac:	f04f 4380 	mov.w	r3, #1073741824	; 0x40000000
   843b0:	6a1a      	ldr	r2, [r3, #32]
   843b2:	ea4f 6112 	mov.w	r1, r2, lsr #24
   843b6:	7001      	strb	r1, [r0, #0]
   843b8:	ea4f 4112 	mov.w	r1, r2, lsr #16
   843bc:	7041      	strb	r1, [r0, #1]
   843be:	ea4f 2112 	mov.w	r1, r2, lsr #8
   843c2:	7081      	strb	r1, [r0, #2]
   843c4:	70c2      	strb	r2, [r0, #3]
   843c6:	6a1a      	ldr	r2, [r3, #32]
   843c8:	ea4f 6112 	mov.w	r1, r2, lsr #24
   843cc:	7101      	strb	r1, [r0, #4]
   843ce:	ea4f 4112 	mov.w	r1, r2, lsr #16
   843d2:	7141      	strb	r1, [r0, #5]
   843d4:	ea4f 2112 	mov.w	r1, r2, lsr #8
   843d8:	7181      	strb	r1, [r0, #6]
   843da:	71c2      	strb	r2, [r0, #7]
   843dc:	6a1a      	ldr	r2, [r3, #32]
   843de:	ea4f 6112 	mov.w	r1, r2, lsr #24
   843e2:	7201      	strb	r1, [r0, #8]
   843e4:	ea4f 4112 	mov.w	r1, r2, lsr #16
   843e8:	7241      	strb	r1, [r0, #9]
   843ea:	ea4f 2112 	mov.w	r1, r2, lsr #8
   843ee:	7281      	strb	r1, [r0, #10]
   843f0:	72c2      	strb	r2, [r0, #11]
   843f2:	6a1b      	ldr	r3, [r3, #32]
   843f4:	ea4f 6213 	mov.w	r2, r3, lsr #24
   843f8:	7302      	strb	r2, [r0, #12]
   843fa:	ea4f 4113 	mov.w	r1, r3, lsr #16
   843fe:	7341      	strb	r1, [r0, #13]
   84400:	ea4f 2213 	mov.w	r2, r3, lsr #8
   84404:	7382      	strb	r2, [r0, #14]
   84406:	73c3      	strb	r3, [r0, #15]
   84408:	4770      	bx	lr
   8440a:	bf00      	nop

0008440c <hsmci_adtc_start>:
   8440c:	b570      	push	{r4, r5, r6, lr}
   8440e:	4604      	mov	r4, r0
   84410:	460d      	mov	r5, r1
   84412:	f89d 1010 	ldrb.w	r1, [sp, #16]
   84416:	b129      	cbz	r1, 84424 <hsmci_adtc_start+0x18>
   84418:	f44f 7080 	mov.w	r0, #256	; 0x100
   8441c:	f04f 4180 	mov.w	r1, #1073741824	; 0x40000000
   84420:	6508      	str	r0, [r1, #80]	; 0x50
   84422:	e004      	b.n	8442e <hsmci_adtc_start+0x22>
   84424:	f04f 0000 	mov.w	r0, #0
   84428:	f04f 4680 	mov.w	r6, #1073741824	; 0x40000000
   8442c:	6530      	str	r0, [r6, #80]	; 0x50
   8442e:	f04f 4680 	mov.w	r6, #1073741824	; 0x40000000
   84432:	6870      	ldr	r0, [r6, #4]
   84434:	f440 51c0 	orr.w	r1, r0, #6144	; 0x1800
   84438:	6071      	str	r1, [r6, #4]
   8443a:	f012 0f03 	tst.w	r2, #3
   8443e:	d004      	beq.n	8444a <hsmci_adtc_start+0x3e>
   84440:	6870      	ldr	r0, [r6, #4]
   84442:	f440 5100 	orr.w	r1, r0, #8192	; 0x2000
   84446:	6071      	str	r1, [r6, #4]
   84448:	e005      	b.n	84456 <hsmci_adtc_start+0x4a>
   8444a:	f04f 4680 	mov.w	r6, #1073741824	; 0x40000000
   8444e:	6870      	ldr	r0, [r6, #4]
   84450:	f420 5100 	bic.w	r1, r0, #8192	; 0x2000
   84454:	6071      	str	r1, [r6, #4]
   84456:	f404 4600 	and.w	r6, r4, #32768	; 0x8000
   8445a:	2e00      	cmp	r6, #0
   8445c:	bf0c      	ite	eq
   8445e:	f44f 20a0 	moveq.w	r0, #327680	; 0x50000
   84462:	f44f 3080 	movne.w	r0, #65536	; 0x10000
   84466:	f414 3f80 	tst.w	r4, #65536	; 0x10000
   8446a:	d009      	beq.n	84480 <hsmci_adtc_start+0x74>
   8446c:	f440 1000 	orr.w	r0, r0, #2097152	; 0x200000
   84470:	ea4f 56c2 	mov.w	r6, r2, lsl #23
   84474:	ea4f 51d6 	mov.w	r1, r6, lsr #23
   84478:	f04f 4680 	mov.w	r6, #1073741824	; 0x40000000
   8447c:	61b1      	str	r1, [r6, #24]
   8447e:	e018      	b.n	844b2 <hsmci_adtc_start+0xa6>
   84480:	ea43 4602 	orr.w	r6, r3, r2, lsl #16
   84484:	f04f 4180 	mov.w	r1, #1073741824	; 0x40000000
   84488:	618e      	str	r6, [r1, #24]
   8448a:	f414 3f00 	tst.w	r4, #131072	; 0x20000
   8448e:	d002      	beq.n	84496 <hsmci_adtc_start+0x8a>
   84490:	f440 1020 	orr.w	r0, r0, #2621440	; 0x280000
   84494:	e00d      	b.n	844b2 <hsmci_adtc_start+0xa6>
   84496:	f414 2f80 	tst.w	r4, #262144	; 0x40000
   8449a:	d002      	beq.n	844a2 <hsmci_adtc_start+0x96>
   8449c:	f440 1080 	orr.w	r0, r0, #1048576	; 0x100000
   844a0:	e007      	b.n	844b2 <hsmci_adtc_start+0xa6>
   844a2:	f414 2f00 	tst.w	r4, #524288	; 0x80000
   844a6:	d104      	bne.n	844b2 <hsmci_adtc_start+0xa6>
   844a8:	f414 1f80 	tst.w	r4, #1048576	; 0x100000
   844ac:	bf18      	it	ne
   844ae:	f440 2000 	orrne.w	r0, r0, #524288	; 0x80000
   844b2:	f640 4158 	movw	r1, #3160	; 0xc58
   844b6:	f2c2 0107 	movt	r1, #8199	; 0x2007
   844ba:	f04f 0600 	mov.w	r6, #0
   844be:	600e      	str	r6, [r1, #0]
   844c0:	f640 4154 	movw	r1, #3156	; 0xc54
   844c4:	f2c2 0107 	movt	r1, #8199	; 0x2007
   844c8:	800a      	strh	r2, [r1, #0]
   844ca:	f640 4256 	movw	r2, #3158	; 0xc56
   844ce:	f2c2 0207 	movt	r2, #8199	; 0x2007
   844d2:	8013      	strh	r3, [r2, #0]
   844d4:	4621      	mov	r1, r4
   844d6:	462a      	mov	r2, r5
   844d8:	f244 13c9 	movw	r3, #16841	; 0x41c9
   844dc:	f2c0 0308 	movt	r3, #8
   844e0:	4798      	blx	r3
   844e2:	bd70      	pop	{r4, r5, r6, pc}

000844e4 <hsmci_read_word>:
   844e4:	b508      	push	{r3, lr}
   844e6:	f04f 4180 	mov.w	r1, #1073741824	; 0x40000000
   844ea:	f04f 0200 	mov.w	r2, #0
   844ee:	f2cc 0260 	movt	r2, #49248	; 0xc060
   844f2:	6c0b      	ldr	r3, [r1, #64]	; 0x40
   844f4:	4213      	tst	r3, r2
   844f6:	d007      	beq.n	84508 <hsmci_read_word+0x24>
   844f8:	f244 1099 	movw	r0, #16793	; 0x4199
   844fc:	f2c0 0008 	movt	r0, #8
   84500:	4780      	blx	r0
   84502:	f04f 0000 	mov.w	r0, #0
   84506:	bd08      	pop	{r3, pc}
   84508:	f013 0f02 	tst.w	r3, #2
   8450c:	d0f1      	beq.n	844f2 <hsmci_read_word+0xe>
   8450e:	f04f 4180 	mov.w	r1, #1073741824	; 0x40000000
   84512:	6b0a      	ldr	r2, [r1, #48]	; 0x30
   84514:	6002      	str	r2, [r0, #0]
   84516:	f640 4058 	movw	r0, #3160	; 0xc58
   8451a:	f2c2 0007 	movt	r0, #8199	; 0x2007
   8451e:	6803      	ldr	r3, [r0, #0]
   84520:	f103 0304 	add.w	r3, r3, #4
   84524:	6003      	str	r3, [r0, #0]
   84526:	f640 4156 	movw	r1, #3158	; 0xc56
   8452a:	f2c2 0107 	movt	r1, #8199	; 0x2007
   8452e:	880a      	ldrh	r2, [r1, #0]
   84530:	f640 4054 	movw	r0, #3156	; 0xc54
   84534:	f2c2 0007 	movt	r0, #8199	; 0x2007
   84538:	8801      	ldrh	r1, [r0, #0]
   8453a:	fb01 f202 	mul.w	r2, r1, r2
   8453e:	4293      	cmp	r3, r2
   84540:	d316      	bcc.n	84570 <hsmci_read_word+0x8c>
   84542:	f04f 4080 	mov.w	r0, #1073741824	; 0x40000000
   84546:	f04f 0200 	mov.w	r2, #0
   8454a:	f2cc 0260 	movt	r2, #49248	; 0xc060
   8454e:	6c03      	ldr	r3, [r0, #64]	; 0x40
   84550:	4213      	tst	r3, r2
   84552:	d007      	beq.n	84564 <hsmci_read_word+0x80>
   84554:	f244 1199 	movw	r1, #16793	; 0x4199
   84558:	f2c0 0108 	movt	r1, #8
   8455c:	4788      	blx	r1
   8455e:	f04f 0000 	mov.w	r0, #0
   84562:	bd08      	pop	{r3, pc}
   84564:	f013 6f00 	tst.w	r3, #134217728	; 0x8000000
   84568:	d0f1      	beq.n	8454e <hsmci_read_word+0x6a>
   8456a:	f04f 0001 	mov.w	r0, #1
   8456e:	bd08      	pop	{r3, pc}
   84570:	f04f 0001 	mov.w	r0, #1
   84574:	bd08      	pop	{r3, pc}
   84576:	bf00      	nop

00084578 <hsmci_start_read_blocks>:
   84578:	b570      	push	{r4, r5, r6, lr}
   8457a:	b086      	sub	sp, #24
   8457c:	4604      	mov	r4, r0
   8457e:	f640 4354 	movw	r3, #3156	; 0xc54
   84582:	f2c2 0307 	movt	r3, #8199	; 0x2007
   84586:	881e      	ldrh	r6, [r3, #0]
   84588:	fb06 f601 	mul.w	r6, r6, r1
   8458c:	f04f 4080 	mov.w	r0, #1073741824	; 0x40000000
   84590:	6841      	ldr	r1, [r0, #4]
   84592:	f411 5f00 	tst.w	r1, #8192	; 0x2000
   84596:	d12f      	bne.n	845f8 <hsmci_start_read_blocks+0x80>
   84598:	f44f 4580 	mov.w	r5, #16384	; 0x4000
   8459c:	f2c4 050c 	movt	r5, #16396	; 0x400c
   845a0:	4628      	mov	r0, r5
   845a2:	f644 4231 	movw	r2, #19505	; 0x4c31
   845a6:	f2c0 0208 	movt	r2, #8
   845aa:	4790      	blx	r2
   845ac:	4628      	mov	r0, r5
   845ae:	f04f 0100 	mov.w	r1, #0
   845b2:	f644 4345 	movw	r3, #19525	; 0x4c45
   845b6:	f2c0 0308 	movt	r3, #8
   845ba:	4798      	blx	r3
   845bc:	4628      	mov	r0, r5
   845be:	f04f 0100 	mov.w	r1, #0
   845c2:	f44f 7200 	mov.w	r2, #512	; 0x200
   845c6:	f2c0 1201 	movt	r2, #257	; 0x101
   845ca:	f644 458d 	movw	r5, #19597	; 0x4c8d
   845ce:	f2c0 0508 	movt	r5, #8
   845d2:	47a8      	blx	r5
   845d4:	f04f 0030 	mov.w	r0, #48	; 0x30
   845d8:	f2c4 0000 	movt	r0, #16384	; 0x4000
   845dc:	9001      	str	r0, [sp, #4]
   845de:	9402      	str	r4, [sp, #8]
   845e0:	f014 0f03 	tst.w	r4, #3
   845e4:	d002      	beq.n	845ec <hsmci_start_read_blocks+0x74>
   845e6:	b2b4      	uxth	r4, r6
   845e8:	9403      	str	r4, [sp, #12]
   845ea:	e02a      	b.n	84642 <hsmci_start_read_blocks+0xca>
   845ec:	f3c6 048f 	ubfx	r4, r6, #2, #16
   845f0:	f044 5108 	orr.w	r1, r4, #570425344	; 0x22000000
   845f4:	9103      	str	r1, [sp, #12]
   845f6:	e024      	b.n	84642 <hsmci_start_read_blocks+0xca>
   845f8:	f44f 4580 	mov.w	r5, #16384	; 0x4000
   845fc:	f2c4 050c 	movt	r5, #16396	; 0x400c
   84600:	4628      	mov	r0, r5
   84602:	f644 4231 	movw	r2, #19505	; 0x4c31
   84606:	f2c0 0208 	movt	r2, #8
   8460a:	4790      	blx	r2
   8460c:	4628      	mov	r0, r5
   8460e:	f04f 0100 	mov.w	r1, #0
   84612:	f644 4345 	movw	r3, #19525	; 0x4c45
   84616:	f2c0 0308 	movt	r3, #8
   8461a:	4798      	blx	r3
   8461c:	4628      	mov	r0, r5
   8461e:	f04f 0100 	mov.w	r1, #0
   84622:	f44f 7200 	mov.w	r2, #512	; 0x200
   84626:	f2c0 1201 	movt	r2, #257	; 0x101
   8462a:	f644 458d 	movw	r5, #19597	; 0x4c8d
   8462e:	f2c0 0508 	movt	r5, #8
   84632:	47a8      	blx	r5
   84634:	f04f 0030 	mov.w	r0, #48	; 0x30
   84638:	f2c4 0000 	movt	r0, #16384	; 0x4000
   8463c:	9001      	str	r0, [sp, #4]
   8463e:	9402      	str	r4, [sp, #8]
   84640:	e7d1      	b.n	845e6 <hsmci_start_read_blocks+0x6e>
   84642:	f04f 0100 	mov.w	r1, #0
   84646:	f2c4 2151 	movt	r1, #16977	; 0x4251
   8464a:	9104      	str	r1, [sp, #16]
   8464c:	f04f 0400 	mov.w	r4, #0
   84650:	9405      	str	r4, [sp, #20]
   84652:	f44f 4580 	mov.w	r5, #16384	; 0x4000
   84656:	f2c4 050c 	movt	r5, #16396	; 0x400c
   8465a:	4628      	mov	r0, r5
   8465c:	4621      	mov	r1, r4
   8465e:	aa01      	add	r2, sp, #4
   84660:	f644 4399 	movw	r3, #19609	; 0x4c99
   84664:	f2c0 0308 	movt	r3, #8
   84668:	4798      	blx	r3
   8466a:	4628      	mov	r0, r5
   8466c:	4621      	mov	r1, r4
   8466e:	f644 4239 	movw	r2, #19513	; 0x4c39
   84672:	f2c0 0208 	movt	r2, #8
   84676:	4790      	blx	r2
   84678:	f640 4058 	movw	r0, #3160	; 0xc58
   8467c:	f2c2 0007 	movt	r0, #8199	; 0x2007
   84680:	6801      	ldr	r1, [r0, #0]
   84682:	1876      	adds	r6, r6, r1
   84684:	6006      	str	r6, [r0, #0]
   84686:	f04f 0001 	mov.w	r0, #1
   8468a:	b006      	add	sp, #24
   8468c:	bd70      	pop	{r4, r5, r6, pc}
   8468e:	bf00      	nop

00084690 <hsmci_wait_end_of_read_blocks>:
   84690:	b510      	push	{r4, lr}
   84692:	f640 4356 	movw	r3, #3158	; 0xc56
   84696:	f2c2 0307 	movt	r3, #8199	; 0x2007
   8469a:	8818      	ldrh	r0, [r3, #0]
   8469c:	f640 4254 	movw	r2, #3156	; 0xc54
   846a0:	f2c2 0207 	movt	r2, #8199	; 0x2007
   846a4:	8814      	ldrh	r4, [r2, #0]
   846a6:	fb04 f400 	mul.w	r4, r4, r0
   846aa:	f640 4158 	movw	r1, #3160	; 0xc58
   846ae:	f2c2 0107 	movt	r1, #8199	; 0x2007
   846b2:	6808      	ldr	r0, [r1, #0]
   846b4:	f04f 4180 	mov.w	r1, #1073741824	; 0x40000000
   846b8:	f04f 0200 	mov.w	r2, #0
   846bc:	f2cc 0260 	movt	r2, #49248	; 0xc060
   846c0:	6c0b      	ldr	r3, [r1, #64]	; 0x40
   846c2:	4213      	tst	r3, r2
   846c4:	d012      	beq.n	846ec <hsmci_wait_end_of_read_blocks+0x5c>
   846c6:	f244 1099 	movw	r0, #16793	; 0x4199
   846ca:	f2c0 0008 	movt	r0, #8
   846ce:	4780      	blx	r0
   846d0:	f44f 4080 	mov.w	r0, #16384	; 0x4000
   846d4:	f2c4 000c 	movt	r0, #16396	; 0x400c
   846d8:	f04f 0100 	mov.w	r1, #0
   846dc:	f644 4245 	movw	r2, #19525	; 0x4c45
   846e0:	f2c0 0208 	movt	r2, #8
   846e4:	4790      	blx	r2
   846e6:	f04f 0000 	mov.w	r0, #0
   846ea:	bd10      	pop	{r4, pc}
   846ec:	4284      	cmp	r4, r0
   846ee:	d902      	bls.n	846f6 <hsmci_wait_end_of_read_blocks+0x66>
   846f0:	f013 7f00 	tst.w	r3, #33554432	; 0x2000000
   846f4:	d105      	bne.n	84702 <hsmci_wait_end_of_read_blocks+0x72>
   846f6:	f013 6f00 	tst.w	r3, #134217728	; 0x8000000
   846fa:	d0e1      	beq.n	846c0 <hsmci_wait_end_of_read_blocks+0x30>
   846fc:	f04f 0001 	mov.w	r0, #1
   84700:	bd10      	pop	{r4, pc}
   84702:	f04f 0001 	mov.w	r0, #1
   84706:	bd10      	pop	{r4, pc}

00084708 <hsmci_start_write_blocks>:
   84708:	b570      	push	{r4, r5, r6, lr}
   8470a:	b086      	sub	sp, #24
   8470c:	4604      	mov	r4, r0
   8470e:	f640 4354 	movw	r3, #3156	; 0xc54
   84712:	f2c2 0307 	movt	r3, #8199	; 0x2007
   84716:	881e      	ldrh	r6, [r3, #0]
   84718:	fb06 f601 	mul.w	r6, r6, r1
   8471c:	f04f 4080 	mov.w	r0, #1073741824	; 0x40000000
   84720:	6841      	ldr	r1, [r0, #4]
   84722:	f411 5f00 	tst.w	r1, #8192	; 0x2000
   84726:	d127      	bne.n	84778 <hsmci_start_write_blocks+0x70>
   84728:	f44f 4580 	mov.w	r5, #16384	; 0x4000
   8472c:	f2c4 050c 	movt	r5, #16396	; 0x400c
   84730:	4628      	mov	r0, r5
   84732:	f644 4231 	movw	r2, #19505	; 0x4c31
   84736:	f2c0 0208 	movt	r2, #8
   8473a:	4790      	blx	r2
   8473c:	4628      	mov	r0, r5
   8473e:	f04f 0100 	mov.w	r1, #0
   84742:	f44f 5200 	mov.w	r2, #8192	; 0x2000
   84746:	f2c0 1201 	movt	r2, #257	; 0x101
   8474a:	f644 438d 	movw	r3, #19597	; 0x4c8d
   8474e:	f2c0 0308 	movt	r3, #8
   84752:	4798      	blx	r3
   84754:	9401      	str	r4, [sp, #4]
   84756:	f04f 0034 	mov.w	r0, #52	; 0x34
   8475a:	f2c4 0000 	movt	r0, #16384	; 0x4000
   8475e:	9002      	str	r0, [sp, #8]
   84760:	f014 0f03 	tst.w	r4, #3
   84764:	d002      	beq.n	8476c <hsmci_start_write_blocks+0x64>
   84766:	b2b4      	uxth	r4, r6
   84768:	9403      	str	r4, [sp, #12]
   8476a:	e022      	b.n	847b2 <hsmci_start_write_blocks+0xaa>
   8476c:	f3c6 048f 	ubfx	r4, r6, #2, #16
   84770:	f044 5108 	orr.w	r1, r4, #570425344	; 0x22000000
   84774:	9103      	str	r1, [sp, #12]
   84776:	e01c      	b.n	847b2 <hsmci_start_write_blocks+0xaa>
   84778:	f44f 4580 	mov.w	r5, #16384	; 0x4000
   8477c:	f2c4 050c 	movt	r5, #16396	; 0x400c
   84780:	4628      	mov	r0, r5
   84782:	f644 4231 	movw	r2, #19505	; 0x4c31
   84786:	f2c0 0208 	movt	r2, #8
   8478a:	4790      	blx	r2
   8478c:	4628      	mov	r0, r5
   8478e:	f04f 0100 	mov.w	r1, #0
   84792:	f44f 5200 	mov.w	r2, #8192	; 0x2000
   84796:	f2c0 1201 	movt	r2, #257	; 0x101
   8479a:	f644 438d 	movw	r3, #19597	; 0x4c8d
   8479e:	f2c0 0308 	movt	r3, #8
   847a2:	4798      	blx	r3
   847a4:	9401      	str	r4, [sp, #4]
   847a6:	f04f 0034 	mov.w	r0, #52	; 0x34
   847aa:	f2c4 0000 	movt	r0, #16384	; 0x4000
   847ae:	9002      	str	r0, [sp, #8]
   847b0:	e7d9      	b.n	84766 <hsmci_start_write_blocks+0x5e>
   847b2:	f04f 0100 	mov.w	r1, #0
   847b6:	f2c6 0131 	movt	r1, #24625	; 0x6031
   847ba:	9104      	str	r1, [sp, #16]
   847bc:	f04f 0400 	mov.w	r4, #0
   847c0:	9405      	str	r4, [sp, #20]
   847c2:	f44f 4580 	mov.w	r5, #16384	; 0x4000
   847c6:	f2c4 050c 	movt	r5, #16396	; 0x400c
   847ca:	4628      	mov	r0, r5
   847cc:	4621      	mov	r1, r4
   847ce:	aa01      	add	r2, sp, #4
   847d0:	f644 4399 	movw	r3, #19609	; 0x4c99
   847d4:	f2c0 0308 	movt	r3, #8
   847d8:	4798      	blx	r3
   847da:	4628      	mov	r0, r5
   847dc:	4621      	mov	r1, r4
   847de:	f644 4239 	movw	r2, #19513	; 0x4c39
   847e2:	f2c0 0208 	movt	r2, #8
   847e6:	4790      	blx	r2
   847e8:	f640 4058 	movw	r0, #3160	; 0xc58
   847ec:	f2c2 0007 	movt	r0, #8199	; 0x2007
   847f0:	6801      	ldr	r1, [r0, #0]
   847f2:	1876      	adds	r6, r6, r1
   847f4:	6006      	str	r6, [r0, #0]
   847f6:	f04f 0001 	mov.w	r0, #1
   847fa:	b006      	add	sp, #24
   847fc:	bd70      	pop	{r4, r5, r6, pc}
   847fe:	bf00      	nop

00084800 <hsmci_wait_end_of_write_blocks>:
   84800:	b510      	push	{r4, lr}
   84802:	f640 4356 	movw	r3, #3158	; 0xc56
   84806:	f2c2 0307 	movt	r3, #8199	; 0x2007
   8480a:	8818      	ldrh	r0, [r3, #0]
   8480c:	f640 4254 	movw	r2, #3156	; 0xc54
   84810:	f2c2 0207 	movt	r2, #8199	; 0x2007
   84814:	8814      	ldrh	r4, [r2, #0]
   84816:	fb04 f400 	mul.w	r4, r4, r0
   8481a:	f640 4158 	movw	r1, #3160	; 0xc58
   8481e:	f2c2 0107 	movt	r1, #8199	; 0x2007
   84822:	6808      	ldr	r0, [r1, #0]
   84824:	f04f 4180 	mov.w	r1, #1073741824	; 0x40000000
   84828:	f04f 0200 	mov.w	r2, #0
   8482c:	f2cc 0260 	movt	r2, #49248	; 0xc060
   84830:	6c0b      	ldr	r3, [r1, #64]	; 0x40
   84832:	4213      	tst	r3, r2
   84834:	d012      	beq.n	8485c <hsmci_wait_end_of_write_blocks+0x5c>
   84836:	f244 1099 	movw	r0, #16793	; 0x4199
   8483a:	f2c0 0008 	movt	r0, #8
   8483e:	4780      	blx	r0
   84840:	f44f 4080 	mov.w	r0, #16384	; 0x4000
   84844:	f2c4 000c 	movt	r0, #16396	; 0x400c
   84848:	f04f 0100 	mov.w	r1, #0
   8484c:	f644 4245 	movw	r2, #19525	; 0x4c45
   84850:	f2c0 0208 	movt	r2, #8
   84854:	4790      	blx	r2
   84856:	f04f 0000 	mov.w	r0, #0
   8485a:	bd10      	pop	{r4, pc}
   8485c:	4284      	cmp	r4, r0
   8485e:	d902      	bls.n	84866 <hsmci_wait_end_of_write_blocks+0x66>
   84860:	f013 7f00 	tst.w	r3, #33554432	; 0x2000000
   84864:	d105      	bne.n	84872 <hsmci_wait_end_of_write_blocks+0x72>
   84866:	f013 0f20 	tst.w	r3, #32
   8486a:	d0e1      	beq.n	84830 <hsmci_wait_end_of_write_blocks+0x30>
   8486c:	f04f 0001 	mov.w	r0, #1
   84870:	bd10      	pop	{r4, pc}
   84872:	f04f 0001 	mov.w	r0, #1
   84876:	bd10      	pop	{r4, pc}

00084878 <cdc_send_line>:
   84878:	b510      	push	{r4, lr}
   8487a:	4604      	mov	r4, r0
   8487c:	f640 435c 	movw	r3, #3164	; 0xc5c
   84880:	f2c2 0307 	movt	r3, #8199	; 0x2007
   84884:	7818      	ldrb	r0, [r3, #0]
   84886:	b168      	cbz	r0, 848a4 <cdc_send_line+0x2c>
   84888:	4620      	mov	r0, r4
   8488a:	f24a 022d 	movw	r2, #41005	; 0xa02d
   8488e:	f2c0 0208 	movt	r2, #8
   84892:	4790      	blx	r2
   84894:	4601      	mov	r1, r0
   84896:	4620      	mov	r0, r4
   84898:	f245 7339 	movw	r3, #22329	; 0x5739
   8489c:	f2c0 0308 	movt	r3, #8
   848a0:	4798      	blx	r3
   848a2:	bd10      	pop	{r4, pc}
   848a4:	4620      	mov	r0, r4
   848a6:	f24a 012d 	movw	r1, #41005	; 0xa02d
   848aa:	f2c0 0108 	movt	r1, #8
   848ae:	4788      	blx	r1
   848b0:	bd10      	pop	{r4, pc}
   848b2:	bf00      	nop

000848b4 <main_cdc_set_dtr>:
   848b4:	b139      	cbz	r1, 848c6 <main_cdc_set_dtr+0x12>
   848b6:	f640 405c 	movw	r0, #3164	; 0xc5c
   848ba:	f2c2 0007 	movt	r0, #8199	; 0x2007
   848be:	f04f 0101 	mov.w	r1, #1
   848c2:	7001      	strb	r1, [r0, #0]
   848c4:	4770      	bx	lr
   848c6:	f640 435c 	movw	r3, #3164	; 0xc5c
   848ca:	f2c2 0307 	movt	r3, #8199	; 0x2007
   848ce:	f04f 0200 	mov.w	r2, #0
   848d2:	701a      	strb	r2, [r3, #0]
   848d4:	4770      	bx	lr
   848d6:	bf00      	nop

000848d8 <uart_rx_notify>:
   848d8:	f640 435d 	movw	r3, #3165	; 0xc5d
   848dc:	f2c2 0307 	movt	r3, #8199	; 0x2007
   848e0:	f04f 0201 	mov.w	r2, #1
   848e4:	701a      	strb	r2, [r3, #0]
   848e6:	4770      	bx	lr

000848e8 <main_suspend_action>:
   848e8:	4770      	bx	lr
   848ea:	bf00      	nop

000848ec <main_resume_action>:
   848ec:	4770      	bx	lr
   848ee:	bf00      	nop

000848f0 <main_sof_action>:
   848f0:	4770      	bx	lr
   848f2:	bf00      	nop

000848f4 <SCPI_Write>:
uint16_t current_input_line_pointer = 0;
char current_input_line[LINE_BUFFER_SIZE];


size_t SCPI_Write(scpi_t * context, const char * data, size_t len) 
{
   848f4:	b530      	push	{r4, r5, lr}
   848f6:	b083      	sub	sp, #12
   848f8:	4613      	mov	r3, r2
	(void) context;
	printf("%.*s", len, data);
   848fa:	f641 24e4 	movw	r4, #6884	; 0x1ae4
   848fe:	f2c2 0407 	movt	r4, #8199	; 0x2007
   84902:	9100      	str	r1, [sp, #0]
   84904:	4620      	mov	r0, r4
   84906:	f04f 0164 	mov.w	r1, #100	; 0x64
   8490a:	f64c 4204 	movw	r2, #52228	; 0xcc04
   8490e:	f2c0 0208 	movt	r2, #8
   84912:	f649 75c7 	movw	r5, #40903	; 0x9fc7
   84916:	f2c0 0508 	movt	r5, #8
   8491a:	47a8      	blx	r5
   8491c:	4620      	mov	r0, r4
   8491e:	f644 0379 	movw	r3, #18553	; 0x4879
   84922:	f2c0 0308 	movt	r3, #8
   84926:	4798      	blx	r3
	return SCPI_RES_OK;    
}
   84928:	f04f 0001 	mov.w	r0, #1
   8492c:	b003      	add	sp, #12
   8492e:	bd30      	pop	{r4, r5, pc}

00084930 <SCPI_Flush>:

scpi_result_t SCPI_Flush(scpi_t * context) 
{
	return SCPI_RES_OK;
}
   84930:	f04f 0001 	mov.w	r0, #1
   84934:	4770      	bx	lr
   84936:	bf00      	nop

00084938 <SCPI_Error>:

int SCPI_Error(scpi_t * context, int_fast16_t err) 
{
   84938:	b530      	push	{r4, r5, lr}
   8493a:	b083      	sub	sp, #12
   8493c:	460d      	mov	r5, r1
	(void) context;
	printf("**ERROR: %d, \"%s\"\r\n", (int32_t) err, SCPI_ErrorTranslate(err));
   8493e:	b208      	sxth	r0, r1
   84940:	f242 737d 	movw	r3, #10109	; 0x277d
   84944:	f2c0 0308 	movt	r3, #8
   84948:	4798      	blx	r3
   8494a:	f641 24e4 	movw	r4, #6884	; 0x1ae4
   8494e:	f2c2 0407 	movt	r4, #8199	; 0x2007
   84952:	9000      	str	r0, [sp, #0]
   84954:	4620      	mov	r0, r4
   84956:	f04f 0164 	mov.w	r1, #100	; 0x64
   8495a:	f64c 420c 	movw	r2, #52236	; 0xcc0c
   8495e:	f2c0 0208 	movt	r2, #8
   84962:	462b      	mov	r3, r5
   84964:	f649 75c7 	movw	r5, #40903	; 0x9fc7
   84968:	f2c0 0508 	movt	r5, #8
   8496c:	47a8      	blx	r5
   8496e:	4620      	mov	r0, r4
   84970:	f644 0179 	movw	r1, #18553	; 0x4879
   84974:	f2c0 0108 	movt	r1, #8
   84978:	4788      	blx	r1
	return 0;
}
   8497a:	f04f 0000 	mov.w	r0, #0
   8497e:	b003      	add	sp, #12
   84980:	bd30      	pop	{r4, r5, pc}
   84982:	bf00      	nop

00084984 <SCPI_Control>:

scpi_result_t SCPI_Control(scpi_t * context, scpi_ctrl_name_t ctrl, scpi_reg_val_t val) 
{
   84984:	b530      	push	{r4, r5, lr}
   84986:	b083      	sub	sp, #12
   84988:	460b      	mov	r3, r1
   8498a:	4614      	mov	r4, r2
	if (SCPI_CTRL_SRQ == ctrl) 
   8498c:	2901      	cmp	r1, #1
   8498e:	d118      	bne.n	849c2 <SCPI_Control+0x3e>
	{
		printf("**SRQ: 0x%X (%d)\r\n", val, val);
   84990:	f641 25e4 	movw	r5, #6884	; 0x1ae4
   84994:	f2c2 0507 	movt	r5, #8199	; 0x2007
   84998:	9200      	str	r2, [sp, #0]
   8499a:	4628      	mov	r0, r5
   8499c:	f04f 0164 	mov.w	r1, #100	; 0x64
   849a0:	f64c 4220 	movw	r2, #52256	; 0xcc20
   849a4:	f2c0 0208 	movt	r2, #8
   849a8:	4623      	mov	r3, r4
   849aa:	f649 74c7 	movw	r4, #40903	; 0x9fc7
   849ae:	f2c0 0408 	movt	r4, #8
   849b2:	47a0      	blx	r4
   849b4:	4628      	mov	r0, r5
   849b6:	f644 0179 	movw	r1, #18553	; 0x4879
   849ba:	f2c0 0108 	movt	r1, #8
   849be:	4788      	blx	r1
   849c0:	e017      	b.n	849f2 <SCPI_Control+0x6e>
	}
	else 
	{
		printf("**CTRL %02x: 0x%X (%d)\r\n", ctrl, val, val);
   849c2:	f641 25e4 	movw	r5, #6884	; 0x1ae4
   849c6:	f2c2 0507 	movt	r5, #8199	; 0x2007
   849ca:	9200      	str	r2, [sp, #0]
   849cc:	9201      	str	r2, [sp, #4]
   849ce:	4628      	mov	r0, r5
   849d0:	f04f 0164 	mov.w	r1, #100	; 0x64
   849d4:	f64c 4234 	movw	r2, #52276	; 0xcc34
   849d8:	f2c0 0208 	movt	r2, #8
   849dc:	f649 74c7 	movw	r4, #40903	; 0x9fc7
   849e0:	f2c0 0408 	movt	r4, #8
   849e4:	47a0      	blx	r4
   849e6:	4628      	mov	r0, r5
   849e8:	f644 0379 	movw	r3, #18553	; 0x4879
   849ec:	f2c0 0308 	movt	r3, #8
   849f0:	4798      	blx	r3
	}
	return SCPI_RES_OK;
}
   849f2:	f04f 0001 	mov.w	r0, #1
   849f6:	b003      	add	sp, #12
   849f8:	bd30      	pop	{r4, r5, pc}
   849fa:	bf00      	nop

000849fc <SCPI_Test>:

scpi_result_t SCPI_Test(scpi_t * context) 
{
   849fc:	b508      	push	{r3, lr}
	printf("**Test\r\n");
   849fe:	f641 22e4 	movw	r2, #6884	; 0x1ae4
   84a02:	f2c2 0207 	movt	r2, #8199	; 0x2007
   84a06:	f64c 4350 	movw	r3, #52304	; 0xcc50
   84a0a:	f2c0 0308 	movt	r3, #8
   84a0e:	cb03      	ldmia	r3!, {r0, r1}
   84a10:	6010      	str	r0, [r2, #0]
   84a12:	6051      	str	r1, [r2, #4]
   84a14:	7818      	ldrb	r0, [r3, #0]
   84a16:	7210      	strb	r0, [r2, #8]
   84a18:	4610      	mov	r0, r2
   84a1a:	f644 0179 	movw	r1, #18553	; 0x4879
   84a1e:	f2c0 0108 	movt	r1, #8
   84a22:	4788      	blx	r1
	return SCPI_RES_OK;
}
   84a24:	f04f 0001 	mov.w	r0, #1
   84a28:	bd08      	pop	{r3, pc}
   84a2a:	bf00      	nop

00084a2c <SCPI_Reset>:

scpi_result_t SCPI_Reset(scpi_t * context) 
{
   84a2c:	b508      	push	{r3, lr}
	printf("**Reset\r\n");
   84a2e:	f641 22e4 	movw	r2, #6884	; 0x1ae4
   84a32:	f2c2 0207 	movt	r2, #8199	; 0x2007
   84a36:	f64c 435c 	movw	r3, #52316	; 0xcc5c
   84a3a:	f2c0 0308 	movt	r3, #8
   84a3e:	cb03      	ldmia	r3!, {r0, r1}
   84a40:	6010      	str	r0, [r2, #0]
   84a42:	6051      	str	r1, [r2, #4]
   84a44:	8818      	ldrh	r0, [r3, #0]
   84a46:	8110      	strh	r0, [r2, #8]
   84a48:	4610      	mov	r0, r2
   84a4a:	f644 0179 	movw	r1, #18553	; 0x4879
   84a4e:	f2c0 0108 	movt	r1, #8
   84a52:	4788      	blx	r1
	return SCPI_RES_OK;
}
   84a54:	f04f 0001 	mov.w	r0, #1
   84a58:	bd08      	pop	{r3, pc}
   84a5a:	bf00      	nop

00084a5c <console_init>:

void console_init(void)
{
   84a5c:	b508      	push	{r3, lr}
	SCPI_Init(&scpi_context);
   84a5e:	f240 0038 	movw	r0, #56	; 0x38
   84a62:	f2c2 0007 	movt	r0, #8199	; 0x2007
   84a66:	f243 03d1 	movw	r3, #12497	; 0x30d1
   84a6a:	f2c0 0308 	movt	r3, #8
   84a6e:	4798      	blx	r3
   84a70:	bd08      	pop	{r3, pc}
   84a72:	bf00      	nop

00084a74 <console_process>:
}

void console_process(void)
{
   84a74:	e92d 47f0 	stmdb	sp!, {r4, r5, r6, r7, r8, r9, sl, lr}
	iram_size_t data_remaining = 0;
	uint8_t temp_buffer[10];
	
	if(udi_cdc_get_nb_received_data() == 0)
   84a78:	f245 239d 	movw	r3, #21149	; 0x529d
   84a7c:	f2c0 0308 	movt	r3, #8
   84a80:	4798      	blx	r3
   84a82:	2800      	cmp	r0, #0
   84a84:	d040      	beq.n	84b08 <console_process+0x94>
		return;
	
	do 
	{
		data_remaining = udi_cdc_read_buf(current_input_line+current_input_line_pointer, 1);
   84a86:	f640 445e 	movw	r4, #3166	; 0xc5e
   84a8a:	f2c2 0407 	movt	r4, #8199	; 0x2007
   84a8e:	f641 3548 	movw	r5, #6984	; 0x1b48
   84a92:	f2c2 0507 	movt	r5, #8199	; 0x2007
   84a96:	f04f 0601 	mov.w	r6, #1
   84a9a:	f245 5ab1 	movw	sl, #21937	; 0x55b1
   84a9e:	f2c0 0a08 	movt	sl, #8
		//udi_cdc_putc(current_input_line[current_input_line_pointer]);
		SCPI_Input(&scpi_context, current_input_line+current_input_line_pointer, 1);
   84aa2:	f240 0938 	movw	r9, #56	; 0x38
   84aa6:	f2c2 0907 	movt	r9, #8199	; 0x2007
   84aaa:	f243 08e5 	movw	r8, #12517	; 0x30e5
   84aae:	f2c0 0808 	movt	r8, #8
	if(udi_cdc_get_nb_received_data() == 0)
		return;
	
	do 
	{
		data_remaining = udi_cdc_read_buf(current_input_line+current_input_line_pointer, 1);
   84ab2:	8820      	ldrh	r0, [r4, #0]
   84ab4:	1940      	adds	r0, r0, r5
   84ab6:	4631      	mov	r1, r6
   84ab8:	47d0      	blx	sl
   84aba:	4607      	mov	r7, r0
		//udi_cdc_putc(current_input_line[current_input_line_pointer]);
		SCPI_Input(&scpi_context, current_input_line+current_input_line_pointer, 1);
   84abc:	8821      	ldrh	r1, [r4, #0]
   84abe:	4648      	mov	r0, r9
   84ac0:	1949      	adds	r1, r1, r5
   84ac2:	4632      	mov	r2, r6
   84ac4:	47c0      	blx	r8
		current_input_line_pointer++;
   84ac6:	8822      	ldrh	r2, [r4, #0]
   84ac8:	f102 0201 	add.w	r2, r2, #1
   84acc:	b293      	uxth	r3, r2
   84ace:	8023      	strh	r3, [r4, #0]
		
		if((current_input_line[current_input_line_pointer-1] == 0x0D) || (current_input_line[current_input_line_pointer-1] == 0x0A))
   84ad0:	18e8      	adds	r0, r5, r3
   84ad2:	f810 1c01 	ldrb.w	r1, [r0, #-1]
   84ad6:	290d      	cmp	r1, #13
   84ad8:	d001      	beq.n	84ade <console_process+0x6a>
   84ada:	290a      	cmp	r1, #10
   84adc:	d102      	bne.n	84ae4 <console_process+0x70>
		{
			current_input_line_pointer = 0;
   84ade:	f04f 0200 	mov.w	r2, #0
   84ae2:	8022      	strh	r2, [r4, #0]
			// should we do another parsing rather than scpi?
		}
	} 
	while((data_remaining > 0) && (current_input_line_pointer < LINE_BUFFER_SIZE));
   84ae4:	b117      	cbz	r7, 84aec <console_process+0x78>
   84ae6:	8823      	ldrh	r3, [r4, #0]
   84ae8:	2bc7      	cmp	r3, #199	; 0xc7
   84aea:	d9e2      	bls.n	84ab2 <console_process+0x3e>
	
	if(current_input_line_pointer == LINE_BUFFER_SIZE)
   84aec:	f640 405e 	movw	r0, #3166	; 0xc5e
   84af0:	f2c2 0007 	movt	r0, #8199	; 0x2007
   84af4:	8801      	ldrh	r1, [r0, #0]
   84af6:	29c8      	cmp	r1, #200	; 0xc8
   84af8:	d106      	bne.n	84b08 <console_process+0x94>
	{
		// We should return a message or smth...
		current_input_line_pointer = 0;
   84afa:	f640 435e 	movw	r3, #3166	; 0xc5e
   84afe:	f2c2 0307 	movt	r3, #8199	; 0x2007
   84b02:	f04f 0200 	mov.w	r2, #0
   84b06:	801a      	strh	r2, [r3, #0]
   84b08:	e8bd 87f0 	ldmia.w	sp!, {r4, r5, r6, r7, r8, r9, sl, pc}

00084b0c <main_extra_string>:
   84b0c:	f641 4318 	movw	r3, #7192	; 0x1c18
   84b10:	f2c2 0307 	movt	r3, #8199	; 0x2007
   84b14:	7898      	ldrb	r0, [r3, #2]
   84b16:	2804      	cmp	r0, #4
   84b18:	d002      	beq.n	84b20 <main_extra_string+0x14>
   84b1a:	2805      	cmp	r0, #5
   84b1c:	d13b      	bne.n	84b96 <main_extra_string+0x8a>
   84b1e:	e004      	b.n	84b2a <main_extra_string+0x1e>
   84b20:	f240 02bc 	movw	r2, #188	; 0xbc
   84b24:	f2c2 0207 	movt	r2, #8199	; 0x2007
   84b28:	e003      	b.n	84b32 <main_extra_string+0x26>
   84b2a:	f240 0290 	movw	r2, #144	; 0x90
   84b2e:	f2c2 0207 	movt	r2, #8199	; 0x2007
   84b32:	f240 03a0 	movw	r3, #160	; 0xa0
   84b36:	f2c2 0307 	movt	r3, #8199	; 0x2007
   84b3a:	7811      	ldrb	r1, [r2, #0]
   84b3c:	8059      	strh	r1, [r3, #2]
   84b3e:	7850      	ldrb	r0, [r2, #1]
   84b40:	8098      	strh	r0, [r3, #4]
   84b42:	7891      	ldrb	r1, [r2, #2]
   84b44:	80d9      	strh	r1, [r3, #6]
   84b46:	78d0      	ldrb	r0, [r2, #3]
   84b48:	8118      	strh	r0, [r3, #8]
   84b4a:	7911      	ldrb	r1, [r2, #4]
   84b4c:	8159      	strh	r1, [r3, #10]
   84b4e:	7950      	ldrb	r0, [r2, #5]
   84b50:	8198      	strh	r0, [r3, #12]
   84b52:	7991      	ldrb	r1, [r2, #6]
   84b54:	81d9      	strh	r1, [r3, #14]
   84b56:	79d0      	ldrb	r0, [r2, #7]
   84b58:	8218      	strh	r0, [r3, #16]
   84b5a:	7a11      	ldrb	r1, [r2, #8]
   84b5c:	8259      	strh	r1, [r3, #18]
   84b5e:	7a50      	ldrb	r0, [r2, #9]
   84b60:	8298      	strh	r0, [r3, #20]
   84b62:	7a91      	ldrb	r1, [r2, #10]
   84b64:	82d9      	strh	r1, [r3, #22]
   84b66:	7ad0      	ldrb	r0, [r2, #11]
   84b68:	8318      	strh	r0, [r3, #24]
   84b6a:	7b12      	ldrb	r2, [r2, #12]
   84b6c:	835a      	strh	r2, [r3, #26]
   84b6e:	f04f 011c 	mov.w	r1, #28
   84b72:	7019      	strb	r1, [r3, #0]
   84b74:	f641 4018 	movw	r0, #7192	; 0x1c18
   84b78:	f2c2 0007 	movt	r0, #8199	; 0x2007
   84b7c:	8181      	strh	r1, [r0, #12]
   84b7e:	6083      	str	r3, [r0, #8]
   84b80:	88c3      	ldrh	r3, [r0, #6]
   84b82:	2b1b      	cmp	r3, #27
   84b84:	d80a      	bhi.n	84b9c <main_extra_string+0x90>
   84b86:	f641 4218 	movw	r2, #7192	; 0x1c18
   84b8a:	f2c2 0207 	movt	r2, #8199	; 0x2007
   84b8e:	8193      	strh	r3, [r2, #12]
   84b90:	f04f 0001 	mov.w	r0, #1
   84b94:	4770      	bx	lr
   84b96:	f04f 0000 	mov.w	r0, #0
   84b9a:	4770      	bx	lr
   84b9c:	f04f 0001 	mov.w	r0, #1
   84ba0:	4770      	bx	lr
   84ba2:	bf00      	nop

00084ba4 <HardFault_Handler>:
         * Get the appropriate stack pointer, depending on our mode,
         * and use it as the parameter to the C handler. This function
         * will never return
         */

        __asm(  ".syntax unified\n"
   84ba4:	2004      	movs	r0, #4
   84ba6:	4671      	mov	r1, lr
   84ba8:	4208      	tst	r0, r1
   84baa:	f000 8004 	beq.w	84bb6 <_MSP>
   84bae:	f3ef 8009 	mrs	r0, PSP
   84bb2:	f000 b805 	b.w	84bc0 <HardFault_HandlerC>

00084bb6 <_MSP>:
   84bb6:	f3ef 8008 	mrs	r0, MSP
   84bba:	f000 b801 	b.w	84bc0 <HardFault_HandlerC>
   84bbe:	bf00      	nop

00084bc0 <HardFault_HandlerC>:
 * into local variables for ease of reading.
 * We then read the various Fault Status and Address Registers to help decode
 * cause of the fault.
 * The function ends with a BKPT instruction to force control back into the debugger
 */
void HardFault_HandlerC(unsigned long *hardfault_args){
   84bc0:	b08e      	sub	sp, #56	; 0x38
        volatile unsigned long _DFSR ;
        volatile unsigned long _AFSR ;
        volatile unsigned long _BFAR ;
        volatile unsigned long _MMAR ;

        stacked_r0 = ((unsigned long)hardfault_args[0]) ;
   84bc2:	6803      	ldr	r3, [r0, #0]
   84bc4:	930d      	str	r3, [sp, #52]	; 0x34
        stacked_r1 = ((unsigned long)hardfault_args[1]) ;
   84bc6:	6841      	ldr	r1, [r0, #4]
   84bc8:	910c      	str	r1, [sp, #48]	; 0x30
        stacked_r2 = ((unsigned long)hardfault_args[2]) ;
   84bca:	6882      	ldr	r2, [r0, #8]
   84bcc:	920b      	str	r2, [sp, #44]	; 0x2c
        stacked_r3 = ((unsigned long)hardfault_args[3]) ;
   84bce:	68c3      	ldr	r3, [r0, #12]
   84bd0:	930a      	str	r3, [sp, #40]	; 0x28
        stacked_r12 = ((unsigned long)hardfault_args[4]) ;
   84bd2:	6901      	ldr	r1, [r0, #16]
   84bd4:	9109      	str	r1, [sp, #36]	; 0x24
        stacked_lr = ((unsigned long)hardfault_args[5]) ;
   84bd6:	6942      	ldr	r2, [r0, #20]
   84bd8:	9208      	str	r2, [sp, #32]
        stacked_pc = ((unsigned long)hardfault_args[6]) ;
   84bda:	6983      	ldr	r3, [r0, #24]
   84bdc:	9307      	str	r3, [sp, #28]
        stacked_psr = ((unsigned long)hardfault_args[7]) ;
   84bde:	69c0      	ldr	r0, [r0, #28]
   84be0:	9006      	str	r0, [sp, #24]

        // Configurable Fault Status Register
        // Consists of MMSR, BFSR and UFSR
        _CFSR = (*((volatile unsigned long *)(0xE000ED28))) ;   
   84be2:	f64e 5128 	movw	r1, #60712	; 0xed28
   84be6:	f2ce 0100 	movt	r1, #57344	; 0xe000
   84bea:	680a      	ldr	r2, [r1, #0]
   84bec:	9205      	str	r2, [sp, #20]
                                                                                        
        // Hard Fault Status Register
        _HFSR = (*((volatile unsigned long *)(0xE000ED2C))) ;
   84bee:	f64e 532c 	movw	r3, #60716	; 0xed2c
   84bf2:	f2ce 0300 	movt	r3, #57344	; 0xe000
   84bf6:	6818      	ldr	r0, [r3, #0]
   84bf8:	9004      	str	r0, [sp, #16]

        // Debug Fault Status Register
        _DFSR = (*((volatile unsigned long *)(0xE000ED30))) ;
   84bfa:	f64e 5130 	movw	r1, #60720	; 0xed30
   84bfe:	f2ce 0100 	movt	r1, #57344	; 0xe000
   84c02:	680a      	ldr	r2, [r1, #0]
   84c04:	9203      	str	r2, [sp, #12]

        // Auxiliary Fault Status Register
        _AFSR = (*((volatile unsigned long *)(0xE000ED3C))) ;
   84c06:	f64e 533c 	movw	r3, #60732	; 0xed3c
   84c0a:	f2ce 0300 	movt	r3, #57344	; 0xe000
   84c0e:	6818      	ldr	r0, [r3, #0]
   84c10:	9002      	str	r0, [sp, #8]

        // Read the Fault Address Registers. These may not contain valid values.
        // Check BFARVALID/MMARVALID to see if they are valid values
        // MemManage Fault Address Register
        _MMAR = (*((volatile unsigned long *)(0xE000ED34))) ;
   84c12:	f64e 5134 	movw	r1, #60724	; 0xed34
   84c16:	f2ce 0100 	movt	r1, #57344	; 0xe000
   84c1a:	680a      	ldr	r2, [r1, #0]
   84c1c:	9200      	str	r2, [sp, #0]
        // Bus Fault Address Register
        _BFAR = (*((volatile unsigned long *)(0xE000ED38))) ;
   84c1e:	f64e 5338 	movw	r3, #60728	; 0xed38
   84c22:	f2ce 0300 	movt	r3, #57344	; 0xe000
   84c26:	6818      	ldr	r0, [r3, #0]
   84c28:	9001      	str	r0, [sp, #4]

        __asm("BKPT #0\n") ; // Break into the debugger
   84c2a:	be00      	bkpt	0x0000
   84c2c:	e7fe      	b.n	84c2c <HardFault_HandlerC+0x6c>
   84c2e:	bf00      	nop

00084c30 <dmac_enable>:
   84c30:	f04f 0301 	mov.w	r3, #1
   84c34:	6043      	str	r3, [r0, #4]
   84c36:	4770      	bx	lr

00084c38 <dmac_channel_enable>:
   84c38:	f04f 0301 	mov.w	r3, #1
   84c3c:	fa03 f101 	lsl.w	r1, r3, r1
   84c40:	6281      	str	r1, [r0, #40]	; 0x28
   84c42:	4770      	bx	lr

00084c44 <dmac_channel_disable>:
   84c44:	f04f 0301 	mov.w	r3, #1
   84c48:	fa03 f101 	lsl.w	r1, r3, r1
   84c4c:	62c1      	str	r1, [r0, #44]	; 0x2c
   84c4e:	4770      	bx	lr

00084c50 <dmac_channel_set_source_addr>:
   84c50:	eb01 0181 	add.w	r1, r1, r1, lsl #2
   84c54:	eb00 00c1 	add.w	r0, r0, r1, lsl #3
   84c58:	63c2      	str	r2, [r0, #60]	; 0x3c
   84c5a:	4770      	bx	lr

00084c5c <dmac_channel_set_destination_addr>:
   84c5c:	eb01 0181 	add.w	r1, r1, r1, lsl #2
   84c60:	eb00 00c1 	add.w	r0, r0, r1, lsl #3
   84c64:	6402      	str	r2, [r0, #64]	; 0x40
   84c66:	4770      	bx	lr

00084c68 <dmac_channel_set_descriptor_addr>:
   84c68:	eb01 0181 	add.w	r1, r1, r1, lsl #2
   84c6c:	eb00 00c1 	add.w	r0, r0, r1, lsl #3
   84c70:	6442      	str	r2, [r0, #68]	; 0x44
   84c72:	4770      	bx	lr

00084c74 <dmac_channel_set_ctrlA>:
   84c74:	eb01 0181 	add.w	r1, r1, r1, lsl #2
   84c78:	eb00 00c1 	add.w	r0, r0, r1, lsl #3
   84c7c:	6482      	str	r2, [r0, #72]	; 0x48
   84c7e:	4770      	bx	lr

00084c80 <dmac_channel_set_ctrlB>:
   84c80:	eb01 0181 	add.w	r1, r1, r1, lsl #2
   84c84:	eb00 00c1 	add.w	r0, r0, r1, lsl #3
   84c88:	64c2      	str	r2, [r0, #76]	; 0x4c
   84c8a:	4770      	bx	lr

00084c8c <dmac_channel_set_configuration>:
   84c8c:	eb01 0181 	add.w	r1, r1, r1, lsl #2
   84c90:	eb00 00c1 	add.w	r0, r0, r1, lsl #3
   84c94:	6502      	str	r2, [r0, #80]	; 0x50
   84c96:	4770      	bx	lr

00084c98 <dmac_channel_single_buf_transfer_init>:
   84c98:	b570      	push	{r4, r5, r6, lr}
   84c9a:	4604      	mov	r4, r0
   84c9c:	460e      	mov	r6, r1
   84c9e:	4615      	mov	r5, r2
   84ca0:	6a43      	ldr	r3, [r0, #36]	; 0x24
   84ca2:	6812      	ldr	r2, [r2, #0]
   84ca4:	f644 4351 	movw	r3, #19537	; 0x4c51
   84ca8:	f2c0 0308 	movt	r3, #8
   84cac:	4798      	blx	r3
   84cae:	4620      	mov	r0, r4
   84cb0:	4631      	mov	r1, r6
   84cb2:	686a      	ldr	r2, [r5, #4]
   84cb4:	f644 435d 	movw	r3, #19549	; 0x4c5d
   84cb8:	f2c0 0308 	movt	r3, #8
   84cbc:	4798      	blx	r3
   84cbe:	4620      	mov	r0, r4
   84cc0:	4631      	mov	r1, r6
   84cc2:	f04f 0200 	mov.w	r2, #0
   84cc6:	f644 4369 	movw	r3, #19561	; 0x4c69
   84cca:	f2c0 0308 	movt	r3, #8
   84cce:	4798      	blx	r3
   84cd0:	4620      	mov	r0, r4
   84cd2:	4631      	mov	r1, r6
   84cd4:	68aa      	ldr	r2, [r5, #8]
   84cd6:	f644 4375 	movw	r3, #19573	; 0x4c75
   84cda:	f2c0 0308 	movt	r3, #8
   84cde:	4798      	blx	r3
   84ce0:	4620      	mov	r0, r4
   84ce2:	4631      	mov	r1, r6
   84ce4:	68ea      	ldr	r2, [r5, #12]
   84ce6:	f644 4381 	movw	r3, #19585	; 0x4c81
   84cea:	f2c0 0308 	movt	r3, #8
   84cee:	4798      	blx	r3
   84cf0:	bd70      	pop	{r4, r5, r6, pc}
   84cf2:	bf00      	nop

00084cf4 <sysclk_enable_usb>:
   84cf4:	b508      	push	{r3, lr}
   84cf6:	f247 33c9 	movw	r3, #29641	; 0x73c9
   84cfa:	f2c0 0308 	movt	r3, #8
   84cfe:	4798      	blx	r3
   84d00:	f04f 0000 	mov.w	r0, #0
   84d04:	f247 416d 	movw	r1, #29805	; 0x746d
   84d08:	f2c0 0108 	movt	r1, #8
   84d0c:	4788      	blx	r1
   84d0e:	f247 4085 	movw	r0, #29829	; 0x7485
   84d12:	f2c0 0008 	movt	r0, #8
   84d16:	4780      	blx	r0
   84d18:	bd08      	pop	{r3, pc}
   84d1a:	bf00      	nop

00084d1c <sysclk_init>:
   84d1c:	b510      	push	{r4, lr}
   84d1e:	f44f 403d 	mov.w	r0, #48384	; 0xbd00
   84d22:	f2c0 5001 	movt	r0, #1281	; 0x501
   84d26:	f249 736d 	movw	r3, #38765	; 0x976d
   84d2a:	f2c0 0308 	movt	r3, #8
   84d2e:	4798      	blx	r3
   84d30:	f04f 0000 	mov.w	r0, #0
   84d34:	f04f 013e 	mov.w	r1, #62	; 0x3e
   84d38:	f247 3229 	movw	r2, #29481	; 0x7329
   84d3c:	f2c0 0208 	movt	r2, #8
   84d40:	4790      	blx	r2
   84d42:	f247 3499 	movw	r4, #29593	; 0x7399
   84d46:	f2c0 0408 	movt	r4, #8
   84d4a:	47a0      	blx	r4
   84d4c:	2800      	cmp	r0, #0
   84d4e:	d0fc      	beq.n	84d4a <sysclk_init+0x2e>
   84d50:	f247 30a9 	movw	r0, #29609	; 0x73a9
   84d54:	f2c0 0008 	movt	r0, #8
   84d58:	4780      	blx	r0
   84d5a:	f44f 61c0 	mov.w	r1, #1536	; 0x600
   84d5e:	f2c4 010e 	movt	r1, #16398	; 0x400e
   84d62:	f643 7301 	movw	r3, #16129	; 0x3f01
   84d66:	f2c2 030d 	movt	r3, #8205	; 0x200d
   84d6a:	628b      	str	r3, [r1, #40]	; 0x28
   84d6c:	f247 34b9 	movw	r4, #29625	; 0x73b9
   84d70:	f2c0 0408 	movt	r4, #8
   84d74:	47a0      	blx	r4
   84d76:	2800      	cmp	r0, #0
   84d78:	d0fc      	beq.n	84d74 <sysclk_init+0x58>
   84d7a:	f04f 0010 	mov.w	r0, #16
   84d7e:	f247 2289 	movw	r2, #29321	; 0x7289
   84d82:	f2c0 0208 	movt	r2, #8
   84d86:	4790      	blx	r2
   84d88:	f249 50a5 	movw	r0, #38309	; 0x95a5
   84d8c:	f2c0 0008 	movt	r0, #8
   84d90:	4780      	blx	r0
   84d92:	bd10      	pop	{r4, pc}

00084d94 <get_nb_lun>:
   84d94:	f04f 0001 	mov.w	r0, #1
   84d98:	4770      	bx	lr
   84d9a:	bf00      	nop

00084d9c <mem_test_unit_ready>:
   84d9c:	b508      	push	{r3, lr}
   84d9e:	b928      	cbnz	r0, 84dac <mem_test_unit_ready+0x10>
   84da0:	f643 736d 	movw	r3, #16237	; 0x3f6d
   84da4:	f2c0 0308 	movt	r3, #8
   84da8:	4798      	blx	r3
   84daa:	bd08      	pop	{r3, pc}
   84dac:	f04f 0001 	mov.w	r0, #1
   84db0:	bd08      	pop	{r3, pc}
   84db2:	bf00      	nop

00084db4 <mem_read_capacity>:
   84db4:	b508      	push	{r3, lr}
   84db6:	b930      	cbnz	r0, 84dc6 <mem_read_capacity+0x12>
   84db8:	4608      	mov	r0, r1
   84dba:	f643 73a9 	movw	r3, #16297	; 0x3fa9
   84dbe:	f2c0 0308 	movt	r3, #8
   84dc2:	4798      	blx	r3
   84dc4:	bd08      	pop	{r3, pc}
   84dc6:	f04f 0001 	mov.w	r0, #1
   84dca:	bd08      	pop	{r3, pc}

00084dcc <mem_unload>:
   84dcc:	b910      	cbnz	r0, 84dd4 <mem_unload+0x8>
   84dce:	f081 0001 	eor.w	r0, r1, #1
   84dd2:	4770      	bx	lr
   84dd4:	f04f 0000 	mov.w	r0, #0
   84dd8:	4770      	bx	lr
   84dda:	bf00      	nop

00084ddc <mem_wr_protect>:
   84ddc:	b508      	push	{r3, lr}
   84dde:	b928      	cbnz	r0, 84dec <mem_wr_protect+0x10>
   84de0:	f643 73cd 	movw	r3, #16333	; 0x3fcd
   84de4:	f2c0 0308 	movt	r3, #8
   84de8:	4798      	blx	r3
   84dea:	bd08      	pop	{r3, pc}
   84dec:	f04f 0001 	mov.w	r0, #1
   84df0:	bd08      	pop	{r3, pc}
   84df2:	bf00      	nop

00084df4 <mem_removal>:
   84df4:	b508      	push	{r3, lr}
   84df6:	b928      	cbnz	r0, 84e04 <mem_removal+0x10>
   84df8:	f643 73e9 	movw	r3, #16361	; 0x3fe9
   84dfc:	f2c0 0308 	movt	r3, #8
   84e00:	4798      	blx	r3
   84e02:	bd08      	pop	{r3, pc}
   84e04:	f04f 0001 	mov.w	r0, #1
   84e08:	bd08      	pop	{r3, pc}
   84e0a:	bf00      	nop

00084e0c <mem_name>:
   84e0c:	b920      	cbnz	r0, 84e18 <mem_name+0xc>
   84e0e:	f64c 4068 	movw	r0, #52328	; 0xcc68
   84e12:	f2c0 0008 	movt	r0, #8
   84e16:	4770      	bx	lr
   84e18:	f04f 0000 	mov.w	r0, #0
   84e1c:	4770      	bx	lr
   84e1e:	bf00      	nop

00084e20 <memory_2_usb>:
   84e20:	b508      	push	{r3, lr}
   84e22:	b938      	cbnz	r0, 84e34 <memory_2_usb+0x14>
   84e24:	4608      	mov	r0, r1
   84e26:	4611      	mov	r1, r2
   84e28:	f244 03b5 	movw	r3, #16565	; 0x40b5
   84e2c:	f2c0 0308 	movt	r3, #8
   84e30:	4798      	blx	r3
   84e32:	bd08      	pop	{r3, pc}
   84e34:	f04f 0001 	mov.w	r0, #1
   84e38:	bd08      	pop	{r3, pc}
   84e3a:	bf00      	nop

00084e3c <usb_2_memory>:
   84e3c:	b508      	push	{r3, lr}
   84e3e:	b938      	cbnz	r0, 84e50 <usb_2_memory+0x14>
   84e40:	4608      	mov	r0, r1
   84e42:	4611      	mov	r1, r2
   84e44:	f244 1381 	movw	r3, #16769	; 0x4181
   84e48:	f2c0 0308 	movt	r3, #8
   84e4c:	4798      	blx	r3
   84e4e:	bd08      	pop	{r3, pc}
   84e50:	f04f 0001 	mov.w	r0, #1
   84e54:	bd08      	pop	{r3, pc}
   84e56:	bf00      	nop

00084e58 <udi_cdc_comm_disable>:
   84e58:	f241 0378 	movw	r3, #4216	; 0x1078
   84e5c:	f2c2 0307 	movt	r3, #8199	; 0x2007
   84e60:	781a      	ldrb	r2, [r3, #0]
   84e62:	f102 30ff 	add.w	r0, r2, #4294967295
   84e66:	b2c1      	uxtb	r1, r0
   84e68:	7019      	strb	r1, [r3, #0]
   84e6a:	4770      	bx	lr

00084e6c <udi_cdc_data_setup>:
   84e6c:	f04f 0000 	mov.w	r0, #0
   84e70:	4770      	bx	lr
   84e72:	bf00      	nop

00084e74 <udi_cdc_getsetting>:
   84e74:	f04f 0000 	mov.w	r0, #0
   84e78:	4770      	bx	lr
   84e7a:	bf00      	nop

00084e7c <udi_cdc_line_coding_received>:
   84e7c:	4770      	bx	lr
   84e7e:	bf00      	nop

00084e80 <udi_cdc_tx_send>:
   84e80:	b530      	push	{r4, r5, lr}
   84e82:	b083      	sub	sp, #12
   84e84:	f241 038c 	movw	r3, #4236	; 0x108c
   84e88:	f2c2 0307 	movt	r3, #8199	; 0x2007
   84e8c:	7818      	ldrb	r0, [r3, #0]
   84e8e:	2800      	cmp	r0, #0
   84e90:	f040 80df 	bne.w	85052 <udi_cdc_tx_send+0x1d2>
   84e94:	f648 1105 	movw	r1, #35077	; 0x8905
   84e98:	f2c0 0108 	movt	r1, #8
   84e9c:	4788      	blx	r1
   84e9e:	b160      	cbz	r0, 84eba <udi_cdc_tx_send+0x3a>
   84ea0:	f241 0480 	movw	r4, #4224	; 0x1080
   84ea4:	f2c2 0407 	movt	r4, #8199	; 0x2007
   84ea8:	8824      	ldrh	r4, [r4, #0]
   84eaa:	f648 1069 	movw	r0, #35177	; 0x8969
   84eae:	f2c0 0008 	movt	r0, #8
   84eb2:	4780      	blx	r0
   84eb4:	4284      	cmp	r4, r0
   84eb6:	d10d      	bne.n	84ed4 <udi_cdc_tx_send+0x54>
   84eb8:	e0cb      	b.n	85052 <udi_cdc_tx_send+0x1d2>
   84eba:	f241 0280 	movw	r2, #4224	; 0x1080
   84ebe:	f2c2 0207 	movt	r2, #8199	; 0x2007
   84ec2:	8814      	ldrh	r4, [r2, #0]
   84ec4:	f648 1359 	movw	r3, #35161	; 0x8959
   84ec8:	f2c0 0308 	movt	r3, #8
   84ecc:	4798      	blx	r3
   84ece:	4284      	cmp	r4, r0
   84ed0:	f000 80bf 	beq.w	85052 <udi_cdc_tx_send+0x1d2>
   84ed4:	f3ef 8510 	mrs	r5, PRIMASK
   84ed8:	f1d5 0501 	rsbs	r5, r5, #1
   84edc:	bf38      	it	cc
   84ede:	2500      	movcc	r5, #0
   84ee0:	b672      	cpsid	i
   84ee2:	f3bf 8f5f 	dmb	sy
   84ee6:	f240 2198 	movw	r1, #664	; 0x298
   84eea:	f2c2 0107 	movt	r1, #8199	; 0x2007
   84eee:	f04f 0200 	mov.w	r2, #0
   84ef2:	700a      	strb	r2, [r1, #0]
   84ef4:	f640 436c 	movw	r3, #3180	; 0xc6c
   84ef8:	f2c2 0307 	movt	r3, #8199	; 0x2007
   84efc:	781c      	ldrb	r4, [r3, #0]
   84efe:	f640 4070 	movw	r0, #3184	; 0xc70
   84f02:	f2c2 0007 	movt	r0, #8199	; 0x2007
   84f06:	f830 1014 	ldrh.w	r1, [r0, r4, lsl #1]
   84f0a:	bb79      	cbnz	r1, 84f6c <udi_cdc_tx_send+0xec>
   84f0c:	f640 4368 	movw	r3, #3176	; 0xc68
   84f10:	f2c2 0307 	movt	r3, #8199	; 0x2007
   84f14:	881a      	ldrh	r2, [r3, #0]
   84f16:	f102 0201 	add.w	r2, r2, #1
   84f1a:	801a      	strh	r2, [r3, #0]
   84f1c:	f648 1005 	movw	r0, #35077	; 0x8905
   84f20:	f2c0 0008 	movt	r0, #8
   84f24:	4780      	blx	r0
   84f26:	b930      	cbnz	r0, 84f36 <udi_cdc_tx_send+0xb6>
   84f28:	f640 4168 	movw	r1, #3176	; 0xc68
   84f2c:	f2c2 0107 	movt	r1, #8199	; 0x2007
   84f30:	880b      	ldrh	r3, [r1, #0]
   84f32:	2b63      	cmp	r3, #99	; 0x63
   84f34:	d90d      	bls.n	84f52 <udi_cdc_tx_send+0xd2>
   84f36:	f648 1205 	movw	r2, #35077	; 0x8905
   84f3a:	f2c0 0208 	movt	r2, #8
   84f3e:	4790      	blx	r2
   84f40:	b1a0      	cbz	r0, 84f6c <udi_cdc_tx_send+0xec>
   84f42:	f640 4068 	movw	r0, #3176	; 0xc68
   84f46:	f2c2 0007 	movt	r0, #8199	; 0x2007
   84f4a:	8801      	ldrh	r1, [r0, #0]
   84f4c:	f5b1 7f48 	cmp.w	r1, #800	; 0x320
   84f50:	d20c      	bcs.n	84f6c <udi_cdc_tx_send+0xec>
   84f52:	2d00      	cmp	r5, #0
   84f54:	d07d      	beq.n	85052 <udi_cdc_tx_send+0x1d2>
   84f56:	f240 2398 	movw	r3, #664	; 0x298
   84f5a:	f2c2 0307 	movt	r3, #8199	; 0x2007
   84f5e:	f04f 0201 	mov.w	r2, #1
   84f62:	701a      	strb	r2, [r3, #0]
   84f64:	f3bf 8f5f 	dmb	sy
   84f68:	b662      	cpsie	i
   84f6a:	e072      	b.n	85052 <udi_cdc_tx_send+0x1d2>
   84f6c:	f640 4368 	movw	r3, #3176	; 0xc68
   84f70:	f2c2 0307 	movt	r3, #8199	; 0x2007
   84f74:	f04f 0200 	mov.w	r2, #0
   84f78:	801a      	strh	r2, [r3, #0]
   84f7a:	f241 40a0 	movw	r0, #5280	; 0x14a0
   84f7e:	f2c2 0007 	movt	r0, #8199	; 0x2007
   84f82:	7801      	ldrb	r1, [r0, #0]
   84f84:	b949      	cbnz	r1, 84f9a <udi_cdc_tx_send+0x11a>
   84f86:	4294      	cmp	r4, r2
   84f88:	bf14      	ite	ne
   84f8a:	2200      	movne	r2, #0
   84f8c:	2201      	moveq	r2, #1
   84f8e:	f640 436c 	movw	r3, #3180	; 0xc6c
   84f92:	f2c2 0307 	movt	r3, #8199	; 0x2007
   84f96:	701a      	strb	r2, [r3, #0]
   84f98:	e003      	b.n	84fa2 <udi_cdc_tx_send+0x122>
   84f9a:	f1d4 0401 	rsbs	r4, r4, #1
   84f9e:	bf38      	it	cc
   84fa0:	2400      	movcc	r4, #0
   84fa2:	f241 008c 	movw	r0, #4236	; 0x108c
   84fa6:	f2c2 0007 	movt	r0, #8199	; 0x2007
   84faa:	f04f 0201 	mov.w	r2, #1
   84fae:	7002      	strb	r2, [r0, #0]
   84fb0:	b13d      	cbz	r5, 84fc2 <udi_cdc_tx_send+0x142>
   84fb2:	f240 2598 	movw	r5, #664	; 0x298
   84fb6:	f2c2 0507 	movt	r5, #8199	; 0x2007
   84fba:	702a      	strb	r2, [r5, #0]
   84fbc:	f3bf 8f5f 	dmb	sy
   84fc0:	b662      	cpsie	i
   84fc2:	4625      	mov	r5, r4
   84fc4:	f640 4170 	movw	r1, #3184	; 0xc70
   84fc8:	f2c2 0107 	movt	r1, #8199	; 0x2007
   84fcc:	f831 4014 	ldrh.w	r4, [r1, r4, lsl #1]
   84fd0:	f5b4 7400 	subs.w	r4, r4, #512	; 0x200
   84fd4:	bf18      	it	ne
   84fd6:	2401      	movne	r4, #1
   84fd8:	b1dc      	cbz	r4, 85012 <udi_cdc_tx_send+0x192>
   84fda:	f648 1205 	movw	r2, #35077	; 0x8905
   84fde:	f2c0 0208 	movt	r2, #8
   84fe2:	4790      	blx	r2
   84fe4:	b150      	cbz	r0, 84ffc <udi_cdc_tx_send+0x17c>
   84fe6:	f648 1069 	movw	r0, #35177	; 0x8969
   84fea:	f2c0 0008 	movt	r0, #8
   84fee:	4780      	blx	r0
   84ff0:	f241 0280 	movw	r2, #4224	; 0x1080
   84ff4:	f2c2 0207 	movt	r2, #8199	; 0x2007
   84ff8:	8010      	strh	r0, [r2, #0]
   84ffa:	e011      	b.n	85020 <udi_cdc_tx_send+0x1a0>
   84ffc:	f648 1159 	movw	r1, #35161	; 0x8959
   85000:	f2c0 0108 	movt	r1, #8
   85004:	4788      	blx	r1
   85006:	f241 0380 	movw	r3, #4224	; 0x1080
   8500a:	f2c2 0307 	movt	r3, #8199	; 0x2007
   8500e:	8018      	strh	r0, [r3, #0]
   85010:	e006      	b.n	85020 <udi_cdc_tx_send+0x1a0>
   85012:	f241 0380 	movw	r3, #4224	; 0x1080
   85016:	f2c2 0307 	movt	r3, #8199	; 0x2007
   8501a:	f04f 0000 	mov.w	r0, #0
   8501e:	8018      	strh	r0, [r3, #0]
   85020:	f640 4170 	movw	r1, #3184	; 0xc70
   85024:	f2c2 0107 	movt	r1, #8199	; 0x2007
   85028:	f831 3015 	ldrh.w	r3, [r1, r5, lsl #1]
   8502c:	f245 006d 	movw	r0, #20589	; 0x506d
   85030:	f2c0 0008 	movt	r0, #8
   85034:	9000      	str	r0, [sp, #0]
   85036:	f04f 0084 	mov.w	r0, #132	; 0x84
   8503a:	4621      	mov	r1, r4
   8503c:	f640 4474 	movw	r4, #3188	; 0xc74
   85040:	f2c2 0407 	movt	r4, #8199	; 0x2007
   85044:	eb04 2245 	add.w	r2, r4, r5, lsl #9
   85048:	f648 4425 	movw	r4, #35877	; 0x8c25
   8504c:	f2c0 0408 	movt	r4, #8
   85050:	47a0      	blx	r4
   85052:	b003      	add	sp, #12
   85054:	bd30      	pop	{r4, r5, pc}
   85056:	bf00      	nop

00085058 <udi_cdc_data_sof_notify>:
   85058:	b508      	push	{r3, lr}
   8505a:	f04f 0000 	mov.w	r0, #0
   8505e:	f644 6381 	movw	r3, #20097	; 0x4e81
   85062:	f2c0 0308 	movt	r3, #8
   85066:	4798      	blx	r3
   85068:	bd08      	pop	{r3, pc}
   8506a:	bf00      	nop

0008506c <udi_cdc_data_sent>:
   8506c:	b508      	push	{r3, lr}
   8506e:	b9e8      	cbnz	r0, 850ac <udi_cdc_data_sent+0x40>
   85070:	f640 436c 	movw	r3, #3180	; 0xc6c
   85074:	f2c2 0307 	movt	r3, #8199	; 0x2007
   85078:	7819      	ldrb	r1, [r3, #0]
   8507a:	f1d1 0101 	rsbs	r1, r1, #1
   8507e:	bf38      	it	cc
   85080:	2100      	movcc	r1, #0
   85082:	f640 4370 	movw	r3, #3184	; 0xc70
   85086:	f2c2 0307 	movt	r3, #8199	; 0x2007
   8508a:	f823 0011 	strh.w	r0, [r3, r1, lsl #1]
   8508e:	f241 41a0 	movw	r1, #5280	; 0x14a0
   85092:	f2c2 0107 	movt	r1, #8199	; 0x2007
   85096:	7008      	strb	r0, [r1, #0]
   85098:	f241 028c 	movw	r2, #4236	; 0x108c
   8509c:	f2c2 0207 	movt	r2, #8199	; 0x2007
   850a0:	7010      	strb	r0, [r2, #0]
   850a2:	f644 6381 	movw	r3, #20097	; 0x4e81
   850a6:	f2c0 0308 	movt	r3, #8
   850aa:	4798      	blx	r3
   850ac:	bd08      	pop	{r3, pc}
   850ae:	bf00      	nop

000850b0 <udi_cdc_comm_setup>:
   850b0:	b508      	push	{r3, lr}
   850b2:	f641 4318 	movw	r3, #7192	; 0x1c18
   850b6:	f2c2 0307 	movt	r3, #8199	; 0x2007
   850ba:	7818      	ldrb	r0, [r3, #0]
   850bc:	f010 0f80 	tst.w	r0, #128	; 0x80
   850c0:	d020      	beq.n	85104 <udi_cdc_comm_setup+0x54>
   850c2:	f000 0160 	and.w	r1, r0, #96	; 0x60
   850c6:	2920      	cmp	r1, #32
   850c8:	d156      	bne.n	85178 <udi_cdc_comm_setup+0xc8>
   850ca:	f641 4218 	movw	r2, #7192	; 0x1c18
   850ce:	f2c2 0207 	movt	r2, #8199	; 0x2007
   850d2:	7853      	ldrb	r3, [r2, #1]
   850d4:	2b21      	cmp	r3, #33	; 0x21
   850d6:	d152      	bne.n	8517e <udi_cdc_comm_setup+0xce>
   850d8:	f641 4018 	movw	r0, #7192	; 0x1c18
   850dc:	f2c2 0007 	movt	r0, #8199	; 0x2007
   850e0:	88c1      	ldrh	r1, [r0, #6]
   850e2:	2907      	cmp	r1, #7
   850e4:	d14e      	bne.n	85184 <udi_cdc_comm_setup+0xd4>
   850e6:	f641 4318 	movw	r3, #7192	; 0x1c18
   850ea:	f2c2 0307 	movt	r3, #8199	; 0x2007
   850ee:	f640 4260 	movw	r2, #3168	; 0xc60
   850f2:	f2c2 0207 	movt	r2, #8199	; 0x2007
   850f6:	609a      	str	r2, [r3, #8]
   850f8:	f04f 0007 	mov.w	r0, #7
   850fc:	8198      	strh	r0, [r3, #12]
   850fe:	f04f 0001 	mov.w	r0, #1
   85102:	bd08      	pop	{r3, pc}
   85104:	f000 0160 	and.w	r1, r0, #96	; 0x60
   85108:	2920      	cmp	r1, #32
   8510a:	d13e      	bne.n	8518a <udi_cdc_comm_setup+0xda>
   8510c:	f641 4218 	movw	r2, #7192	; 0x1c18
   85110:	f2c2 0207 	movt	r2, #8199	; 0x2007
   85114:	7853      	ldrb	r3, [r2, #1]
   85116:	2b20      	cmp	r3, #32
   85118:	d002      	beq.n	85120 <udi_cdc_comm_setup+0x70>
   8511a:	2b22      	cmp	r3, #34	; 0x22
   8511c:	d138      	bne.n	85190 <udi_cdc_comm_setup+0xe0>
   8511e:	e01a      	b.n	85156 <udi_cdc_comm_setup+0xa6>
   85120:	f641 4318 	movw	r3, #7192	; 0x1c18
   85124:	f2c2 0307 	movt	r3, #8199	; 0x2007
   85128:	88d8      	ldrh	r0, [r3, #6]
   8512a:	2807      	cmp	r0, #7
   8512c:	d133      	bne.n	85196 <udi_cdc_comm_setup+0xe6>
   8512e:	f641 4118 	movw	r1, #7192	; 0x1c18
   85132:	f2c2 0107 	movt	r1, #8199	; 0x2007
   85136:	f644 627d 	movw	r2, #20093	; 0x4e7d
   8513a:	f2c0 0208 	movt	r2, #8
   8513e:	610a      	str	r2, [r1, #16]
   85140:	f640 4360 	movw	r3, #3168	; 0xc60
   85144:	f2c2 0307 	movt	r3, #8199	; 0x2007
   85148:	608b      	str	r3, [r1, #8]
   8514a:	f04f 0007 	mov.w	r0, #7
   8514e:	8188      	strh	r0, [r1, #12]
   85150:	f04f 0001 	mov.w	r0, #1
   85154:	bd08      	pop	{r3, pc}
   85156:	f641 4018 	movw	r0, #7192	; 0x1c18
   8515a:	f2c2 0007 	movt	r0, #8199	; 0x2007
   8515e:	7881      	ldrb	r1, [r0, #2]
   85160:	f04f 0000 	mov.w	r0, #0
   85164:	f001 0101 	and.w	r1, r1, #1
   85168:	f644 02b5 	movw	r2, #18613	; 0x48b5
   8516c:	f2c0 0208 	movt	r2, #8
   85170:	4790      	blx	r2
   85172:	f04f 0001 	mov.w	r0, #1
   85176:	bd08      	pop	{r3, pc}
   85178:	f04f 0000 	mov.w	r0, #0
   8517c:	bd08      	pop	{r3, pc}
   8517e:	f04f 0000 	mov.w	r0, #0
   85182:	bd08      	pop	{r3, pc}
   85184:	f04f 0000 	mov.w	r0, #0
   85188:	bd08      	pop	{r3, pc}
   8518a:	f04f 0000 	mov.w	r0, #0
   8518e:	bd08      	pop	{r3, pc}
   85190:	f04f 0000 	mov.w	r0, #0
   85194:	bd08      	pop	{r3, pc}
   85196:	f04f 0000 	mov.w	r0, #0
   8519a:	bd08      	pop	{r3, pc}

0008519c <udi_cdc_data_disable>:
   8519c:	b508      	push	{r3, lr}
   8519e:	f640 436a 	movw	r3, #3178	; 0xc6a
   851a2:	f2c2 0307 	movt	r3, #8199	; 0x2007
   851a6:	781a      	ldrb	r2, [r3, #0]
   851a8:	f102 30ff 	add.w	r0, r2, #4294967295
   851ac:	b2c1      	uxtb	r1, r0
   851ae:	7019      	strb	r1, [r3, #0]
   851b0:	7818      	ldrb	r0, [r3, #0]
   851b2:	f649 0391 	movw	r3, #39057	; 0x9891
   851b6:	f2c0 0308 	movt	r3, #8
   851ba:	4798      	blx	r3
   851bc:	f241 0084 	movw	r0, #4228	; 0x1084
   851c0:	f2c2 0007 	movt	r0, #8199	; 0x2007
   851c4:	f04f 0200 	mov.w	r2, #0
   851c8:	7002      	strb	r2, [r0, #0]
   851ca:	bd08      	pop	{r3, pc}

000851cc <udi_cdc_comm_enable>:
   851cc:	b508      	push	{r3, lr}
   851ce:	f04f 0000 	mov.w	r0, #0
   851d2:	f241 0378 	movw	r3, #4216	; 0x1078
   851d6:	f2c2 0307 	movt	r3, #8199	; 0x2007
   851da:	7018      	strb	r0, [r3, #0]
   851dc:	f241 41a4 	movw	r1, #5284	; 0x14a4
   851e0:	f2c2 0107 	movt	r1, #8199	; 0x2007
   851e4:	8008      	strh	r0, [r1, #0]
   851e6:	f241 0390 	movw	r3, #4240	; 0x1090
   851ea:	f2c2 0307 	movt	r3, #8199	; 0x2007
   851ee:	f04f 01a1 	mov.w	r1, #161	; 0xa1
   851f2:	7019      	strb	r1, [r3, #0]
   851f4:	f04f 0120 	mov.w	r1, #32
   851f8:	7059      	strb	r1, [r3, #1]
   851fa:	8058      	strh	r0, [r3, #2]
   851fc:	8098      	strh	r0, [r3, #4]
   851fe:	f04f 0102 	mov.w	r1, #2
   85202:	80d9      	strh	r1, [r3, #6]
   85204:	8118      	strh	r0, [r3, #8]
   85206:	f640 4360 	movw	r3, #3168	; 0xc60
   8520a:	f2c2 0307 	movt	r3, #8199	; 0x2007
   8520e:	f44f 31e1 	mov.w	r1, #115200	; 0x1c200
   85212:	6019      	str	r1, [r3, #0]
   85214:	7118      	strb	r0, [r3, #4]
   85216:	7158      	strb	r0, [r3, #5]
   85218:	f04f 0208 	mov.w	r2, #8
   8521c:	719a      	strb	r2, [r3, #6]
   8521e:	f649 0381 	movw	r3, #39041	; 0x9881
   85222:	f2c0 0308 	movt	r3, #8
   85226:	4798      	blx	r3
   85228:	b158      	cbz	r0, 85242 <udi_cdc_comm_enable+0x76>
   8522a:	f241 0078 	movw	r0, #4216	; 0x1078
   8522e:	f2c2 0007 	movt	r0, #8199	; 0x2007
   85232:	7801      	ldrb	r1, [r0, #0]
   85234:	f101 0101 	add.w	r1, r1, #1
   85238:	b2ca      	uxtb	r2, r1
   8523a:	7002      	strb	r2, [r0, #0]
   8523c:	f04f 0001 	mov.w	r0, #1
   85240:	bd08      	pop	{r3, pc}
   85242:	f04f 0000 	mov.w	r0, #0
   85246:	bd08      	pop	{r3, pc}

00085248 <udi_cdc_multi_get_nb_received_data>:
   85248:	f3ef 8310 	mrs	r3, PRIMASK
   8524c:	b672      	cpsid	i
   8524e:	f3bf 8f5f 	dmb	sy
   85252:	f240 2298 	movw	r2, #664	; 0x298
   85256:	f2c2 0207 	movt	r2, #8199	; 0x2007
   8525a:	f04f 0100 	mov.w	r1, #0
   8525e:	7011      	strb	r1, [r2, #0]
   85260:	f241 007c 	movw	r0, #4220	; 0x107c
   85264:	f2c2 0007 	movt	r0, #8199	; 0x2007
   85268:	8802      	ldrh	r2, [r0, #0]
   8526a:	b290      	uxth	r0, r2
   8526c:	f241 0188 	movw	r1, #4232	; 0x1088
   85270:	f2c2 0107 	movt	r1, #8199	; 0x2007
   85274:	7809      	ldrb	r1, [r1, #0]
   85276:	f241 0274 	movw	r2, #4212	; 0x1074
   8527a:	f2c2 0207 	movt	r2, #8199	; 0x2007
   8527e:	f832 1011 	ldrh.w	r1, [r2, r1, lsl #1]
   85282:	1a08      	subs	r0, r1, r0
   85284:	b94b      	cbnz	r3, 8529a <udi_cdc_multi_get_nb_received_data+0x52>
   85286:	f240 2398 	movw	r3, #664	; 0x298
   8528a:	f2c2 0307 	movt	r3, #8199	; 0x2007
   8528e:	f04f 0201 	mov.w	r2, #1
   85292:	701a      	strb	r2, [r3, #0]
   85294:	f3bf 8f5f 	dmb	sy
   85298:	b662      	cpsie	i
   8529a:	4770      	bx	lr

0008529c <udi_cdc_get_nb_received_data>:
   8529c:	b508      	push	{r3, lr}
   8529e:	f04f 0000 	mov.w	r0, #0
   852a2:	f245 2349 	movw	r3, #21065	; 0x5249
   852a6:	f2c0 0308 	movt	r3, #8
   852aa:	4798      	blx	r3
   852ac:	bd08      	pop	{r3, pc}
   852ae:	bf00      	nop

000852b0 <udi_cdc_multi_is_rx_ready>:
   852b0:	b508      	push	{r3, lr}
   852b2:	f245 2349 	movw	r3, #21065	; 0x5249
   852b6:	f2c0 0308 	movt	r3, #8
   852ba:	4798      	blx	r3
   852bc:	3000      	adds	r0, #0
   852be:	bf18      	it	ne
   852c0:	2001      	movne	r0, #1
   852c2:	bd08      	pop	{r3, pc}

000852c4 <udi_cdc_rx_start>:
   852c4:	b510      	push	{r4, lr}
   852c6:	b082      	sub	sp, #8
   852c8:	f3ef 8310 	mrs	r3, PRIMASK
   852cc:	f1d3 0001 	rsbs	r0, r3, #1
   852d0:	bf38      	it	cc
   852d2:	2000      	movcc	r0, #0
   852d4:	b672      	cpsid	i
   852d6:	f3bf 8f5f 	dmb	sy
   852da:	f240 2298 	movw	r2, #664	; 0x298
   852de:	f2c2 0207 	movt	r2, #8199	; 0x2007
   852e2:	f04f 0100 	mov.w	r1, #0
   852e6:	7011      	strb	r1, [r2, #0]
   852e8:	f241 0488 	movw	r4, #4232	; 0x1088
   852ec:	f2c2 0407 	movt	r4, #8199	; 0x2007
   852f0:	7824      	ldrb	r4, [r4, #0]
   852f2:	f241 439c 	movw	r3, #5276	; 0x149c
   852f6:	f2c2 0307 	movt	r3, #8199	; 0x2007
   852fa:	781a      	ldrb	r2, [r3, #0]
   852fc:	b96a      	cbnz	r2, 8531a <udi_cdc_rx_start+0x56>
   852fe:	f241 017c 	movw	r1, #4220	; 0x107c
   85302:	f2c2 0107 	movt	r1, #8199	; 0x2007
   85306:	880b      	ldrh	r3, [r1, #0]
   85308:	b29a      	uxth	r2, r3
   8530a:	f241 0174 	movw	r1, #4212	; 0x1074
   8530e:	f2c2 0107 	movt	r1, #8199	; 0x2007
   85312:	f831 3014 	ldrh.w	r3, [r1, r4, lsl #1]
   85316:	4293      	cmp	r3, r2
   85318:	d90e      	bls.n	85338 <udi_cdc_rx_start+0x74>
   8531a:	2800      	cmp	r0, #0
   8531c:	d052      	beq.n	853c4 <udi_cdc_rx_start+0x100>
   8531e:	f240 2198 	movw	r1, #664	; 0x298
   85322:	f2c2 0107 	movt	r1, #8199	; 0x2007
   85326:	f04f 0201 	mov.w	r2, #1
   8532a:	700a      	strb	r2, [r1, #0]
   8532c:	f3bf 8f5f 	dmb	sy
   85330:	b662      	cpsie	i
   85332:	f04f 0000 	mov.w	r0, #0
   85336:	e047      	b.n	853c8 <udi_cdc_rx_start+0x104>
   85338:	f241 027c 	movw	r2, #4220	; 0x107c
   8533c:	f2c2 0207 	movt	r2, #8199	; 0x2007
   85340:	f04f 0100 	mov.w	r1, #0
   85344:	8011      	strh	r1, [r2, #0]
   85346:	428c      	cmp	r4, r1
   85348:	bf14      	ite	ne
   8534a:	2100      	movne	r1, #0
   8534c:	2101      	moveq	r1, #1
   8534e:	f241 0388 	movw	r3, #4232	; 0x1088
   85352:	f2c2 0307 	movt	r3, #8199	; 0x2007
   85356:	7019      	strb	r1, [r3, #0]
   85358:	f241 429c 	movw	r2, #5276	; 0x149c
   8535c:	f2c2 0207 	movt	r2, #8199	; 0x2007
   85360:	f04f 0101 	mov.w	r1, #1
   85364:	7011      	strb	r1, [r2, #0]
   85366:	b138      	cbz	r0, 85378 <udi_cdc_rx_start+0xb4>
   85368:	f240 2098 	movw	r0, #664	; 0x298
   8536c:	f2c2 0007 	movt	r0, #8199	; 0x2007
   85370:	7001      	strb	r1, [r0, #0]
   85372:	f3bf 8f5f 	dmb	sy
   85376:	b662      	cpsie	i
   85378:	f04f 0000 	mov.w	r0, #0
   8537c:	f245 22b1 	movw	r2, #21169	; 0x52b1
   85380:	f2c0 0208 	movt	r2, #8
   85384:	4790      	blx	r2
   85386:	b130      	cbz	r0, 85396 <udi_cdc_rx_start+0xd2>
   85388:	f04f 0000 	mov.w	r0, #0
   8538c:	f644 01d9 	movw	r1, #18649	; 0x48d9
   85390:	f2c0 0108 	movt	r1, #8
   85394:	4788      	blx	r1
   85396:	f245 30cd 	movw	r0, #21453	; 0x53cd
   8539a:	f2c0 0008 	movt	r0, #8
   8539e:	9000      	str	r0, [sp, #0]
   853a0:	f04f 0005 	mov.w	r0, #5
   853a4:	f04f 0101 	mov.w	r1, #1
   853a8:	f241 039c 	movw	r3, #4252	; 0x109c
   853ac:	f2c2 0307 	movt	r3, #8199	; 0x2007
   853b0:	eb03 2244 	add.w	r2, r3, r4, lsl #9
   853b4:	f44f 7300 	mov.w	r3, #512	; 0x200
   853b8:	f648 4425 	movw	r4, #35877	; 0x8c25
   853bc:	f2c0 0408 	movt	r4, #8
   853c0:	47a0      	blx	r4
   853c2:	e001      	b.n	853c8 <udi_cdc_rx_start+0x104>
   853c4:	f04f 0000 	mov.w	r0, #0
   853c8:	b002      	add	sp, #8
   853ca:	bd10      	pop	{r4, pc}

000853cc <udi_cdc_data_received>:
   853cc:	b510      	push	{r4, lr}
   853ce:	b082      	sub	sp, #8
   853d0:	bb88      	cbnz	r0, 85436 <udi_cdc_data_received+0x6a>
   853d2:	f241 0388 	movw	r3, #4232	; 0x1088
   853d6:	f2c2 0307 	movt	r3, #8199	; 0x2007
   853da:	7818      	ldrb	r0, [r3, #0]
   853dc:	f1d0 0301 	rsbs	r3, r0, #1
   853e0:	bf38      	it	cc
   853e2:	2300      	movcc	r3, #0
   853e4:	b9a9      	cbnz	r1, 85412 <udi_cdc_data_received+0x46>
   853e6:	f245 34cd 	movw	r4, #21453	; 0x53cd
   853ea:	f2c0 0408 	movt	r4, #8
   853ee:	9400      	str	r4, [sp, #0]
   853f0:	4610      	mov	r0, r2
   853f2:	f04f 0101 	mov.w	r1, #1
   853f6:	f241 029c 	movw	r2, #4252	; 0x109c
   853fa:	f2c2 0207 	movt	r2, #8199	; 0x2007
   853fe:	eb02 2243 	add.w	r2, r2, r3, lsl #9
   85402:	f44f 7300 	mov.w	r3, #512	; 0x200
   85406:	f648 4425 	movw	r4, #35877	; 0x8c25
   8540a:	f2c0 0408 	movt	r4, #8
   8540e:	47a0      	blx	r4
   85410:	e011      	b.n	85436 <udi_cdc_data_received+0x6a>
   85412:	f241 0274 	movw	r2, #4212	; 0x1074
   85416:	f2c2 0207 	movt	r2, #8199	; 0x2007
   8541a:	f822 1013 	strh.w	r1, [r2, r3, lsl #1]
   8541e:	f04f 0000 	mov.w	r0, #0
   85422:	f241 419c 	movw	r1, #5276	; 0x149c
   85426:	f2c2 0107 	movt	r1, #8199	; 0x2007
   8542a:	7008      	strb	r0, [r1, #0]
   8542c:	f245 23c5 	movw	r3, #21189	; 0x52c5
   85430:	f2c0 0308 	movt	r3, #8
   85434:	4798      	blx	r3
   85436:	b002      	add	sp, #8
   85438:	bd10      	pop	{r4, pc}
   8543a:	bf00      	nop

0008543c <udi_cdc_data_enable>:
   8543c:	b538      	push	{r3, r4, r5, lr}
   8543e:	f04f 0400 	mov.w	r4, #0
   85442:	f640 436a 	movw	r3, #3178	; 0xc6a
   85446:	f2c2 0307 	movt	r3, #8199	; 0x2007
   8544a:	701c      	strb	r4, [r3, #0]
   8544c:	f241 008c 	movw	r0, #4236	; 0x108c
   85450:	f2c2 0007 	movt	r0, #8199	; 0x2007
   85454:	7004      	strb	r4, [r0, #0]
   85456:	f241 41a0 	movw	r1, #5280	; 0x14a0
   8545a:	f2c2 0107 	movt	r1, #8199	; 0x2007
   8545e:	700c      	strb	r4, [r1, #0]
   85460:	f640 426c 	movw	r2, #3180	; 0xc6c
   85464:	f2c2 0207 	movt	r2, #8199	; 0x2007
   85468:	7014      	strb	r4, [r2, #0]
   8546a:	f640 4370 	movw	r3, #3184	; 0xc70
   8546e:	f2c2 0307 	movt	r3, #8199	; 0x2007
   85472:	4625      	mov	r5, r4
   85474:	801c      	strh	r4, [r3, #0]
   85476:	805c      	strh	r4, [r3, #2]
   85478:	f241 0080 	movw	r0, #4224	; 0x1080
   8547c:	f2c2 0007 	movt	r0, #8199	; 0x2007
   85480:	8004      	strh	r4, [r0, #0]
   85482:	4620      	mov	r0, r4
   85484:	f644 6181 	movw	r1, #20097	; 0x4e81
   85488:	f2c0 0108 	movt	r1, #8
   8548c:	4788      	blx	r1
   8548e:	f241 429c 	movw	r2, #5276	; 0x149c
   85492:	f2c2 0207 	movt	r2, #8199	; 0x2007
   85496:	7014      	strb	r4, [r2, #0]
   85498:	f241 0388 	movw	r3, #4232	; 0x1088
   8549c:	f2c2 0307 	movt	r3, #8199	; 0x2007
   854a0:	701c      	strb	r4, [r3, #0]
   854a2:	f241 0074 	movw	r0, #4212	; 0x1074
   854a6:	f2c2 0007 	movt	r0, #8199	; 0x2007
   854aa:	8004      	strh	r4, [r0, #0]
   854ac:	f241 017c 	movw	r1, #4220	; 0x107c
   854b0:	f2c2 0107 	movt	r1, #8199	; 0x2007
   854b4:	800c      	strh	r4, [r1, #0]
   854b6:	4620      	mov	r0, r4
   854b8:	f245 22c5 	movw	r2, #21189	; 0x52c5
   854bc:	f2c0 0208 	movt	r2, #8
   854c0:	4790      	blx	r2
   854c2:	b198      	cbz	r0, 854ec <udi_cdc_data_enable+0xb0>
   854c4:	f640 436a 	movw	r3, #3178	; 0xc6a
   854c8:	f2c2 0307 	movt	r3, #8199	; 0x2007
   854cc:	7818      	ldrb	r0, [r3, #0]
   854ce:	f100 0001 	add.w	r0, r0, #1
   854d2:	b2c1      	uxtb	r1, r0
   854d4:	7019      	strb	r1, [r3, #0]
   854d6:	781a      	ldrb	r2, [r3, #0]
   854d8:	2a01      	cmp	r2, #1
   854da:	d10a      	bne.n	854f2 <udi_cdc_data_enable+0xb6>
   854dc:	f04f 0001 	mov.w	r0, #1
   854e0:	f241 0384 	movw	r3, #4228	; 0x1084
   854e4:	f2c2 0307 	movt	r3, #8199	; 0x2007
   854e8:	7018      	strb	r0, [r3, #0]
   854ea:	bd38      	pop	{r3, r4, r5, pc}
   854ec:	f04f 0000 	mov.w	r0, #0
   854f0:	bd38      	pop	{r3, r4, r5, pc}
   854f2:	f04f 0001 	mov.w	r0, #1
   854f6:	bd38      	pop	{r3, r4, r5, pc}

000854f8 <udi_cdc_multi_read_buf>:
   854f8:	e92d 4ff0 	stmdb	sp!, {r4, r5, r6, r7, r8, r9, sl, fp, lr}
   854fc:	b083      	sub	sp, #12
   854fe:	4615      	mov	r5, r2
   85500:	4688      	mov	r8, r1
   85502:	f240 2798 	movw	r7, #664	; 0x298
   85506:	f2c2 0707 	movt	r7, #8199	; 0x2007
   8550a:	f04f 0b00 	mov.w	fp, #0
   8550e:	f241 067c 	movw	r6, #4220	; 0x107c
   85512:	f2c2 0607 	movt	r6, #8199	; 0x2007
   85516:	f241 0a88 	movw	sl, #4232	; 0x1088
   8551a:	f2c2 0a07 	movt	sl, #8199	; 0x2007
   8551e:	f241 0974 	movw	r9, #4212	; 0x1074
   85522:	f2c2 0907 	movt	r9, #8199	; 0x2007
   85526:	f241 039c 	movw	r3, #4252	; 0x109c
   8552a:	f2c2 0307 	movt	r3, #8199	; 0x2007
   8552e:	9301      	str	r3, [sp, #4]
   85530:	f3ef 8210 	mrs	r2, PRIMASK
   85534:	b672      	cpsid	i
   85536:	f3bf 8f5f 	dmb	sy
   8553a:	f887 b000 	strb.w	fp, [r7]
   8553e:	8830      	ldrh	r0, [r6, #0]
   85540:	b283      	uxth	r3, r0
   85542:	f89a 1000 	ldrb.w	r1, [sl]
   85546:	b92a      	cbnz	r2, 85554 <udi_cdc_multi_read_buf+0x5c>
   85548:	f04f 0401 	mov.w	r4, #1
   8554c:	703c      	strb	r4, [r7, #0]
   8554e:	f3bf 8f5f 	dmb	sy
   85552:	b662      	cpsie	i
   85554:	f839 4011 	ldrh.w	r4, [r9, r1, lsl #1]
   85558:	42a3      	cmp	r3, r4
   8555a:	d307      	bcc.n	8556c <udi_cdc_multi_read_buf+0x74>
   8555c:	f241 0084 	movw	r0, #4228	; 0x1084
   85560:	f2c2 0007 	movt	r0, #8199	; 0x2007
   85564:	7801      	ldrb	r1, [r0, #0]
   85566:	2900      	cmp	r1, #0
   85568:	d1e2      	bne.n	85530 <udi_cdc_multi_read_buf+0x38>
   8556a:	e01d      	b.n	855a8 <udi_cdc_multi_read_buf+0xb0>
   8556c:	1ae4      	subs	r4, r4, r3
   8556e:	42a5      	cmp	r5, r4
   85570:	bf38      	it	cc
   85572:	462c      	movcc	r4, r5
   85574:	eb03 2241 	add.w	r2, r3, r1, lsl #9
   85578:	4640      	mov	r0, r8
   8557a:	9b01      	ldr	r3, [sp, #4]
   8557c:	1899      	adds	r1, r3, r2
   8557e:	4622      	mov	r2, r4
   85580:	f649 7321 	movw	r3, #40737	; 0x9f21
   85584:	f2c0 0308 	movt	r3, #8
   85588:	4798      	blx	r3
   8558a:	8830      	ldrh	r0, [r6, #0]
   8558c:	1821      	adds	r1, r4, r0
   8558e:	b28a      	uxth	r2, r1
   85590:	8032      	strh	r2, [r6, #0]
   85592:	44a0      	add	r8, r4
   85594:	1b2d      	subs	r5, r5, r4
   85596:	f04f 0000 	mov.w	r0, #0
   8559a:	f245 23c5 	movw	r3, #21189	; 0x52c5
   8559e:	f2c0 0308 	movt	r3, #8
   855a2:	4798      	blx	r3
   855a4:	2d00      	cmp	r5, #0
   855a6:	d1c3      	bne.n	85530 <udi_cdc_multi_read_buf+0x38>
   855a8:	4628      	mov	r0, r5
   855aa:	b003      	add	sp, #12
   855ac:	e8bd 8ff0 	ldmia.w	sp!, {r4, r5, r6, r7, r8, r9, sl, fp, pc}

000855b0 <udi_cdc_read_buf>:
   855b0:	b508      	push	{r3, lr}
   855b2:	4603      	mov	r3, r0
   855b4:	460a      	mov	r2, r1
   855b6:	f04f 0000 	mov.w	r0, #0
   855ba:	4619      	mov	r1, r3
   855bc:	f245 43f9 	movw	r3, #21753	; 0x54f9
   855c0:	f2c0 0308 	movt	r3, #8
   855c4:	4798      	blx	r3
   855c6:	bd08      	pop	{r3, pc}

000855c8 <udi_cdc_multi_get_free_tx_buffer>:
   855c8:	b410      	push	{r4}
   855ca:	f3ef 8410 	mrs	r4, PRIMASK
   855ce:	b672      	cpsid	i
   855d0:	f3bf 8f5f 	dmb	sy
   855d4:	f240 2398 	movw	r3, #664	; 0x298
   855d8:	f2c2 0307 	movt	r3, #8199	; 0x2007
   855dc:	f04f 0200 	mov.w	r2, #0
   855e0:	701a      	strb	r2, [r3, #0]
   855e2:	f640 406c 	movw	r0, #3180	; 0xc6c
   855e6:	f2c2 0007 	movt	r0, #8199	; 0x2007
   855ea:	7801      	ldrb	r1, [r0, #0]
   855ec:	f640 4270 	movw	r2, #3184	; 0xc70
   855f0:	f2c2 0207 	movt	r2, #8199	; 0x2007
   855f4:	f832 3011 	ldrh.w	r3, [r2, r1, lsl #1]
   855f8:	f1d1 0101 	rsbs	r1, r1, #1
   855fc:	bf38      	it	cc
   855fe:	2100      	movcc	r1, #0
   85600:	b2c8      	uxtb	r0, r1
   85602:	f832 0010 	ldrh.w	r0, [r2, r0, lsl #1]
   85606:	f5b3 7f00 	cmp.w	r3, #512	; 0x200
   8560a:	d11b      	bne.n	85644 <udi_cdc_multi_get_free_tx_buffer+0x7c>
   8560c:	f241 028c 	movw	r2, #4236	; 0x108c
   85610:	f2c2 0207 	movt	r2, #8199	; 0x2007
   85614:	7812      	ldrb	r2, [r2, #0]
   85616:	b9aa      	cbnz	r2, 85644 <udi_cdc_multi_get_free_tx_buffer+0x7c>
   85618:	f241 42a0 	movw	r2, #5280	; 0x14a0
   8561c:	f2c2 0207 	movt	r2, #8199	; 0x2007
   85620:	7812      	ldrb	r2, [r2, #0]
   85622:	b97a      	cbnz	r2, 85644 <udi_cdc_multi_get_free_tx_buffer+0x7c>
   85624:	f241 43a0 	movw	r3, #5280	; 0x14a0
   85628:	f2c2 0307 	movt	r3, #8199	; 0x2007
   8562c:	f04f 0001 	mov.w	r0, #1
   85630:	7018      	strb	r0, [r3, #0]
   85632:	f640 426c 	movw	r2, #3180	; 0xc6c
   85636:	f2c2 0207 	movt	r2, #8199	; 0x2007
   8563a:	7011      	strb	r1, [r2, #0]
   8563c:	f44f 7000 	mov.w	r0, #512	; 0x200
   85640:	f04f 0300 	mov.w	r3, #0
   85644:	b94c      	cbnz	r4, 8565a <udi_cdc_multi_get_free_tx_buffer+0x92>
   85646:	f240 2298 	movw	r2, #664	; 0x298
   8564a:	f2c2 0207 	movt	r2, #8199	; 0x2007
   8564e:	f04f 0101 	mov.w	r1, #1
   85652:	7011      	strb	r1, [r2, #0]
   85654:	f3bf 8f5f 	dmb	sy
   85658:	b662      	cpsie	i
   8565a:	18c0      	adds	r0, r0, r3
   8565c:	f5c0 6080 	rsb	r0, r0, #1024	; 0x400
   85660:	bc10      	pop	{r4}
   85662:	4770      	bx	lr

00085664 <udi_cdc_multi_is_tx_ready>:
   85664:	b508      	push	{r3, lr}
   85666:	f245 53c9 	movw	r3, #21961	; 0x55c9
   8566a:	f2c0 0308 	movt	r3, #8
   8566e:	4798      	blx	r3
   85670:	3000      	adds	r0, #0
   85672:	bf18      	it	ne
   85674:	2001      	movne	r0, #1
   85676:	bd08      	pop	{r3, pc}

00085678 <udi_cdc_multi_write_buf>:
   85678:	e92d 4ff0 	stmdb	sp!, {r4, r5, r6, r7, r8, r9, sl, fp, lr}
   8567c:	b083      	sub	sp, #12
   8567e:	4615      	mov	r5, r2
   85680:	f640 4360 	movw	r3, #3168	; 0xc60
   85684:	f2c2 0307 	movt	r3, #8199	; 0x2007
   85688:	7998      	ldrb	r0, [r3, #6]
   8568a:	2809      	cmp	r0, #9
   8568c:	bf08      	it	eq
   8568e:	0055      	lsleq	r5, r2, #1
   85690:	4689      	mov	r9, r1
   85692:	f04f 0800 	mov.w	r8, #0
   85696:	f241 0184 	movw	r1, #4228	; 0x1084
   8569a:	f2c2 0107 	movt	r1, #8199	; 0x2007
   8569e:	9101      	str	r1, [sp, #4]
   856a0:	f240 2298 	movw	r2, #664	; 0x298
   856a4:	f2c2 0207 	movt	r2, #8199	; 0x2007
   856a8:	9200      	str	r2, [sp, #0]
   856aa:	4640      	mov	r0, r8
   856ac:	f245 6365 	movw	r3, #22117	; 0x5665
   856b0:	f2c0 0308 	movt	r3, #8
   856b4:	4798      	blx	r3
   856b6:	b920      	cbnz	r0, 856c2 <udi_cdc_multi_write_buf+0x4a>
   856b8:	9801      	ldr	r0, [sp, #4]
   856ba:	7803      	ldrb	r3, [r0, #0]
   856bc:	2b00      	cmp	r3, #0
   856be:	d1f4      	bne.n	856aa <udi_cdc_multi_write_buf+0x32>
   856c0:	e035      	b.n	8572e <udi_cdc_multi_write_buf+0xb6>
   856c2:	f3ef 8b10 	mrs	fp, PRIMASK
   856c6:	b672      	cpsid	i
   856c8:	f3bf 8f5f 	dmb	sy
   856cc:	9c00      	ldr	r4, [sp, #0]
   856ce:	f884 8000 	strb.w	r8, [r4]
   856d2:	f640 466c 	movw	r6, #3180	; 0xc6c
   856d6:	f2c2 0607 	movt	r6, #8199	; 0x2007
   856da:	7836      	ldrb	r6, [r6, #0]
   856dc:	f640 4a70 	movw	sl, #3184	; 0xc70
   856e0:	f2c2 0a07 	movt	sl, #8199	; 0x2007
   856e4:	f83a 7016 	ldrh.w	r7, [sl, r6, lsl #1]
   856e8:	f5c7 7400 	rsb	r4, r7, #512	; 0x200
   856ec:	42a5      	cmp	r5, r4
   856ee:	bf38      	it	cc
   856f0:	462c      	movcc	r4, r5
   856f2:	eb07 2146 	add.w	r1, r7, r6, lsl #9
   856f6:	f640 4074 	movw	r0, #3188	; 0xc74
   856fa:	f2c2 0007 	movt	r0, #8199	; 0x2007
   856fe:	1840      	adds	r0, r0, r1
   85700:	4649      	mov	r1, r9
   85702:	4622      	mov	r2, r4
   85704:	f649 7321 	movw	r3, #40737	; 0x9f21
   85708:	f2c0 0308 	movt	r3, #8
   8570c:	4798      	blx	r3
   8570e:	193f      	adds	r7, r7, r4
   85710:	f82a 7016 	strh.w	r7, [sl, r6, lsl #1]
   85714:	f1bb 0f00 	cmp.w	fp, #0
   85718:	d106      	bne.n	85728 <udi_cdc_multi_write_buf+0xb0>
   8571a:	f04f 0101 	mov.w	r1, #1
   8571e:	9a00      	ldr	r2, [sp, #0]
   85720:	7011      	strb	r1, [r2, #0]
   85722:	f3bf 8f5f 	dmb	sy
   85726:	b662      	cpsie	i
   85728:	44a1      	add	r9, r4
   8572a:	1b2d      	subs	r5, r5, r4
   8572c:	d1bd      	bne.n	856aa <udi_cdc_multi_write_buf+0x32>
   8572e:	4628      	mov	r0, r5
   85730:	b003      	add	sp, #12
   85732:	e8bd 8ff0 	ldmia.w	sp!, {r4, r5, r6, r7, r8, r9, sl, fp, pc}
   85736:	bf00      	nop

00085738 <udi_cdc_write_buf>:
   85738:	b508      	push	{r3, lr}
   8573a:	4603      	mov	r3, r0
   8573c:	460a      	mov	r2, r1
   8573e:	f04f 0000 	mov.w	r0, #0
   85742:	4619      	mov	r1, r3
   85744:	f245 6379 	movw	r3, #22137	; 0x5679
   85748:	f2c0 0308 	movt	r3, #8
   8574c:	4798      	blx	r3
   8574e:	bd08      	pop	{r3, pc}

00085750 <udi_msc_getsetting>:
   85750:	f04f 0000 	mov.w	r0, #0
   85754:	4770      	bx	lr
   85756:	bf00      	nop

00085758 <udi_msc_trans_ack>:
   85758:	3000      	adds	r0, #0
   8575a:	bf18      	it	ne
   8575c:	2001      	movne	r0, #1
   8575e:	f641 4315 	movw	r3, #7189	; 0x1c15
   85762:	f2c2 0307 	movt	r3, #8199	; 0x2007
   85766:	7018      	strb	r0, [r3, #0]
   85768:	f240 2130 	movw	r1, #560	; 0x230
   8576c:	f2c2 0107 	movt	r1, #8199	; 0x2007
   85770:	f04f 0201 	mov.w	r2, #1
   85774:	700a      	strb	r2, [r1, #0]
   85776:	4770      	bx	lr

00085778 <udi_msc_clear_sense>:
   85778:	f241 42f4 	movw	r2, #5364	; 0x14f4
   8577c:	f2c2 0207 	movt	r2, #8199	; 0x2007
   85780:	f04f 0300 	mov.w	r3, #0
   85784:	4611      	mov	r1, r2
   85786:	f841 3b04 	str.w	r3, [r1], #4
   8578a:	6053      	str	r3, [r2, #4]
   8578c:	f101 0104 	add.w	r1, r1, #4
   85790:	f841 3b04 	str.w	r3, [r1], #4
   85794:	f841 3b04 	str.w	r3, [r1], #4
   85798:	800b      	strh	r3, [r1, #0]
   8579a:	f04f 00f0 	mov.w	r0, #240	; 0xf0
   8579e:	7010      	strb	r0, [r2, #0]
   857a0:	f04f 030a 	mov.w	r3, #10
   857a4:	71d3      	strb	r3, [r2, #7]
   857a6:	4770      	bx	lr

000857a8 <udi_msc_sense_pass>:
   857a8:	b508      	push	{r3, lr}
   857aa:	f245 7379 	movw	r3, #22393	; 0x5779
   857ae:	f2c0 0308 	movt	r3, #8
   857b2:	4798      	blx	r3
   857b4:	f240 2048 	movw	r0, #584	; 0x248
   857b8:	f2c2 0007 	movt	r0, #8199	; 0x2007
   857bc:	f04f 0200 	mov.w	r2, #0
   857c0:	7302      	strb	r2, [r0, #12]
   857c2:	bd08      	pop	{r3, pc}

000857c4 <udi_msc_sense_fail>:
   857c4:	b570      	push	{r4, r5, r6, lr}
   857c6:	4606      	mov	r6, r0
   857c8:	460d      	mov	r5, r1
   857ca:	4614      	mov	r4, r2
   857cc:	f245 7379 	movw	r3, #22393	; 0x5779
   857d0:	f2c0 0308 	movt	r3, #8
   857d4:	4798      	blx	r3
   857d6:	f240 2048 	movw	r0, #584	; 0x248
   857da:	f2c2 0007 	movt	r0, #8199	; 0x2007
   857de:	f04f 0201 	mov.w	r2, #1
   857e2:	7302      	strb	r2, [r0, #12]
   857e4:	f241 41f4 	movw	r1, #5364	; 0x14f4
   857e8:	f2c2 0107 	movt	r1, #8199	; 0x2007
   857ec:	708e      	strb	r6, [r1, #2]
   857ee:	ea4f 6314 	mov.w	r3, r4, lsr #24
   857f2:	70cb      	strb	r3, [r1, #3]
   857f4:	ea4f 4014 	mov.w	r0, r4, lsr #16
   857f8:	7108      	strb	r0, [r1, #4]
   857fa:	ea4f 2214 	mov.w	r2, r4, lsr #8
   857fe:	714a      	strb	r2, [r1, #5]
   85800:	718c      	strb	r4, [r1, #6]
   85802:	ea4f 2315 	mov.w	r3, r5, lsr #8
   85806:	730b      	strb	r3, [r1, #12]
   85808:	734d      	strb	r5, [r1, #13]
   8580a:	bd70      	pop	{r4, r5, r6, pc}

0008580c <udi_msc_sense_fail_busy_or_change>:
   8580c:	b508      	push	{r3, lr}
   8580e:	f04f 0006 	mov.w	r0, #6
   85812:	f44f 5120 	mov.w	r1, #10240	; 0x2800
   85816:	f04f 0200 	mov.w	r2, #0
   8581a:	f245 73c5 	movw	r3, #22469	; 0x57c5
   8581e:	f2c0 0308 	movt	r3, #8
   85822:	4798      	blx	r3
   85824:	bd08      	pop	{r3, pc}
   85826:	bf00      	nop

00085828 <udi_msc_sense_fail_not_present>:
   85828:	b508      	push	{r3, lr}
   8582a:	f04f 0002 	mov.w	r0, #2
   8582e:	f44f 5168 	mov.w	r1, #14848	; 0x3a00
   85832:	f04f 0200 	mov.w	r2, #0
   85836:	f245 73c5 	movw	r3, #22469	; 0x57c5
   8583a:	f2c0 0308 	movt	r3, #8
   8583e:	4798      	blx	r3
   85840:	bd08      	pop	{r3, pc}
   85842:	bf00      	nop

00085844 <udi_msc_sense_fail_hardware>:
   85844:	b508      	push	{r3, lr}
   85846:	f04f 0004 	mov.w	r0, #4
   8584a:	f04f 0100 	mov.w	r1, #0
   8584e:	460a      	mov	r2, r1
   85850:	f245 73c5 	movw	r3, #22469	; 0x57c5
   85854:	f2c0 0308 	movt	r3, #8
   85858:	4798      	blx	r3
   8585a:	bd08      	pop	{r3, pc}

0008585c <udi_msc_sense_fail_cdb_invalid>:
   8585c:	b508      	push	{r3, lr}
   8585e:	f04f 0005 	mov.w	r0, #5
   85862:	f44f 5110 	mov.w	r1, #9216	; 0x2400
   85866:	f04f 0200 	mov.w	r2, #0
   8586a:	f245 73c5 	movw	r3, #22469	; 0x57c5
   8586e:	f2c0 0308 	movt	r3, #8
   85872:	4798      	blx	r3
   85874:	bd08      	pop	{r3, pc}
   85876:	bf00      	nop

00085878 <udi_msc_csw_send>:
   85878:	b510      	push	{r4, lr}
   8587a:	b082      	sub	sp, #8
   8587c:	f645 2305 	movw	r3, #23045	; 0x5a05
   85880:	f2c0 0308 	movt	r3, #8
   85884:	9300      	str	r3, [sp, #0]
   85886:	f04f 0081 	mov.w	r0, #129	; 0x81
   8588a:	f04f 0100 	mov.w	r1, #0
   8588e:	f240 2248 	movw	r2, #584	; 0x248
   85892:	f2c2 0207 	movt	r2, #8199	; 0x2007
   85896:	f04f 030d 	mov.w	r3, #13
   8589a:	f648 4425 	movw	r4, #35877	; 0x8c25
   8589e:	f2c0 0408 	movt	r4, #8
   858a2:	47a0      	blx	r4
   858a4:	b950      	cbnz	r0, 858bc <udi_msc_csw_send+0x44>
   858a6:	f04f 0081 	mov.w	r0, #129	; 0x81
   858aa:	f645 0179 	movw	r1, #22649	; 0x5879
   858ae:	f2c0 0108 	movt	r1, #8
   858b2:	f249 22b1 	movw	r2, #37553	; 0x92b1
   858b6:	f2c0 0208 	movt	r2, #8
   858ba:	4790      	blx	r2
   858bc:	b002      	add	sp, #8
   858be:	bd10      	pop	{r4, pc}

000858c0 <udi_msc_csw_process>:
   858c0:	b508      	push	{r3, lr}
   858c2:	f240 2348 	movw	r3, #584	; 0x248
   858c6:	f2c2 0307 	movt	r3, #8199	; 0x2007
   858ca:	6899      	ldr	r1, [r3, #8]
   858cc:	b171      	cbz	r1, 858ec <udi_msc_csw_process+0x2c>
   858ce:	f241 42b0 	movw	r2, #5296	; 0x14b0
   858d2:	f2c2 0207 	movt	r2, #8199	; 0x2007
   858d6:	f992 300c 	ldrsb.w	r3, [r2, #12]
   858da:	2b00      	cmp	r3, #0
   858dc:	bfb4      	ite	lt
   858de:	2081      	movlt	r0, #129	; 0x81
   858e0:	2002      	movge	r0, #2
   858e2:	f648 2109 	movw	r1, #35337	; 0x8a09
   858e6:	f2c0 0108 	movt	r1, #8
   858ea:	4788      	blx	r1
   858ec:	f241 40b0 	movw	r0, #5296	; 0x14b0
   858f0:	f2c2 0007 	movt	r0, #8199	; 0x2007
   858f4:	6842      	ldr	r2, [r0, #4]
   858f6:	f240 2348 	movw	r3, #584	; 0x248
   858fa:	f2c2 0307 	movt	r3, #8199	; 0x2007
   858fe:	605a      	str	r2, [r3, #4]
   85900:	f645 0179 	movw	r1, #22649	; 0x5879
   85904:	f2c0 0108 	movt	r1, #8
   85908:	4788      	blx	r1
   8590a:	bd08      	pop	{r3, pc}

0008590c <udi_msc_cbw_validate>:
   8590c:	b508      	push	{r3, lr}
   8590e:	f241 43b0 	movw	r3, #5296	; 0x14b0
   85912:	f2c2 0307 	movt	r3, #8199	; 0x2007
   85916:	7b1a      	ldrb	r2, [r3, #12]
   85918:	4051      	eors	r1, r2
   8591a:	f011 0f80 	tst.w	r1, #128	; 0x80
   8591e:	d106      	bne.n	8592e <udi_msc_cbw_validate+0x22>
   85920:	f240 2148 	movw	r1, #584	; 0x248
   85924:	f2c2 0107 	movt	r1, #8199	; 0x2007
   85928:	688b      	ldr	r3, [r1, #8]
   8592a:	4283      	cmp	r3, r0
   8592c:	d20c      	bcs.n	85948 <udi_msc_cbw_validate+0x3c>
   8592e:	f645 005d 	movw	r0, #22621	; 0x585d
   85932:	f2c0 0008 	movt	r0, #8
   85936:	4780      	blx	r0
   85938:	f645 02c1 	movw	r2, #22721	; 0x58c1
   8593c:	f2c0 0208 	movt	r2, #8
   85940:	4790      	blx	r2
   85942:	f04f 0000 	mov.w	r0, #0
   85946:	bd08      	pop	{r3, pc}
   85948:	f04f 0001 	mov.w	r0, #1
   8594c:	bd08      	pop	{r3, pc}
   8594e:	bf00      	nop

00085950 <udi_msc_data_send>:
   85950:	b510      	push	{r4, lr}
   85952:	b082      	sub	sp, #8
   85954:	4602      	mov	r2, r0
   85956:	460b      	mov	r3, r1
   85958:	f645 1191 	movw	r1, #22929	; 0x5991
   8595c:	f2c0 0108 	movt	r1, #8
   85960:	9100      	str	r1, [sp, #0]
   85962:	f04f 0081 	mov.w	r0, #129	; 0x81
   85966:	f04f 0101 	mov.w	r1, #1
   8596a:	f648 4425 	movw	r4, #35877	; 0x8c25
   8596e:	f2c0 0408 	movt	r4, #8
   85972:	47a0      	blx	r4
   85974:	b948      	cbnz	r0, 8598a <udi_msc_data_send+0x3a>
   85976:	f645 0345 	movw	r3, #22597	; 0x5845
   8597a:	f2c0 0308 	movt	r3, #8
   8597e:	4798      	blx	r3
   85980:	f645 00c1 	movw	r0, #22721	; 0x58c1
   85984:	f2c0 0008 	movt	r0, #8
   85988:	4780      	blx	r0
   8598a:	b002      	add	sp, #8
   8598c:	bd10      	pop	{r4, pc}
   8598e:	bf00      	nop

00085990 <udi_msc_data_sent>:
   85990:	b510      	push	{r4, lr}
   85992:	460c      	mov	r4, r1
   85994:	b980      	cbnz	r0, 859b8 <udi_msc_data_sent+0x28>
   85996:	f245 73a9 	movw	r3, #22441	; 0x57a9
   8599a:	f2c0 0308 	movt	r3, #8
   8599e:	4798      	blx	r3
   859a0:	f240 2048 	movw	r0, #584	; 0x248
   859a4:	f2c2 0007 	movt	r0, #8199	; 0x2007
   859a8:	6882      	ldr	r2, [r0, #8]
   859aa:	1b14      	subs	r4, r2, r4
   859ac:	6084      	str	r4, [r0, #8]
   859ae:	f645 01c1 	movw	r1, #22721	; 0x58c1
   859b2:	f2c0 0108 	movt	r1, #8
   859b6:	4788      	blx	r1
   859b8:	bd10      	pop	{r4, pc}
   859ba:	bf00      	nop

000859bc <udi_msc_cbw_wait>:
   859bc:	b510      	push	{r4, lr}
   859be:	b082      	sub	sp, #8
   859c0:	f645 4319 	movw	r3, #23577	; 0x5c19
   859c4:	f2c0 0308 	movt	r3, #8
   859c8:	9300      	str	r3, [sp, #0]
   859ca:	f04f 0002 	mov.w	r0, #2
   859ce:	f04f 0101 	mov.w	r1, #1
   859d2:	f241 42b0 	movw	r2, #5296	; 0x14b0
   859d6:	f2c2 0207 	movt	r2, #8199	; 0x2007
   859da:	f04f 031f 	mov.w	r3, #31
   859de:	f648 4425 	movw	r4, #35877	; 0x8c25
   859e2:	f2c0 0408 	movt	r4, #8
   859e6:	47a0      	blx	r4
   859e8:	b950      	cbnz	r0, 85a00 <udi_msc_cbw_wait+0x44>
   859ea:	f04f 0002 	mov.w	r0, #2
   859ee:	f645 11bd 	movw	r1, #22973	; 0x59bd
   859f2:	f2c0 0108 	movt	r1, #8
   859f6:	f249 22b1 	movw	r2, #37553	; 0x92b1
   859fa:	f2c0 0208 	movt	r2, #8
   859fe:	4790      	blx	r2
   85a00:	b002      	add	sp, #8
   85a02:	bd10      	pop	{r4, pc}

00085a04 <udi_msc_csw_sent>:
   85a04:	b508      	push	{r3, lr}
   85a06:	f645 13bd 	movw	r3, #22973	; 0x59bd
   85a0a:	f2c0 0308 	movt	r3, #8
   85a0e:	4798      	blx	r3
   85a10:	bd08      	pop	{r3, pc}
   85a12:	bf00      	nop

00085a14 <udi_msc_cbw_invalid>:
   85a14:	b508      	push	{r3, lr}
   85a16:	f241 43d0 	movw	r3, #5328	; 0x14d0
   85a1a:	f2c2 0307 	movt	r3, #8199	; 0x2007
   85a1e:	7818      	ldrb	r0, [r3, #0]
   85a20:	b188      	cbz	r0, 85a46 <udi_msc_cbw_invalid+0x32>
   85a22:	f04f 0002 	mov.w	r0, #2
   85a26:	f648 2109 	movw	r1, #35337	; 0x8a09
   85a2a:	f2c0 0108 	movt	r1, #8
   85a2e:	4788      	blx	r1
   85a30:	f04f 0002 	mov.w	r0, #2
   85a34:	f645 2115 	movw	r1, #23061	; 0x5a15
   85a38:	f2c0 0108 	movt	r1, #8
   85a3c:	f249 22b1 	movw	r2, #37553	; 0x92b1
   85a40:	f2c0 0208 	movt	r2, #8
   85a44:	4790      	blx	r2
   85a46:	bd08      	pop	{r3, pc}

00085a48 <udi_msc_csw_invalid>:
   85a48:	b508      	push	{r3, lr}
   85a4a:	f241 43d0 	movw	r3, #5328	; 0x14d0
   85a4e:	f2c2 0307 	movt	r3, #8199	; 0x2007
   85a52:	7818      	ldrb	r0, [r3, #0]
   85a54:	b188      	cbz	r0, 85a7a <udi_msc_csw_invalid+0x32>
   85a56:	f04f 0081 	mov.w	r0, #129	; 0x81
   85a5a:	f648 2109 	movw	r1, #35337	; 0x8a09
   85a5e:	f2c0 0108 	movt	r1, #8
   85a62:	4788      	blx	r1
   85a64:	f04f 0081 	mov.w	r0, #129	; 0x81
   85a68:	f645 2149 	movw	r1, #23113	; 0x5a49
   85a6c:	f2c0 0108 	movt	r1, #8
   85a70:	f249 22b1 	movw	r2, #37553	; 0x92b1
   85a74:	f2c0 0208 	movt	r2, #8
   85a78:	4790      	blx	r2
   85a7a:	bd08      	pop	{r3, pc}

00085a7c <udi_msc_spc_mode_sense>:
   85a7c:	b570      	push	{r4, r5, r6, lr}
   85a7e:	f241 41dc 	movw	r1, #5340	; 0x14dc
   85a82:	f2c2 0107 	movt	r1, #8199	; 0x2007
   85a86:	f04f 0300 	mov.w	r3, #0
   85a8a:	460a      	mov	r2, r1
   85a8c:	f842 3b04 	str.w	r3, [r2], #4
   85a90:	604b      	str	r3, [r1, #4]
   85a92:	f102 0204 	add.w	r2, r2, #4
   85a96:	f842 3b04 	str.w	r3, [r2], #4
   85a9a:	f842 3b04 	str.w	r3, [r2], #4
   85a9e:	6013      	str	r3, [r2, #0]
   85aa0:	4606      	mov	r6, r0
   85aa2:	b148      	cbz	r0, 85ab8 <udi_msc_spc_mode_sense+0x3c>
   85aa4:	f241 44b0 	movw	r4, #5296	; 0x14b0
   85aa8:	f2c2 0407 	movt	r4, #8199	; 0x2007
   85aac:	7de5      	ldrb	r5, [r4, #23]
   85aae:	f101 0108 	add.w	r1, r1, #8
   85ab2:	f04f 0408 	mov.w	r4, #8
   85ab6:	e007      	b.n	85ac8 <udi_msc_spc_mode_sense+0x4c>
   85ab8:	f241 40b0 	movw	r0, #5296	; 0x14b0
   85abc:	f2c2 0007 	movt	r0, #8199	; 0x2007
   85ac0:	7cc5      	ldrb	r5, [r0, #19]
   85ac2:	492b      	ldr	r1, [pc, #172]	; (85b70 <udi_msc_spc_mode_sense+0xf4>)
   85ac4:	f04f 0404 	mov.w	r4, #4
   85ac8:	f241 43b0 	movw	r3, #5296	; 0x14b0
   85acc:	f2c2 0307 	movt	r3, #8199	; 0x2007
   85ad0:	7c5a      	ldrb	r2, [r3, #17]
   85ad2:	f002 003f 	and.w	r0, r2, #63	; 0x3f
   85ad6:	281c      	cmp	r0, #28
   85ad8:	d001      	beq.n	85ade <udi_msc_spc_mode_sense+0x62>
   85ada:	283f      	cmp	r0, #63	; 0x3f
   85adc:	d10b      	bne.n	85af6 <udi_msc_spc_mode_sense+0x7a>
   85ade:	f04f 031c 	mov.w	r3, #28
   85ae2:	700b      	strb	r3, [r1, #0]
   85ae4:	f04f 020a 	mov.w	r2, #10
   85ae8:	704a      	strb	r2, [r1, #1]
   85aea:	f04f 0005 	mov.w	r0, #5
   85aee:	70c8      	strb	r0, [r1, #3]
   85af0:	f104 040c 	add.w	r4, r4, #12
   85af4:	b2e4      	uxtb	r4, r4
   85af6:	42ac      	cmp	r4, r5
   85af8:	bf38      	it	cc
   85afa:	4625      	movcc	r5, r4
   85afc:	4628      	mov	r0, r5
   85afe:	f04f 0180 	mov.w	r1, #128	; 0x80
   85b02:	f645 130d 	movw	r3, #22797	; 0x590d
   85b06:	f2c0 0308 	movt	r3, #8
   85b0a:	4798      	blx	r3
   85b0c:	b370      	cbz	r0, 85b6c <udi_msc_spc_mode_sense+0xf0>
   85b0e:	f241 41b0 	movw	r1, #5296	; 0x14b0
   85b12:	f2c2 0107 	movt	r1, #8199	; 0x2007
   85b16:	7b48      	ldrb	r0, [r1, #13]
   85b18:	f644 52dd 	movw	r2, #19933	; 0x4ddd
   85b1c:	f2c0 0208 	movt	r2, #8
   85b20:	4790      	blx	r2
   85b22:	2800      	cmp	r0, #0
   85b24:	bf14      	ite	ne
   85b26:	2080      	movne	r0, #128	; 0x80
   85b28:	2000      	moveq	r0, #0
   85b2a:	b16e      	cbz	r6, 85b48 <udi_msc_spc_mode_sense+0xcc>
   85b2c:	f1a4 0402 	sub.w	r4, r4, #2
   85b30:	b2a4      	uxth	r4, r4
   85b32:	f241 41dc 	movw	r1, #5340	; 0x14dc
   85b36:	f2c2 0107 	movt	r1, #8199	; 0x2007
   85b3a:	ea4f 2214 	mov.w	r2, r4, lsr #8
   85b3e:	ea42 2404 	orr.w	r4, r2, r4, lsl #8
   85b42:	800c      	strh	r4, [r1, #0]
   85b44:	70c8      	strb	r0, [r1, #3]
   85b46:	e007      	b.n	85b58 <udi_msc_spc_mode_sense+0xdc>
   85b48:	f241 43dc 	movw	r3, #5340	; 0x14dc
   85b4c:	f2c2 0307 	movt	r3, #8199	; 0x2007
   85b50:	f104 34ff 	add.w	r4, r4, #4294967295
   85b54:	701c      	strb	r4, [r3, #0]
   85b56:	7098      	strb	r0, [r3, #2]
   85b58:	f241 40dc 	movw	r0, #5340	; 0x14dc
   85b5c:	f2c2 0007 	movt	r0, #8199	; 0x2007
   85b60:	4629      	mov	r1, r5
   85b62:	f645 1351 	movw	r3, #22865	; 0x5951
   85b66:	f2c0 0308 	movt	r3, #8
   85b6a:	4798      	blx	r3
   85b6c:	bd70      	pop	{r4, r5, r6, pc}
   85b6e:	bf00      	nop
   85b70:	200714e0 	.word	0x200714e0

00085b74 <udi_msc_sbc_trans>:
   85b74:	b510      	push	{r4, lr}
   85b76:	4604      	mov	r4, r0
   85b78:	b9d8      	cbnz	r0, 85bb2 <udi_msc_sbc_trans+0x3e>
   85b7a:	f241 43b0 	movw	r3, #5296	; 0x14b0
   85b7e:	f2c2 0307 	movt	r3, #8199	; 0x2007
   85b82:	7b58      	ldrb	r0, [r3, #13]
   85b84:	f644 51dd 	movw	r1, #19933	; 0x4ddd
   85b88:	f2c0 0108 	movt	r1, #8
   85b8c:	4788      	blx	r1
   85b8e:	b180      	cbz	r0, 85bb2 <udi_msc_sbc_trans+0x3e>
   85b90:	f04f 0007 	mov.w	r0, #7
   85b94:	f44f 511c 	mov.w	r1, #9984	; 0x2700
   85b98:	f04f 0200 	mov.w	r2, #0
   85b9c:	f245 73c5 	movw	r3, #22469	; 0x57c5
   85ba0:	f2c0 0308 	movt	r3, #8
   85ba4:	4798      	blx	r3
   85ba6:	f645 02c1 	movw	r2, #22721	; 0x58c1
   85baa:	f2c0 0208 	movt	r2, #8
   85bae:	4790      	blx	r2
   85bb0:	bd10      	pop	{r4, pc}
   85bb2:	f241 42f0 	movw	r2, #5360	; 0x14f0
   85bb6:	f2c2 0207 	movt	r2, #8199	; 0x2007
   85bba:	f241 40b0 	movw	r0, #5296	; 0x14b0
   85bbe:	f2c2 0007 	movt	r0, #8199	; 0x2007
   85bc2:	7c43      	ldrb	r3, [r0, #17]
   85bc4:	70d3      	strb	r3, [r2, #3]
   85bc6:	7c81      	ldrb	r1, [r0, #18]
   85bc8:	7091      	strb	r1, [r2, #2]
   85bca:	7cc3      	ldrb	r3, [r0, #19]
   85bcc:	7053      	strb	r3, [r2, #1]
   85bce:	7d01      	ldrb	r1, [r0, #20]
   85bd0:	7011      	strb	r1, [r2, #0]
   85bd2:	f241 520a 	movw	r2, #5386	; 0x150a
   85bd6:	f2c2 0207 	movt	r2, #8199	; 0x2007
   85bda:	7d83      	ldrb	r3, [r0, #22]
   85bdc:	7053      	strb	r3, [r2, #1]
   85bde:	7dc0      	ldrb	r0, [r0, #23]
   85be0:	7010      	strb	r0, [r2, #0]
   85be2:	8811      	ldrh	r1, [r2, #0]
   85be4:	ea4f 2041 	mov.w	r0, r1, lsl #9
   85be8:	2c00      	cmp	r4, #0
   85bea:	bf14      	ite	ne
   85bec:	2180      	movne	r1, #128	; 0x80
   85bee:	2100      	moveq	r1, #0
   85bf0:	f645 120d 	movw	r2, #22797	; 0x590d
   85bf4:	f2c0 0208 	movt	r2, #8
   85bf8:	4790      	blx	r2
   85bfa:	b158      	cbz	r0, 85c14 <udi_msc_sbc_trans+0xa0>
   85bfc:	f241 5308 	movw	r3, #5384	; 0x1508
   85c00:	f2c2 0307 	movt	r3, #8199	; 0x2007
   85c04:	701c      	strb	r4, [r3, #0]
   85c06:	f241 40ac 	movw	r0, #5292	; 0x14ac
   85c0a:	f2c2 0007 	movt	r0, #8199	; 0x2007
   85c0e:	f04f 0101 	mov.w	r1, #1
   85c12:	7001      	strb	r1, [r0, #0]
   85c14:	bd10      	pop	{r4, pc}
   85c16:	bf00      	nop

00085c18 <udi_msc_cbw_received>:
   85c18:	b570      	push	{r4, r5, r6, lr}
   85c1a:	2800      	cmp	r0, #0
   85c1c:	f040 82b8 	bne.w	86190 <udi_msc_cbw_received+0x578>
   85c20:	291f      	cmp	r1, #31
   85c22:	d10a      	bne.n	85c3a <udi_msc_cbw_received+0x22>
   85c24:	f245 3355 	movw	r3, #21333	; 0x5355
   85c28:	f2c4 3342 	movt	r3, #17218	; 0x4342
   85c2c:	f241 42b0 	movw	r2, #5296	; 0x14b0
   85c30:	f2c2 0207 	movt	r2, #8199	; 0x2007
   85c34:	6810      	ldr	r0, [r2, #0]
   85c36:	4298      	cmp	r0, r3
   85c38:	d011      	beq.n	85c5e <udi_msc_cbw_received+0x46>
   85c3a:	f241 43d0 	movw	r3, #5328	; 0x14d0
   85c3e:	f2c2 0307 	movt	r3, #8199	; 0x2007
   85c42:	f04f 0201 	mov.w	r2, #1
   85c46:	701a      	strb	r2, [r3, #0]
   85c48:	f645 2115 	movw	r1, #23061	; 0x5a15
   85c4c:	f2c0 0108 	movt	r1, #8
   85c50:	4788      	blx	r1
   85c52:	f645 2049 	movw	r0, #23113	; 0x5a49
   85c56:	f2c0 0008 	movt	r0, #8
   85c5a:	4780      	blx	r0
   85c5c:	bd70      	pop	{r4, r5, r6, pc}
   85c5e:	f241 41b0 	movw	r1, #5296	; 0x14b0
   85c62:	f2c2 0107 	movt	r1, #8199	; 0x2007
   85c66:	7b4b      	ldrb	r3, [r1, #13]
   85c68:	f003 000f 	and.w	r0, r3, #15
   85c6c:	7348      	strb	r0, [r1, #13]
   85c6e:	f241 42a8 	movw	r2, #5288	; 0x14a8
   85c72:	f2c2 0207 	movt	r2, #8199	; 0x2007
   85c76:	7811      	ldrb	r1, [r2, #0]
   85c78:	4281      	cmp	r1, r0
   85c7a:	d20a      	bcs.n	85c92 <udi_msc_cbw_received+0x7a>
   85c7c:	f645 015d 	movw	r1, #22621	; 0x585d
   85c80:	f2c0 0108 	movt	r1, #8
   85c84:	4788      	blx	r1
   85c86:	f645 00c1 	movw	r0, #22721	; 0x58c1
   85c8a:	f2c0 0008 	movt	r0, #8
   85c8e:	4780      	blx	r0
   85c90:	bd70      	pop	{r4, r5, r6, pc}
   85c92:	f241 43b0 	movw	r3, #5296	; 0x14b0
   85c96:	f2c2 0307 	movt	r3, #8199	; 0x2007
   85c9a:	689a      	ldr	r2, [r3, #8]
   85c9c:	f240 2148 	movw	r1, #584	; 0x248
   85ca0:	f2c2 0107 	movt	r1, #8199	; 0x2007
   85ca4:	608a      	str	r2, [r1, #8]
   85ca6:	7bdb      	ldrb	r3, [r3, #15]
   85ca8:	2b5a      	cmp	r3, #90	; 0x5a
   85caa:	f200 825a 	bhi.w	86162 <udi_msc_cbw_received+0x54a>
   85cae:	e8df f013 	tbh	[pc, r3, lsl #1]
   85cb2:	01a6      	.short	0x01a6
   85cb4:	02580258 	.word	0x02580258
   85cb8:	0258005b 	.word	0x0258005b
   85cbc:	02580258 	.word	0x02580258
   85cc0:	02580258 	.word	0x02580258
   85cc4:	02580258 	.word	0x02580258
   85cc8:	02580258 	.word	0x02580258
   85ccc:	02580258 	.word	0x02580258
   85cd0:	02580258 	.word	0x02580258
   85cd4:	00790258 	.word	0x00790258
   85cd8:	02580258 	.word	0x02580258
   85cdc:	02580258 	.word	0x02580258
   85ce0:	02580258 	.word	0x02580258
   85ce4:	01960258 	.word	0x01960258
   85ce8:	02580209 	.word	0x02580209
   85cec:	02260258 	.word	0x02260258
   85cf0:	02580258 	.word	0x02580258
   85cf4:	02580258 	.word	0x02580258
   85cf8:	02580258 	.word	0x02580258
   85cfc:	025801ce 	.word	0x025801ce
   85d00:	02480258 	.word	0x02480258
   85d04:	02500258 	.word	0x02500258
   85d08:	02580258 	.word	0x02580258
   85d0c:	02580258 	.word	0x02580258
   85d10:	0258023d 	.word	0x0258023d
   85d14:	02580258 	.word	0x02580258
   85d18:	02580258 	.word	0x02580258
   85d1c:	02580258 	.word	0x02580258
   85d20:	02580258 	.word	0x02580258
   85d24:	02580258 	.word	0x02580258
   85d28:	02580258 	.word	0x02580258
   85d2c:	02580258 	.word	0x02580258
   85d30:	02580258 	.word	0x02580258
   85d34:	02580258 	.word	0x02580258
   85d38:	02580258 	.word	0x02580258
   85d3c:	02580258 	.word	0x02580258
   85d40:	02580258 	.word	0x02580258
   85d44:	02580258 	.word	0x02580258
   85d48:	02580258 	.word	0x02580258
   85d4c:	02580258 	.word	0x02580258
   85d50:	02580258 	.word	0x02580258
   85d54:	02580258 	.word	0x02580258
   85d58:	02580258 	.word	0x02580258
   85d5c:	02580258 	.word	0x02580258
   85d60:	02580258 	.word	0x02580258
   85d64:	019e0258 	.word	0x019e0258
   85d68:	f241 44b0 	movw	r4, #5296	; 0x14b0
   85d6c:	f2c2 0407 	movt	r4, #8199	; 0x2007
   85d70:	7ce4      	ldrb	r4, [r4, #19]
   85d72:	2c12      	cmp	r4, #18
   85d74:	bf28      	it	cs
   85d76:	2412      	movcs	r4, #18
   85d78:	4620      	mov	r0, r4
   85d7a:	f04f 0180 	mov.w	r1, #128	; 0x80
   85d7e:	f645 120d 	movw	r2, #22797	; 0x590d
   85d82:	f2c0 0208 	movt	r2, #8
   85d86:	4790      	blx	r2
   85d88:	2800      	cmp	r0, #0
   85d8a:	f000 8201 	beq.w	86190 <udi_msc_cbw_received+0x578>
   85d8e:	f241 40f4 	movw	r0, #5364	; 0x14f4
   85d92:	f2c2 0007 	movt	r0, #8199	; 0x2007
   85d96:	4621      	mov	r1, r4
   85d98:	f645 1351 	movw	r3, #22865	; 0x5951
   85d9c:	f2c0 0308 	movt	r3, #8
   85da0:	4798      	blx	r3
   85da2:	bd70      	pop	{r4, r5, r6, pc}
   85da4:	f241 44b0 	movw	r4, #5296	; 0x14b0
   85da8:	f2c2 0407 	movt	r4, #8199	; 0x2007
   85dac:	7ce4      	ldrb	r4, [r4, #19]
   85dae:	2c24      	cmp	r4, #36	; 0x24
   85db0:	bf28      	it	cs
   85db2:	2424      	movcs	r4, #36	; 0x24
   85db4:	4620      	mov	r0, r4
   85db6:	f04f 0180 	mov.w	r1, #128	; 0x80
   85dba:	f645 120d 	movw	r2, #22797	; 0x590d
   85dbe:	f2c0 0208 	movt	r2, #8
   85dc2:	4790      	blx	r2
   85dc4:	2800      	cmp	r0, #0
   85dc6:	f000 81e3 	beq.w	86190 <udi_msc_cbw_received+0x578>
   85dca:	f241 40b0 	movw	r0, #5296	; 0x14b0
   85dce:	f2c2 0007 	movt	r0, #8199	; 0x2007
   85dd2:	7c01      	ldrb	r1, [r0, #16]
   85dd4:	f011 0f03 	tst.w	r1, #3
   85dd8:	d105      	bne.n	85de6 <udi_msc_cbw_received+0x1ce>
   85dda:	f241 43b0 	movw	r3, #5296	; 0x14b0
   85dde:	f2c2 0307 	movt	r3, #8199	; 0x2007
   85de2:	7c5a      	ldrb	r2, [r3, #17]
   85de4:	b152      	cbz	r2, 85dfc <udi_msc_cbw_received+0x1e4>
   85de6:	f645 015d 	movw	r1, #22621	; 0x585d
   85dea:	f2c0 0108 	movt	r1, #8
   85dee:	4788      	blx	r1
   85df0:	f645 03c1 	movw	r3, #22721	; 0x58c1
   85df4:	f2c0 0308 	movt	r3, #8
   85df8:	4798      	blx	r3
   85dfa:	bd70      	pop	{r4, r5, r6, pc}
   85dfc:	f241 45b0 	movw	r5, #5296	; 0x14b0
   85e00:	f2c2 0507 	movt	r5, #8199	; 0x2007
   85e04:	7b68      	ldrb	r0, [r5, #13]
   85e06:	f644 56f5 	movw	r6, #19957	; 0x4df5
   85e0a:	f2c0 0608 	movt	r6, #8
   85e0e:	47b0      	blx	r6
   85e10:	2800      	cmp	r0, #0
   85e12:	bf14      	ite	ne
   85e14:	2080      	movne	r0, #128	; 0x80
   85e16:	2000      	moveq	r0, #0
   85e18:	f240 260c 	movw	r6, #524	; 0x20c
   85e1c:	f2c2 0607 	movt	r6, #8199	; 0x2007
   85e20:	7070      	strb	r0, [r6, #1]
   85e22:	f241 41b0 	movw	r1, #5296	; 0x14b0
   85e26:	f2c2 0107 	movt	r1, #8199	; 0x2007
   85e2a:	7b48      	ldrb	r0, [r1, #13]
   85e2c:	f644 630d 	movw	r3, #19981	; 0x4e0d
   85e30:	f2c0 0308 	movt	r3, #8
   85e34:	4798      	blx	r3
   85e36:	f106 0510 	add.w	r5, r6, #16
   85e3a:	4603      	mov	r3, r0
   85e3c:	f853 0f01 	ldr.w	r0, [r3, #1]!
   85e40:	6859      	ldr	r1, [r3, #4]
   85e42:	689a      	ldr	r2, [r3, #8]
   85e44:	68db      	ldr	r3, [r3, #12]
   85e46:	c50f      	stmia	r5!, {r0, r1, r2, r3}
   85e48:	7c32      	ldrb	r2, [r6, #16]
   85e4a:	2a00      	cmp	r2, #0
   85e4c:	f000 819a 	beq.w	86184 <udi_msc_cbw_received+0x56c>
   85e50:	2a22      	cmp	r2, #34	; 0x22
   85e52:	f000 819a 	beq.w	8618a <udi_msc_cbw_received+0x572>
   85e56:	7c71      	ldrb	r1, [r6, #17]
   85e58:	2900      	cmp	r1, #0
   85e5a:	d03e      	beq.n	85eda <udi_msc_cbw_received+0x2c2>
   85e5c:	2922      	cmp	r1, #34	; 0x22
   85e5e:	d06b      	beq.n	85f38 <udi_msc_cbw_received+0x320>
   85e60:	7cb2      	ldrb	r2, [r6, #18]
   85e62:	2a00      	cmp	r2, #0
   85e64:	d03c      	beq.n	85ee0 <udi_msc_cbw_received+0x2c8>
   85e66:	2a22      	cmp	r2, #34	; 0x22
   85e68:	d069      	beq.n	85f3e <udi_msc_cbw_received+0x326>
   85e6a:	7cf1      	ldrb	r1, [r6, #19]
   85e6c:	2900      	cmp	r1, #0
   85e6e:	d03a      	beq.n	85ee6 <udi_msc_cbw_received+0x2ce>
   85e70:	2922      	cmp	r1, #34	; 0x22
   85e72:	d067      	beq.n	85f44 <udi_msc_cbw_received+0x32c>
   85e74:	7d32      	ldrb	r2, [r6, #20]
   85e76:	2a00      	cmp	r2, #0
   85e78:	d038      	beq.n	85eec <udi_msc_cbw_received+0x2d4>
   85e7a:	2a22      	cmp	r2, #34	; 0x22
   85e7c:	d065      	beq.n	85f4a <udi_msc_cbw_received+0x332>
   85e7e:	7d71      	ldrb	r1, [r6, #21]
   85e80:	2900      	cmp	r1, #0
   85e82:	d036      	beq.n	85ef2 <udi_msc_cbw_received+0x2da>
   85e84:	2922      	cmp	r1, #34	; 0x22
   85e86:	d063      	beq.n	85f50 <udi_msc_cbw_received+0x338>
   85e88:	7db2      	ldrb	r2, [r6, #22]
   85e8a:	b3aa      	cbz	r2, 85ef8 <udi_msc_cbw_received+0x2e0>
   85e8c:	2a22      	cmp	r2, #34	; 0x22
   85e8e:	d062      	beq.n	85f56 <udi_msc_cbw_received+0x33e>
   85e90:	7df1      	ldrb	r1, [r6, #23]
   85e92:	b3a1      	cbz	r1, 85efe <udi_msc_cbw_received+0x2e6>
   85e94:	2922      	cmp	r1, #34	; 0x22
   85e96:	d061      	beq.n	85f5c <udi_msc_cbw_received+0x344>
   85e98:	7e32      	ldrb	r2, [r6, #24]
   85e9a:	b39a      	cbz	r2, 85f04 <udi_msc_cbw_received+0x2ec>
   85e9c:	2a22      	cmp	r2, #34	; 0x22
   85e9e:	d060      	beq.n	85f62 <udi_msc_cbw_received+0x34a>
   85ea0:	7e71      	ldrb	r1, [r6, #25]
   85ea2:	b391      	cbz	r1, 85f0a <udi_msc_cbw_received+0x2f2>
   85ea4:	2922      	cmp	r1, #34	; 0x22
   85ea6:	d05f      	beq.n	85f68 <udi_msc_cbw_received+0x350>
   85ea8:	7eb2      	ldrb	r2, [r6, #26]
   85eaa:	b38a      	cbz	r2, 85f10 <udi_msc_cbw_received+0x2f8>
   85eac:	2a22      	cmp	r2, #34	; 0x22
   85eae:	d05e      	beq.n	85f6e <udi_msc_cbw_received+0x356>
   85eb0:	7ef1      	ldrb	r1, [r6, #27]
   85eb2:	b381      	cbz	r1, 85f16 <udi_msc_cbw_received+0x2fe>
   85eb4:	2922      	cmp	r1, #34	; 0x22
   85eb6:	d05d      	beq.n	85f74 <udi_msc_cbw_received+0x35c>
   85eb8:	7f32      	ldrb	r2, [r6, #28]
   85eba:	b37a      	cbz	r2, 85f1c <udi_msc_cbw_received+0x304>
   85ebc:	2a22      	cmp	r2, #34	; 0x22
   85ebe:	d05c      	beq.n	85f7a <udi_msc_cbw_received+0x362>
   85ec0:	7f71      	ldrb	r1, [r6, #29]
   85ec2:	b371      	cbz	r1, 85f22 <udi_msc_cbw_received+0x30a>
   85ec4:	2922      	cmp	r1, #34	; 0x22
   85ec6:	d05b      	beq.n	85f80 <udi_msc_cbw_received+0x368>
   85ec8:	7fb2      	ldrb	r2, [r6, #30]
   85eca:	b36a      	cbz	r2, 85f28 <udi_msc_cbw_received+0x310>
   85ecc:	2a22      	cmp	r2, #34	; 0x22
   85ece:	d05a      	beq.n	85f86 <udi_msc_cbw_received+0x36e>
   85ed0:	7ff3      	ldrb	r3, [r6, #31]
   85ed2:	bb63      	cbnz	r3, 85f2e <udi_msc_cbw_received+0x316>
   85ed4:	f04f 030f 	mov.w	r3, #15
   85ed8:	e057      	b.n	85f8a <udi_msc_cbw_received+0x372>
   85eda:	f04f 0301 	mov.w	r3, #1
   85ede:	e054      	b.n	85f8a <udi_msc_cbw_received+0x372>
   85ee0:	f04f 0302 	mov.w	r3, #2
   85ee4:	e051      	b.n	85f8a <udi_msc_cbw_received+0x372>
   85ee6:	f04f 0303 	mov.w	r3, #3
   85eea:	e04e      	b.n	85f8a <udi_msc_cbw_received+0x372>
   85eec:	f04f 0304 	mov.w	r3, #4
   85ef0:	e04b      	b.n	85f8a <udi_msc_cbw_received+0x372>
   85ef2:	f04f 0305 	mov.w	r3, #5
   85ef6:	e048      	b.n	85f8a <udi_msc_cbw_received+0x372>
   85ef8:	f04f 0306 	mov.w	r3, #6
   85efc:	e045      	b.n	85f8a <udi_msc_cbw_received+0x372>
   85efe:	f04f 0307 	mov.w	r3, #7
   85f02:	e042      	b.n	85f8a <udi_msc_cbw_received+0x372>
   85f04:	f04f 0308 	mov.w	r3, #8
   85f08:	e03f      	b.n	85f8a <udi_msc_cbw_received+0x372>
   85f0a:	f04f 0309 	mov.w	r3, #9
   85f0e:	e03c      	b.n	85f8a <udi_msc_cbw_received+0x372>
   85f10:	f04f 030a 	mov.w	r3, #10
   85f14:	e039      	b.n	85f8a <udi_msc_cbw_received+0x372>
   85f16:	f04f 030b 	mov.w	r3, #11
   85f1a:	e036      	b.n	85f8a <udi_msc_cbw_received+0x372>
   85f1c:	f04f 030c 	mov.w	r3, #12
   85f20:	e033      	b.n	85f8a <udi_msc_cbw_received+0x372>
   85f22:	f04f 030d 	mov.w	r3, #13
   85f26:	e030      	b.n	85f8a <udi_msc_cbw_received+0x372>
   85f28:	f04f 030e 	mov.w	r3, #14
   85f2c:	e02d      	b.n	85f8a <udi_msc_cbw_received+0x372>
   85f2e:	2b22      	cmp	r3, #34	; 0x22
   85f30:	bf08      	it	eq
   85f32:	230f      	moveq	r3, #15
   85f34:	d029      	beq.n	85f8a <udi_msc_cbw_received+0x372>
   85f36:	e047      	b.n	85fc8 <udi_msc_cbw_received+0x3b0>
   85f38:	f04f 0301 	mov.w	r3, #1
   85f3c:	e025      	b.n	85f8a <udi_msc_cbw_received+0x372>
   85f3e:	f04f 0302 	mov.w	r3, #2
   85f42:	e022      	b.n	85f8a <udi_msc_cbw_received+0x372>
   85f44:	f04f 0303 	mov.w	r3, #3
   85f48:	e01f      	b.n	85f8a <udi_msc_cbw_received+0x372>
   85f4a:	f04f 0304 	mov.w	r3, #4
   85f4e:	e01c      	b.n	85f8a <udi_msc_cbw_received+0x372>
   85f50:	f04f 0305 	mov.w	r3, #5
   85f54:	e019      	b.n	85f8a <udi_msc_cbw_received+0x372>
   85f56:	f04f 0306 	mov.w	r3, #6
   85f5a:	e016      	b.n	85f8a <udi_msc_cbw_received+0x372>
   85f5c:	f04f 0307 	mov.w	r3, #7
   85f60:	e013      	b.n	85f8a <udi_msc_cbw_received+0x372>
   85f62:	f04f 0308 	mov.w	r3, #8
   85f66:	e010      	b.n	85f8a <udi_msc_cbw_received+0x372>
   85f68:	f04f 0309 	mov.w	r3, #9
   85f6c:	e00d      	b.n	85f8a <udi_msc_cbw_received+0x372>
   85f6e:	f04f 030a 	mov.w	r3, #10
   85f72:	e00a      	b.n	85f8a <udi_msc_cbw_received+0x372>
   85f74:	f04f 030b 	mov.w	r3, #11
   85f78:	e007      	b.n	85f8a <udi_msc_cbw_received+0x372>
   85f7a:	f04f 030c 	mov.w	r3, #12
   85f7e:	e004      	b.n	85f8a <udi_msc_cbw_received+0x372>
   85f80:	f04f 030d 	mov.w	r3, #13
   85f84:	e001      	b.n	85f8a <udi_msc_cbw_received+0x372>
   85f86:	f04f 030e 	mov.w	r3, #14
   85f8a:	f240 210c 	movw	r1, #524	; 0x20c
   85f8e:	f2c2 0107 	movt	r1, #8199	; 0x2007
   85f92:	f04f 0220 	mov.w	r2, #32
   85f96:	f1c3 050f 	rsb	r5, r3, #15
   85f9a:	f005 0001 	and.w	r0, r5, #1
   85f9e:	18cd      	adds	r5, r1, r3
   85fa0:	742a      	strb	r2, [r5, #16]
   85fa2:	f103 0301 	add.w	r3, r3, #1
   85fa6:	2b10      	cmp	r3, #16
   85fa8:	f040 80f3 	bne.w	86192 <udi_msc_cbw_received+0x57a>
   85fac:	e00c      	b.n	85fc8 <udi_msc_cbw_received+0x3b0>
   85fae:	18c8      	adds	r0, r1, r3
   85fb0:	7402      	strb	r2, [r0, #16]
   85fb2:	f103 0301 	add.w	r3, r3, #1
   85fb6:	f003 03ff 	and.w	r3, r3, #255	; 0xff
   85fba:	18c8      	adds	r0, r1, r3
   85fbc:	7402      	strb	r2, [r0, #16]
   85fbe:	f103 0301 	add.w	r3, r3, #1
   85fc2:	b2db      	uxtb	r3, r3
   85fc4:	2b10      	cmp	r3, #16
   85fc6:	d1f2      	bne.n	85fae <udi_msc_cbw_received+0x396>
   85fc8:	f240 200c 	movw	r0, #524	; 0x20c
   85fcc:	f2c2 0007 	movt	r0, #8199	; 0x2007
   85fd0:	4621      	mov	r1, r4
   85fd2:	f645 1251 	movw	r2, #22865	; 0x5951
   85fd6:	f2c0 0208 	movt	r2, #8
   85fda:	4790      	blx	r2
   85fdc:	bd70      	pop	{r4, r5, r6, pc}
   85fde:	f04f 0000 	mov.w	r0, #0
   85fe2:	f645 237d 	movw	r3, #23165	; 0x5a7d
   85fe6:	f2c0 0308 	movt	r3, #8
   85fea:	4798      	blx	r3
   85fec:	bd70      	pop	{r4, r5, r6, pc}
   85fee:	f04f 0001 	mov.w	r0, #1
   85ff2:	f645 227d 	movw	r2, #23165	; 0x5a7d
   85ff6:	f2c0 0208 	movt	r2, #8
   85ffa:	4790      	blx	r2
   85ffc:	bd70      	pop	{r4, r5, r6, pc}
   85ffe:	f644 519d 	movw	r1, #19869	; 0x4d9d
   86002:	f2c0 0108 	movt	r1, #8
   86006:	4788      	blx	r1
   86008:	2802      	cmp	r0, #2
   8600a:	d009      	beq.n	86020 <udi_msc_cbw_received+0x408>
   8600c:	2803      	cmp	r0, #3
   8600e:	d001      	beq.n	86014 <udi_msc_cbw_received+0x3fc>
   86010:	b190      	cbz	r0, 86038 <udi_msc_cbw_received+0x420>
   86012:	e00b      	b.n	8602c <udi_msc_cbw_received+0x414>
   86014:	f645 030d 	movw	r3, #22541	; 0x580d
   86018:	f2c0 0308 	movt	r3, #8
   8601c:	4798      	blx	r3
   8601e:	e010      	b.n	86042 <udi_msc_cbw_received+0x42a>
   86020:	f645 0129 	movw	r1, #22569	; 0x5829
   86024:	f2c0 0108 	movt	r1, #8
   86028:	4788      	blx	r1
   8602a:	e00a      	b.n	86042 <udi_msc_cbw_received+0x42a>
   8602c:	f645 0045 	movw	r0, #22597	; 0x5845
   86030:	f2c0 0008 	movt	r0, #8
   86034:	4780      	blx	r0
   86036:	e004      	b.n	86042 <udi_msc_cbw_received+0x42a>
   86038:	f245 72a9 	movw	r2, #22441	; 0x57a9
   8603c:	f2c0 0208 	movt	r2, #8
   86040:	4790      	blx	r2
   86042:	f645 00c1 	movw	r0, #22721	; 0x58c1
   86046:	f2c0 0008 	movt	r0, #8
   8604a:	4780      	blx	r0
   8604c:	bd70      	pop	{r4, r5, r6, pc}
   8604e:	f04f 0008 	mov.w	r0, #8
   86052:	f04f 0180 	mov.w	r1, #128	; 0x80
   86056:	f645 130d 	movw	r3, #22797	; 0x590d
   8605a:	f2c0 0308 	movt	r3, #8
   8605e:	4798      	blx	r3
   86060:	2800      	cmp	r0, #0
   86062:	f000 8095 	beq.w	86190 <udi_msc_cbw_received+0x578>
   86066:	f241 40b0 	movw	r0, #5296	; 0x14b0
   8606a:	f2c2 0007 	movt	r0, #8199	; 0x2007
   8606e:	7b40      	ldrb	r0, [r0, #13]
   86070:	f241 41d4 	movw	r1, #5332	; 0x14d4
   86074:	f2c2 0107 	movt	r1, #8199	; 0x2007
   86078:	f644 52b5 	movw	r2, #19893	; 0x4db5
   8607c:	f2c0 0208 	movt	r2, #8
   86080:	4790      	blx	r2
   86082:	2802      	cmp	r0, #2
   86084:	d008      	beq.n	86098 <udi_msc_cbw_received+0x480>
   86086:	2803      	cmp	r0, #3
   86088:	d001      	beq.n	8608e <udi_msc_cbw_received+0x476>
   8608a:	b178      	cbz	r0, 860ac <udi_msc_cbw_received+0x494>
   8608c:	e009      	b.n	860a2 <udi_msc_cbw_received+0x48a>
   8608e:	4847      	ldr	r0, [pc, #284]	; (861ac <udi_msc_cbw_received+0x594>)
   86090:	4780      	blx	r0
   86092:	4947      	ldr	r1, [pc, #284]	; (861b0 <udi_msc_cbw_received+0x598>)
   86094:	4788      	blx	r1
   86096:	bd70      	pop	{r4, r5, r6, pc}
   86098:	4b46      	ldr	r3, [pc, #280]	; (861b4 <udi_msc_cbw_received+0x59c>)
   8609a:	4798      	blx	r3
   8609c:	4a44      	ldr	r2, [pc, #272]	; (861b0 <udi_msc_cbw_received+0x598>)
   8609e:	4790      	blx	r2
   860a0:	bd70      	pop	{r4, r5, r6, pc}
   860a2:	4945      	ldr	r1, [pc, #276]	; (861b8 <udi_msc_cbw_received+0x5a0>)
   860a4:	4788      	blx	r1
   860a6:	4b42      	ldr	r3, [pc, #264]	; (861b0 <udi_msc_cbw_received+0x598>)
   860a8:	4798      	blx	r3
   860aa:	bd70      	pop	{r4, r5, r6, pc}
   860ac:	4843      	ldr	r0, [pc, #268]	; (861bc <udi_msc_cbw_received+0x5a4>)
   860ae:	f44f 3200 	mov.w	r2, #131072	; 0x20000
   860b2:	6042      	str	r2, [r0, #4]
   860b4:	6801      	ldr	r1, [r0, #0]
   860b6:	ba0b      	rev	r3, r1
   860b8:	6003      	str	r3, [r0, #0]
   860ba:	f04f 0108 	mov.w	r1, #8
   860be:	4a40      	ldr	r2, [pc, #256]	; (861c0 <udi_msc_cbw_received+0x5a8>)
   860c0:	4790      	blx	r2
   860c2:	bd70      	pop	{r4, r5, r6, pc}
   860c4:	f241 41b0 	movw	r1, #5296	; 0x14b0
   860c8:	f2c2 0107 	movt	r1, #8199	; 0x2007
   860cc:	7ccb      	ldrb	r3, [r1, #19]
   860ce:	f003 0202 	and.w	r2, r3, #2
   860d2:	b2d1      	uxtb	r1, r2
   860d4:	b141      	cbz	r1, 860e8 <udi_msc_cbw_received+0x4d0>
   860d6:	f083 0301 	eor.w	r3, r3, #1
   860da:	f003 0101 	and.w	r1, r3, #1
   860de:	f644 52cd 	movw	r2, #19917	; 0x4dcd
   860e2:	f2c0 0208 	movt	r2, #8
   860e6:	4790      	blx	r2
   860e8:	f245 70a9 	movw	r0, #22441	; 0x57a9
   860ec:	f2c0 0008 	movt	r0, #8
   860f0:	4780      	blx	r0
   860f2:	f645 01c1 	movw	r1, #22721	; 0x58c1
   860f6:	f2c0 0108 	movt	r1, #8
   860fa:	4788      	blx	r1
   860fc:	bd70      	pop	{r4, r5, r6, pc}
   860fe:	f241 40b0 	movw	r0, #5296	; 0x14b0
   86102:	f2c2 0007 	movt	r0, #8199	; 0x2007
   86106:	7cc1      	ldrb	r1, [r0, #19]
   86108:	b929      	cbnz	r1, 86116 <udi_msc_cbw_received+0x4fe>
   8610a:	f245 72a9 	movw	r2, #22441	; 0x57a9
   8610e:	f2c0 0208 	movt	r2, #8
   86112:	4790      	blx	r2
   86114:	e004      	b.n	86120 <udi_msc_cbw_received+0x508>
   86116:	f645 035d 	movw	r3, #22621	; 0x585d
   8611a:	f2c0 0308 	movt	r3, #8
   8611e:	4798      	blx	r3
   86120:	f645 00c1 	movw	r0, #22721	; 0x58c1
   86124:	f2c0 0008 	movt	r0, #8
   86128:	4780      	blx	r0
   8612a:	bd70      	pop	{r4, r5, r6, pc}
   8612c:	f245 70a9 	movw	r0, #22441	; 0x57a9
   86130:	f2c0 0008 	movt	r0, #8
   86134:	4780      	blx	r0
   86136:	f645 01c1 	movw	r1, #22721	; 0x58c1
   8613a:	f2c0 0108 	movt	r1, #8
   8613e:	4788      	blx	r1
   86140:	bd70      	pop	{r4, r5, r6, pc}
   86142:	f04f 0001 	mov.w	r0, #1
   86146:	f645 3275 	movw	r2, #23413	; 0x5b75
   8614a:	f2c0 0208 	movt	r2, #8
   8614e:	4790      	blx	r2
   86150:	bd70      	pop	{r4, r5, r6, pc}
   86152:	f04f 0000 	mov.w	r0, #0
   86156:	f645 3375 	movw	r3, #23413	; 0x5b75
   8615a:	f2c0 0308 	movt	r3, #8
   8615e:	4798      	blx	r3
   86160:	bd70      	pop	{r4, r5, r6, pc}
   86162:	f04f 0005 	mov.w	r0, #5
   86166:	f44f 5100 	mov.w	r1, #8192	; 0x2000
   8616a:	f04f 0200 	mov.w	r2, #0
   8616e:	f245 73c5 	movw	r3, #22469	; 0x57c5
   86172:	f2c0 0308 	movt	r3, #8
   86176:	4798      	blx	r3
   86178:	f645 02c1 	movw	r2, #22721	; 0x58c1
   8617c:	f2c0 0208 	movt	r2, #8
   86180:	4790      	blx	r2
   86182:	bd70      	pop	{r4, r5, r6, pc}
   86184:	f04f 0300 	mov.w	r3, #0
   86188:	e6ff      	b.n	85f8a <udi_msc_cbw_received+0x372>
   8618a:	f04f 0300 	mov.w	r3, #0
   8618e:	e6fc      	b.n	85f8a <udi_msc_cbw_received+0x372>
   86190:	bd70      	pop	{r4, r5, r6, pc}
   86192:	b240      	sxtb	r0, r0
   86194:	2800      	cmp	r0, #0
   86196:	f43f af0a 	beq.w	85fae <udi_msc_cbw_received+0x396>
   8619a:	18c8      	adds	r0, r1, r3
   8619c:	7402      	strb	r2, [r0, #16]
   8619e:	f103 0301 	add.w	r3, r3, #1
   861a2:	b2db      	uxtb	r3, r3
   861a4:	2b10      	cmp	r3, #16
   861a6:	f47f af02 	bne.w	85fae <udi_msc_cbw_received+0x396>
   861aa:	e70d      	b.n	85fc8 <udi_msc_cbw_received+0x3b0>
   861ac:	0008580d 	.word	0x0008580d
   861b0:	000858c1 	.word	0x000858c1
   861b4:	00085829 	.word	0x00085829
   861b8:	00085845 	.word	0x00085845
   861bc:	200714d4 	.word	0x200714d4
   861c0:	00085951 	.word	0x00085951

000861c4 <udi_msc_setup>:
   861c4:	b510      	push	{r4, lr}
   861c6:	f641 4318 	movw	r3, #7192	; 0x1c18
   861ca:	f2c2 0307 	movt	r3, #8199	; 0x2007
   861ce:	7818      	ldrb	r0, [r3, #0]
   861d0:	f010 0f80 	tst.w	r0, #128	; 0x80
   861d4:	d025      	beq.n	86222 <udi_msc_setup+0x5e>
   861d6:	f000 0260 	and.w	r2, r0, #96	; 0x60
   861da:	2a20      	cmp	r2, #32
   861dc:	d156      	bne.n	8628c <udi_msc_setup+0xc8>
   861de:	f641 4318 	movw	r3, #7192	; 0x1c18
   861e2:	f2c2 0307 	movt	r3, #8199	; 0x2007
   861e6:	7858      	ldrb	r0, [r3, #1]
   861e8:	28fe      	cmp	r0, #254	; 0xfe
   861ea:	d152      	bne.n	86292 <udi_msc_setup+0xce>
   861ec:	f641 4118 	movw	r1, #7192	; 0x1c18
   861f0:	f2c2 0107 	movt	r1, #8199	; 0x2007
   861f4:	88ca      	ldrh	r2, [r1, #6]
   861f6:	2a01      	cmp	r2, #1
   861f8:	d14e      	bne.n	86298 <udi_msc_setup+0xd4>
   861fa:	f641 4318 	movw	r3, #7192	; 0x1c18
   861fe:	f2c2 0307 	movt	r3, #8199	; 0x2007
   86202:	8858      	ldrh	r0, [r3, #2]
   86204:	2800      	cmp	r0, #0
   86206:	d14a      	bne.n	8629e <udi_msc_setup+0xda>
   86208:	f641 4118 	movw	r1, #7192	; 0x1c18
   8620c:	f2c2 0107 	movt	r1, #8199	; 0x2007
   86210:	f241 42a8 	movw	r2, #5288	; 0x14a8
   86214:	f2c2 0207 	movt	r2, #8199	; 0x2007
   86218:	608a      	str	r2, [r1, #8]
   8621a:	f04f 0001 	mov.w	r0, #1
   8621e:	8188      	strh	r0, [r1, #12]
   86220:	bd10      	pop	{r4, pc}
   86222:	f000 0160 	and.w	r1, r0, #96	; 0x60
   86226:	2920      	cmp	r1, #32
   86228:	d13c      	bne.n	862a4 <udi_msc_setup+0xe0>
   8622a:	f641 4218 	movw	r2, #7192	; 0x1c18
   8622e:	f2c2 0207 	movt	r2, #8199	; 0x2007
   86232:	7853      	ldrb	r3, [r2, #1]
   86234:	2bff      	cmp	r3, #255	; 0xff
   86236:	d138      	bne.n	862aa <udi_msc_setup+0xe6>
   86238:	f641 4018 	movw	r0, #7192	; 0x1c18
   8623c:	f2c2 0007 	movt	r0, #8199	; 0x2007
   86240:	88c1      	ldrh	r1, [r0, #6]
   86242:	2900      	cmp	r1, #0
   86244:	d134      	bne.n	862b0 <udi_msc_setup+0xec>
   86246:	f641 4218 	movw	r2, #7192	; 0x1c18
   8624a:	f2c2 0207 	movt	r2, #8199	; 0x2007
   8624e:	8853      	ldrh	r3, [r2, #2]
   86250:	2b00      	cmp	r3, #0
   86252:	d130      	bne.n	862b6 <udi_msc_setup+0xf2>
   86254:	f241 44d0 	movw	r4, #5328	; 0x14d0
   86258:	f2c2 0407 	movt	r4, #8199	; 0x2007
   8625c:	7023      	strb	r3, [r4, #0]
   8625e:	f241 40ac 	movw	r0, #5292	; 0x14ac
   86262:	f2c2 0007 	movt	r0, #8199	; 0x2007
   86266:	7003      	strb	r3, [r0, #0]
   86268:	f04f 0002 	mov.w	r0, #2
   8626c:	f249 242d 	movw	r4, #37421	; 0x922d
   86270:	f2c0 0408 	movt	r4, #8
   86274:	47a0      	blx	r4
   86276:	f04f 0081 	mov.w	r0, #129	; 0x81
   8627a:	47a0      	blx	r4
   8627c:	f645 11bd 	movw	r1, #22973	; 0x59bd
   86280:	f2c0 0108 	movt	r1, #8
   86284:	4788      	blx	r1
   86286:	f04f 0001 	mov.w	r0, #1
   8628a:	bd10      	pop	{r4, pc}
   8628c:	f04f 0000 	mov.w	r0, #0
   86290:	bd10      	pop	{r4, pc}
   86292:	f04f 0000 	mov.w	r0, #0
   86296:	bd10      	pop	{r4, pc}
   86298:	f04f 0000 	mov.w	r0, #0
   8629c:	bd10      	pop	{r4, pc}
   8629e:	f04f 0000 	mov.w	r0, #0
   862a2:	bd10      	pop	{r4, pc}
   862a4:	f04f 0000 	mov.w	r0, #0
   862a8:	bd10      	pop	{r4, pc}
   862aa:	f04f 0000 	mov.w	r0, #0
   862ae:	bd10      	pop	{r4, pc}
   862b0:	f04f 0000 	mov.w	r0, #0
   862b4:	bd10      	pop	{r4, pc}
   862b6:	f04f 0000 	mov.w	r0, #0
   862ba:	bd10      	pop	{r4, pc}

000862bc <udi_msc_disable>:
   862bc:	b508      	push	{r3, lr}
   862be:	f241 43ac 	movw	r3, #5292	; 0x14ac
   862c2:	f2c2 0307 	movt	r3, #8199	; 0x2007
   862c6:	f04f 0200 	mov.w	r2, #0
   862ca:	701a      	strb	r2, [r3, #0]
   862cc:	f649 0071 	movw	r0, #39025	; 0x9871
   862d0:	f2c0 0008 	movt	r0, #8
   862d4:	4780      	blx	r0
   862d6:	bd08      	pop	{r3, pc}

000862d8 <udi_msc_enable>:
   862d8:	b5f8      	push	{r3, r4, r5, r6, r7, lr}
   862da:	f04f 0300 	mov.w	r3, #0
   862de:	f241 42ac 	movw	r2, #5292	; 0x14ac
   862e2:	f2c2 0207 	movt	r2, #8199	; 0x2007
   862e6:	7013      	strb	r3, [r2, #0]
   862e8:	f241 40d0 	movw	r0, #5328	; 0x14d0
   862ec:	f2c2 0007 	movt	r0, #8199	; 0x2007
   862f0:	7003      	strb	r3, [r0, #0]
   862f2:	f644 5195 	movw	r1, #19861	; 0x4d95
   862f6:	f2c0 0108 	movt	r1, #8
   862fa:	4788      	blx	r1
   862fc:	b928      	cbnz	r0, 8630a <udi_msc_enable+0x32>
   862fe:	f241 42a8 	movw	r2, #5288	; 0x14a8
   86302:	f2c2 0207 	movt	r2, #8199	; 0x2007
   86306:	7010      	strb	r0, [r2, #0]
   86308:	bdf8      	pop	{r3, r4, r5, r6, r7, pc}
   8630a:	f100 30ff 	add.w	r0, r0, #4294967295
   8630e:	f241 42a8 	movw	r2, #5288	; 0x14a8
   86312:	f2c2 0207 	movt	r2, #8199	; 0x2007
   86316:	7010      	strb	r0, [r2, #0]
   86318:	f649 0161 	movw	r1, #39009	; 0x9861
   8631c:	f2c0 0108 	movt	r1, #8
   86320:	4788      	blx	r1
   86322:	b1d8      	cbz	r0, 8635c <udi_msc_enable+0x84>
   86324:	f04f 0400 	mov.w	r4, #0
   86328:	4627      	mov	r7, r4
   8632a:	f644 56cd 	movw	r6, #19917	; 0x4dcd
   8632e:	f2c0 0608 	movt	r6, #8
   86332:	f241 45a8 	movw	r5, #5288	; 0x14a8
   86336:	f2c2 0507 	movt	r5, #8199	; 0x2007
   8633a:	4620      	mov	r0, r4
   8633c:	4639      	mov	r1, r7
   8633e:	47b0      	blx	r6
   86340:	f104 0401 	add.w	r4, r4, #1
   86344:	b2e4      	uxtb	r4, r4
   86346:	782b      	ldrb	r3, [r5, #0]
   86348:	42a3      	cmp	r3, r4
   8634a:	d2f6      	bcs.n	8633a <udi_msc_enable+0x62>
   8634c:	f645 10bd 	movw	r0, #22973	; 0x59bd
   86350:	f2c0 0008 	movt	r0, #8
   86354:	4780      	blx	r0
   86356:	f04f 0001 	mov.w	r0, #1
   8635a:	bdf8      	pop	{r3, r4, r5, r6, r7, pc}
   8635c:	f04f 0000 	mov.w	r0, #0
   86360:	bdf8      	pop	{r3, r4, r5, r6, r7, pc}
   86362:	bf00      	nop

00086364 <udi_msc_process_trans>:
   86364:	b508      	push	{r3, lr}
   86366:	f241 43ac 	movw	r3, #5292	; 0x14ac
   8636a:	f2c2 0307 	movt	r3, #8199	; 0x2007
   8636e:	7818      	ldrb	r0, [r3, #0]
   86370:	2800      	cmp	r0, #0
   86372:	d059      	beq.n	86428 <udi_msc_process_trans+0xc4>
   86374:	f241 41ac 	movw	r1, #5292	; 0x14ac
   86378:	f2c2 0107 	movt	r1, #8199	; 0x2007
   8637c:	f04f 0200 	mov.w	r2, #0
   86380:	700a      	strb	r2, [r1, #0]
   86382:	f241 5308 	movw	r3, #5384	; 0x1508
   86386:	f2c2 0307 	movt	r3, #8199	; 0x2007
   8638a:	7818      	ldrb	r0, [r3, #0]
   8638c:	b1a0      	cbz	r0, 863b8 <udi_msc_process_trans+0x54>
   8638e:	f241 40b0 	movw	r0, #5296	; 0x14b0
   86392:	f2c2 0007 	movt	r0, #8199	; 0x2007
   86396:	7b40      	ldrb	r0, [r0, #13]
   86398:	f241 41f0 	movw	r1, #5360	; 0x14f0
   8639c:	f2c2 0107 	movt	r1, #8199	; 0x2007
   863a0:	6809      	ldr	r1, [r1, #0]
   863a2:	f241 520a 	movw	r2, #5386	; 0x150a
   863a6:	f2c2 0207 	movt	r2, #8199	; 0x2007
   863aa:	8812      	ldrh	r2, [r2, #0]
   863ac:	f644 6321 	movw	r3, #20001	; 0x4e21
   863b0:	f2c0 0308 	movt	r3, #8
   863b4:	4798      	blx	r3
   863b6:	e013      	b.n	863e0 <udi_msc_process_trans+0x7c>
   863b8:	f241 41b0 	movw	r1, #5296	; 0x14b0
   863bc:	f2c2 0107 	movt	r1, #8199	; 0x2007
   863c0:	7b48      	ldrb	r0, [r1, #13]
   863c2:	f241 42f0 	movw	r2, #5360	; 0x14f0
   863c6:	f2c2 0207 	movt	r2, #8199	; 0x2007
   863ca:	6811      	ldr	r1, [r2, #0]
   863cc:	f241 530a 	movw	r3, #5386	; 0x150a
   863d0:	f2c2 0307 	movt	r3, #8199	; 0x2007
   863d4:	881a      	ldrh	r2, [r3, #0]
   863d6:	f644 633d 	movw	r3, #20029	; 0x4e3d
   863da:	f2c0 0308 	movt	r3, #8
   863de:	4798      	blx	r3
   863e0:	2802      	cmp	r0, #2
   863e2:	d00e      	beq.n	86402 <udi_msc_process_trans+0x9e>
   863e4:	2803      	cmp	r0, #3
   863e6:	d006      	beq.n	863f6 <udi_msc_process_trans+0x92>
   863e8:	b988      	cbnz	r0, 8640e <udi_msc_process_trans+0xaa>
   863ea:	f245 71a9 	movw	r1, #22441	; 0x57a9
   863ee:	f2c0 0108 	movt	r1, #8
   863f2:	4788      	blx	r1
   863f4:	e010      	b.n	86418 <udi_msc_process_trans+0xb4>
   863f6:	f645 020d 	movw	r2, #22541	; 0x580d
   863fa:	f2c0 0208 	movt	r2, #8
   863fe:	4790      	blx	r2
   86400:	e00a      	b.n	86418 <udi_msc_process_trans+0xb4>
   86402:	f645 0329 	movw	r3, #22569	; 0x5829
   86406:	f2c0 0308 	movt	r3, #8
   8640a:	4798      	blx	r3
   8640c:	e004      	b.n	86418 <udi_msc_process_trans+0xb4>
   8640e:	f645 0045 	movw	r0, #22597	; 0x5845
   86412:	f2c0 0008 	movt	r0, #8
   86416:	4780      	blx	r0
   86418:	f645 00c1 	movw	r0, #22721	; 0x58c1
   8641c:	f2c0 0008 	movt	r0, #8
   86420:	4780      	blx	r0
   86422:	f04f 0001 	mov.w	r0, #1
   86426:	bd08      	pop	{r3, pc}
   86428:	f04f 0000 	mov.w	r0, #0
   8642c:	bd08      	pop	{r3, pc}
   8642e:	bf00      	nop

00086430 <udi_msc_trans_block>:
   86430:	b5f0      	push	{r4, r5, r6, r7, lr}
   86432:	b083      	sub	sp, #12
   86434:	460f      	mov	r7, r1
   86436:	4615      	mov	r5, r2
   86438:	f240 2430 	movw	r4, #560	; 0x230
   8643c:	f2c2 0407 	movt	r4, #8199	; 0x2007
   86440:	7824      	ldrb	r4, [r4, #0]
   86442:	2c00      	cmp	r4, #0
   86444:	d03d      	beq.n	864c2 <udi_msc_trans_block+0x92>
   86446:	f240 2130 	movw	r1, #560	; 0x230
   8644a:	f2c2 0107 	movt	r1, #8199	; 0x2007
   8644e:	f04f 0600 	mov.w	r6, #0
   86452:	700e      	strb	r6, [r1, #0]
   86454:	42b0      	cmp	r0, r6
   86456:	bf0c      	ite	eq
   86458:	2002      	moveq	r0, #2
   8645a:	2081      	movne	r0, #129	; 0x81
   8645c:	2b00      	cmp	r3, #0
   8645e:	d141      	bne.n	864e4 <udi_msc_trans_block+0xb4>
   86460:	e035      	b.n	864ce <udi_msc_trans_block+0x9e>
   86462:	f240 2330 	movw	r3, #560	; 0x230
   86466:	f2c2 0307 	movt	r3, #8199	; 0x2007
   8646a:	f04f 0001 	mov.w	r0, #1
   8646e:	7018      	strb	r0, [r3, #0]
   86470:	f04f 0000 	mov.w	r0, #0
   86474:	e040      	b.n	864f8 <udi_msc_trans_block+0xc8>
   86476:	f240 2230 	movw	r2, #560	; 0x230
   8647a:	f2c2 0207 	movt	r2, #8199	; 0x2007
   8647e:	7810      	ldrb	r0, [r2, #0]
   86480:	2800      	cmp	r0, #0
   86482:	d0fc      	beq.n	8647e <udi_msc_trans_block+0x4e>
   86484:	f641 4115 	movw	r1, #7189	; 0x1c15
   86488:	f2c2 0107 	movt	r1, #8199	; 0x2007
   8648c:	780b      	ldrb	r3, [r1, #0]
   8648e:	b9db      	cbnz	r3, 864c8 <udi_msc_trans_block+0x98>
   86490:	f240 2048 	movw	r0, #584	; 0x248
   86494:	f2c2 0007 	movt	r0, #8199	; 0x2007
   86498:	6882      	ldr	r2, [r0, #8]
   8649a:	1b51      	subs	r1, r2, r5
   8649c:	6081      	str	r1, [r0, #8]
   8649e:	f641 4315 	movw	r3, #7189	; 0x1c15
   864a2:	f2c2 0307 	movt	r3, #8199	; 0x2007
   864a6:	7818      	ldrb	r0, [r3, #0]
   864a8:	f080 0001 	eor.w	r0, r0, #1
   864ac:	e024      	b.n	864f8 <udi_msc_trans_block+0xc8>
   864ae:	f240 2148 	movw	r1, #584	; 0x248
   864b2:	f2c2 0107 	movt	r1, #8199	; 0x2007
   864b6:	688a      	ldr	r2, [r1, #8]
   864b8:	1b55      	subs	r5, r2, r5
   864ba:	608d      	str	r5, [r1, #8]
   864bc:	f04f 0001 	mov.w	r0, #1
   864c0:	e01a      	b.n	864f8 <udi_msc_trans_block+0xc8>
   864c2:	f04f 0000 	mov.w	r0, #0
   864c6:	e017      	b.n	864f8 <udi_msc_trans_block+0xc8>
   864c8:	f04f 0000 	mov.w	r0, #0
   864cc:	e014      	b.n	864f8 <udi_msc_trans_block+0xc8>
   864ce:	4b0b      	ldr	r3, [pc, #44]	; (864fc <udi_msc_trans_block+0xcc>)
   864d0:	9300      	str	r3, [sp, #0]
   864d2:	f04f 0100 	mov.w	r1, #0
   864d6:	463a      	mov	r2, r7
   864d8:	462b      	mov	r3, r5
   864da:	4c09      	ldr	r4, [pc, #36]	; (86500 <udi_msc_trans_block+0xd0>)
   864dc:	47a0      	blx	r4
   864de:	2800      	cmp	r0, #0
   864e0:	d1c9      	bne.n	86476 <udi_msc_trans_block+0x46>
   864e2:	e7be      	b.n	86462 <udi_msc_trans_block+0x32>
   864e4:	9300      	str	r3, [sp, #0]
   864e6:	f04f 0100 	mov.w	r1, #0
   864ea:	463a      	mov	r2, r7
   864ec:	462b      	mov	r3, r5
   864ee:	4c04      	ldr	r4, [pc, #16]	; (86500 <udi_msc_trans_block+0xd0>)
   864f0:	47a0      	blx	r4
   864f2:	2800      	cmp	r0, #0
   864f4:	d1db      	bne.n	864ae <udi_msc_trans_block+0x7e>
   864f6:	e7b4      	b.n	86462 <udi_msc_trans_block+0x32>
   864f8:	b003      	add	sp, #12
   864fa:	bdf0      	pop	{r4, r5, r6, r7, pc}
   864fc:	00085759 	.word	0x00085759
   86500:	00088c25 	.word	0x00088c25

00086504 <udc_get_eof_conf>:
   86504:	f241 530c 	movw	r3, #5388	; 0x150c
   86508:	f2c2 0307 	movt	r3, #8199	; 0x2007
   8650c:	6818      	ldr	r0, [r3, #0]
   8650e:	6801      	ldr	r1, [r0, #0]
   86510:	884a      	ldrh	r2, [r1, #2]
   86512:	1888      	adds	r0, r1, r2
   86514:	4770      	bx	lr
   86516:	bf00      	nop

00086518 <udc_next_desc_in_iface>:
   86518:	b538      	push	{r3, r4, r5, lr}
   8651a:	4605      	mov	r5, r0
   8651c:	460c      	mov	r4, r1
   8651e:	f246 5305 	movw	r3, #25861	; 0x6505
   86522:	f2c0 0308 	movt	r3, #8
   86526:	4798      	blx	r3
   86528:	4602      	mov	r2, r0
   8652a:	7828      	ldrb	r0, [r5, #0]
   8652c:	1828      	adds	r0, r5, r0
   8652e:	4282      	cmp	r2, r0
   86530:	d911      	bls.n	86556 <udc_next_desc_in_iface+0x3e>
   86532:	7841      	ldrb	r1, [r0, #1]
   86534:	2904      	cmp	r1, #4
   86536:	d011      	beq.n	8655c <udc_next_desc_in_iface+0x44>
   86538:	42a1      	cmp	r1, r4
   8653a:	d105      	bne.n	86548 <udc_next_desc_in_iface+0x30>
   8653c:	bd38      	pop	{r3, r4, r5, pc}
   8653e:	7841      	ldrb	r1, [r0, #1]
   86540:	2904      	cmp	r1, #4
   86542:	d00e      	beq.n	86562 <udc_next_desc_in_iface+0x4a>
   86544:	42a1      	cmp	r1, r4
   86546:	d00e      	beq.n	86566 <udc_next_desc_in_iface+0x4e>
   86548:	7803      	ldrb	r3, [r0, #0]
   8654a:	18c0      	adds	r0, r0, r3
   8654c:	4282      	cmp	r2, r0
   8654e:	d8f6      	bhi.n	8653e <udc_next_desc_in_iface+0x26>
   86550:	f04f 0000 	mov.w	r0, #0
   86554:	bd38      	pop	{r3, r4, r5, pc}
   86556:	f04f 0000 	mov.w	r0, #0
   8655a:	bd38      	pop	{r3, r4, r5, pc}
   8655c:	f04f 0000 	mov.w	r0, #0
   86560:	bd38      	pop	{r3, r4, r5, pc}
   86562:	f04f 0000 	mov.w	r0, #0
   86566:	bd38      	pop	{r3, r4, r5, pc}

00086568 <udc_update_iface_desc>:
   86568:	b570      	push	{r4, r5, r6, lr}
   8656a:	4605      	mov	r5, r0
   8656c:	460e      	mov	r6, r1
   8656e:	f241 5315 	movw	r3, #5397	; 0x1515
   86572:	f2c2 0307 	movt	r3, #8199	; 0x2007
   86576:	7818      	ldrb	r0, [r3, #0]
   86578:	2800      	cmp	r0, #0
   8657a:	d031      	beq.n	865e0 <udc_update_iface_desc+0x78>
   8657c:	f241 510c 	movw	r1, #5388	; 0x150c
   86580:	f2c2 0107 	movt	r1, #8199	; 0x2007
   86584:	680a      	ldr	r2, [r1, #0]
   86586:	6814      	ldr	r4, [r2, #0]
   86588:	7923      	ldrb	r3, [r4, #4]
   8658a:	42ab      	cmp	r3, r5
   8658c:	d92b      	bls.n	865e6 <udc_update_iface_desc+0x7e>
   8658e:	f241 5018 	movw	r0, #5400	; 0x1518
   86592:	f2c2 0007 	movt	r0, #8199	; 0x2007
   86596:	6004      	str	r4, [r0, #0]
   86598:	f246 5105 	movw	r1, #25861	; 0x6505
   8659c:	f2c0 0108 	movt	r1, #8
   865a0:	4788      	blx	r1
   865a2:	4284      	cmp	r4, r0
   865a4:	d222      	bcs.n	865ec <udc_update_iface_desc+0x84>
   865a6:	7862      	ldrb	r2, [r4, #1]
   865a8:	2a04      	cmp	r2, #4
   865aa:	d10d      	bne.n	865c8 <udc_update_iface_desc+0x60>
   865ac:	78a3      	ldrb	r3, [r4, #2]
   865ae:	42ab      	cmp	r3, r5
   865b0:	d10a      	bne.n	865c8 <udc_update_iface_desc+0x60>
   865b2:	78e1      	ldrb	r1, [r4, #3]
   865b4:	42b1      	cmp	r1, r6
   865b6:	d107      	bne.n	865c8 <udc_update_iface_desc+0x60>
   865b8:	f241 5318 	movw	r3, #5400	; 0x1518
   865bc:	f2c2 0307 	movt	r3, #8199	; 0x2007
   865c0:	601c      	str	r4, [r3, #0]
   865c2:	f04f 0001 	mov.w	r0, #1
   865c6:	bd70      	pop	{r4, r5, r6, pc}
   865c8:	7822      	ldrb	r2, [r4, #0]
   865ca:	18a4      	adds	r4, r4, r2
   865cc:	42a0      	cmp	r0, r4
   865ce:	d8ea      	bhi.n	865a6 <udc_update_iface_desc+0x3e>
   865d0:	f241 5018 	movw	r0, #5400	; 0x1518
   865d4:	f2c2 0007 	movt	r0, #8199	; 0x2007
   865d8:	6004      	str	r4, [r0, #0]
   865da:	f04f 0000 	mov.w	r0, #0
   865de:	bd70      	pop	{r4, r5, r6, pc}
   865e0:	f04f 0000 	mov.w	r0, #0
   865e4:	bd70      	pop	{r4, r5, r6, pc}
   865e6:	f04f 0000 	mov.w	r0, #0
   865ea:	bd70      	pop	{r4, r5, r6, pc}
   865ec:	f04f 0000 	mov.w	r0, #0
   865f0:	bd70      	pop	{r4, r5, r6, pc}
   865f2:	bf00      	nop

000865f4 <udc_valid_address>:
   865f4:	b508      	push	{r3, lr}
   865f6:	f641 4318 	movw	r3, #7192	; 0x1c18
   865fa:	f2c2 0307 	movt	r3, #8199	; 0x2007
   865fe:	8858      	ldrh	r0, [r3, #2]
   86600:	f000 007f 	and.w	r0, r0, #127	; 0x7f
   86604:	f648 111d 	movw	r1, #35101	; 0x891d
   86608:	f2c0 0108 	movt	r1, #8
   8660c:	4788      	blx	r1
   8660e:	bd08      	pop	{r3, pc}

00086610 <udc_iface_enable>:
   86610:	e92d 41f0 	stmdb	sp!, {r4, r5, r6, r7, r8, lr}
   86614:	4680      	mov	r8, r0
   86616:	f246 5369 	movw	r3, #25961	; 0x6569
   8661a:	f2c0 0308 	movt	r3, #8
   8661e:	4798      	blx	r3
   86620:	b338      	cbz	r0, 86672 <udc_iface_enable+0x62>
   86622:	f241 5018 	movw	r0, #5400	; 0x1518
   86626:	f2c2 0007 	movt	r0, #8199	; 0x2007
   8662a:	6804      	ldr	r4, [r0, #0]
   8662c:	f04f 0605 	mov.w	r6, #5
   86630:	f246 5519 	movw	r5, #25881	; 0x6519
   86634:	f2c0 0508 	movt	r5, #8
   86638:	f648 5729 	movw	r7, #36137	; 0x8d29
   8663c:	f2c0 0708 	movt	r7, #8
   86640:	4620      	mov	r0, r4
   86642:	4631      	mov	r1, r6
   86644:	47a8      	blx	r5
   86646:	4604      	mov	r4, r0
   86648:	b138      	cbz	r0, 8665a <udc_iface_enable+0x4a>
   8664a:	7880      	ldrb	r0, [r0, #2]
   8664c:	78e1      	ldrb	r1, [r4, #3]
   8664e:	88a2      	ldrh	r2, [r4, #4]
   86650:	47b8      	blx	r7
   86652:	2800      	cmp	r0, #0
   86654:	d1f4      	bne.n	86640 <udc_iface_enable+0x30>
   86656:	e8bd 81f0 	ldmia.w	sp!, {r4, r5, r6, r7, r8, pc}
   8665a:	f241 510c 	movw	r1, #5388	; 0x150c
   8665e:	f2c2 0107 	movt	r1, #8199	; 0x2007
   86662:	680a      	ldr	r2, [r1, #0]
   86664:	6853      	ldr	r3, [r2, #4]
   86666:	f853 0028 	ldr.w	r0, [r3, r8, lsl #2]
   8666a:	6801      	ldr	r1, [r0, #0]
   8666c:	4788      	blx	r1
   8666e:	e8bd 81f0 	ldmia.w	sp!, {r4, r5, r6, r7, r8, pc}
   86672:	f04f 0000 	mov.w	r0, #0
   86676:	e8bd 81f0 	ldmia.w	sp!, {r4, r5, r6, r7, r8, pc}
   8667a:	bf00      	nop

0008667c <udc_iface_disable>:
   8667c:	e92d 41f0 	stmdb	sp!, {r4, r5, r6, r7, r8, lr}
   86680:	4604      	mov	r4, r0
   86682:	f04f 0100 	mov.w	r1, #0
   86686:	f246 5369 	movw	r3, #25961	; 0x6569
   8668a:	f2c0 0308 	movt	r3, #8
   8668e:	4798      	blx	r3
   86690:	2800      	cmp	r0, #0
   86692:	d030      	beq.n	866f6 <udc_iface_disable+0x7a>
   86694:	f241 500c 	movw	r0, #5388	; 0x150c
   86698:	f2c2 0007 	movt	r0, #8199	; 0x2007
   8669c:	6801      	ldr	r1, [r0, #0]
   8669e:	684a      	ldr	r2, [r1, #4]
   866a0:	f852 8024 	ldr.w	r8, [r2, r4, lsl #2]
   866a4:	f8d8 300c 	ldr.w	r3, [r8, #12]
   866a8:	4798      	blx	r3
   866aa:	4601      	mov	r1, r0
   866ac:	4620      	mov	r0, r4
   866ae:	f246 5269 	movw	r2, #25961	; 0x6569
   866b2:	f2c0 0208 	movt	r2, #8
   866b6:	4790      	blx	r2
   866b8:	b308      	cbz	r0, 866fe <udc_iface_disable+0x82>
   866ba:	f241 5418 	movw	r4, #5400	; 0x1518
   866be:	f2c2 0407 	movt	r4, #8199	; 0x2007
   866c2:	6824      	ldr	r4, [r4, #0]
   866c4:	f04f 0605 	mov.w	r6, #5
   866c8:	f246 5519 	movw	r5, #25881	; 0x6519
   866cc:	f2c0 0508 	movt	r5, #8
   866d0:	f648 178d 	movw	r7, #35213	; 0x898d
   866d4:	f2c0 0708 	movt	r7, #8
   866d8:	4620      	mov	r0, r4
   866da:	4631      	mov	r1, r6
   866dc:	47a8      	blx	r5
   866de:	4604      	mov	r4, r0
   866e0:	b110      	cbz	r0, 866e8 <udc_iface_disable+0x6c>
   866e2:	7880      	ldrb	r0, [r0, #2]
   866e4:	47b8      	blx	r7
   866e6:	e7f7      	b.n	866d8 <udc_iface_disable+0x5c>
   866e8:	f8d8 0004 	ldr.w	r0, [r8, #4]
   866ec:	4780      	blx	r0
   866ee:	f04f 0001 	mov.w	r0, #1
   866f2:	e8bd 81f0 	ldmia.w	sp!, {r4, r5, r6, r7, r8, pc}
   866f6:	f04f 0000 	mov.w	r0, #0
   866fa:	e8bd 81f0 	ldmia.w	sp!, {r4, r5, r6, r7, r8, pc}
   866fe:	f04f 0000 	mov.w	r0, #0
   86702:	e8bd 81f0 	ldmia.w	sp!, {r4, r5, r6, r7, r8, pc}
   86706:	bf00      	nop

00086708 <udc_start>:
   86708:	b508      	push	{r3, lr}
   8670a:	f647 23c5 	movw	r3, #31429	; 0x7ac5
   8670e:	f2c0 0308 	movt	r3, #8
   86712:	4798      	blx	r3
   86714:	bd08      	pop	{r3, pc}
   86716:	bf00      	nop

00086718 <udc_reset>:
   86718:	b570      	push	{r4, r5, r6, lr}
   8671a:	f241 5315 	movw	r3, #5397	; 0x1515
   8671e:	f2c2 0307 	movt	r3, #8199	; 0x2007
   86722:	7818      	ldrb	r0, [r3, #0]
   86724:	b1d8      	cbz	r0, 8675e <udc_reset+0x46>
   86726:	f241 510c 	movw	r1, #5388	; 0x150c
   8672a:	f2c2 0107 	movt	r1, #8199	; 0x2007
   8672e:	680a      	ldr	r2, [r1, #0]
   86730:	6813      	ldr	r3, [r2, #0]
   86732:	7918      	ldrb	r0, [r3, #4]
   86734:	b198      	cbz	r0, 8675e <udc_reset+0x46>
   86736:	f04f 0400 	mov.w	r4, #0
   8673a:	f246 667d 	movw	r6, #26237	; 0x667d
   8673e:	f2c0 0608 	movt	r6, #8
   86742:	f241 550c 	movw	r5, #5388	; 0x150c
   86746:	f2c2 0507 	movt	r5, #8199	; 0x2007
   8674a:	4620      	mov	r0, r4
   8674c:	47b0      	blx	r6
   8674e:	f104 0401 	add.w	r4, r4, #1
   86752:	b2e4      	uxtb	r4, r4
   86754:	6829      	ldr	r1, [r5, #0]
   86756:	680a      	ldr	r2, [r1, #0]
   86758:	7913      	ldrb	r3, [r2, #4]
   8675a:	42a3      	cmp	r3, r4
   8675c:	d8f5      	bhi.n	8674a <udc_reset+0x32>
   8675e:	f241 5015 	movw	r0, #5397	; 0x1515
   86762:	f2c2 0007 	movt	r0, #8199	; 0x2007
   86766:	f04f 0100 	mov.w	r1, #0
   8676a:	7001      	strb	r1, [r0, #0]
   8676c:	f241 5312 	movw	r3, #5394	; 0x1512
   86770:	f2c2 0307 	movt	r3, #8199	; 0x2007
   86774:	f04f 0201 	mov.w	r2, #1
   86778:	801a      	strh	r2, [r3, #0]
   8677a:	bd70      	pop	{r4, r5, r6, pc}

0008677c <udc_sof_notify>:
   8677c:	b538      	push	{r3, r4, r5, lr}
   8677e:	f241 5315 	movw	r3, #5397	; 0x1515
   86782:	f2c2 0307 	movt	r3, #8199	; 0x2007
   86786:	7818      	ldrb	r0, [r3, #0]
   86788:	b1d8      	cbz	r0, 867c2 <udc_sof_notify+0x46>
   8678a:	f241 510c 	movw	r1, #5388	; 0x150c
   8678e:	f2c2 0107 	movt	r1, #8199	; 0x2007
   86792:	680b      	ldr	r3, [r1, #0]
   86794:	681a      	ldr	r2, [r3, #0]
   86796:	7910      	ldrb	r0, [r2, #4]
   86798:	b198      	cbz	r0, 867c2 <udc_sof_notify+0x46>
   8679a:	f04f 0400 	mov.w	r4, #0
   8679e:	f241 550c 	movw	r5, #5388	; 0x150c
   867a2:	f2c2 0507 	movt	r5, #8199	; 0x2007
   867a6:	685b      	ldr	r3, [r3, #4]
   867a8:	f853 1024 	ldr.w	r1, [r3, r4, lsl #2]
   867ac:	690a      	ldr	r2, [r1, #16]
   867ae:	b102      	cbz	r2, 867b2 <udc_sof_notify+0x36>
   867b0:	4790      	blx	r2
   867b2:	f104 0401 	add.w	r4, r4, #1
   867b6:	b2e4      	uxtb	r4, r4
   867b8:	682b      	ldr	r3, [r5, #0]
   867ba:	6818      	ldr	r0, [r3, #0]
   867bc:	7901      	ldrb	r1, [r0, #4]
   867be:	42a1      	cmp	r1, r4
   867c0:	d8f1      	bhi.n	867a6 <udc_sof_notify+0x2a>
   867c2:	bd38      	pop	{r3, r4, r5, pc}

000867c4 <udc_process_setup>:
   867c4:	b5f8      	push	{r3, r4, r5, r6, r7, lr}
   867c6:	f641 4318 	movw	r3, #7192	; 0x1c18
   867ca:	f2c2 0307 	movt	r3, #8199	; 0x2007
   867ce:	f04f 0200 	mov.w	r2, #0
   867d2:	819a      	strh	r2, [r3, #12]
   867d4:	611a      	str	r2, [r3, #16]
   867d6:	615a      	str	r2, [r3, #20]
   867d8:	7818      	ldrb	r0, [r3, #0]
   867da:	f010 0f80 	tst.w	r0, #128	; 0x80
   867de:	f000 83da 	beq.w	86f96 <udc_process_setup+0x7d2>
   867e2:	f641 4118 	movw	r1, #7192	; 0x1c18
   867e6:	f2c2 0107 	movt	r1, #8199	; 0x2007
   867ea:	88ca      	ldrh	r2, [r1, #6]
   867ec:	2a00      	cmp	r2, #0
   867ee:	f040 83d7 	bne.w	86fa0 <udc_process_setup+0x7dc>
   867f2:	e3c4      	b.n	86f7e <udc_process_setup+0x7ba>
   867f4:	f010 031f 	ands.w	r3, r0, #31
   867f8:	f040 8115 	bne.w	86a26 <udc_process_setup+0x262>
   867fc:	f641 4018 	movw	r0, #7192	; 0x1c18
   86800:	f2c2 0007 	movt	r0, #8199	; 0x2007
   86804:	7841      	ldrb	r1, [r0, #1]
   86806:	2906      	cmp	r1, #6
   86808:	d018      	beq.n	8683c <udc_process_setup+0x78>
   8680a:	2908      	cmp	r1, #8
   8680c:	f000 80f8 	beq.w	86a00 <udc_process_setup+0x23c>
   86810:	2900      	cmp	r1, #0
   86812:	f040 8108 	bne.w	86a26 <udc_process_setup+0x262>
   86816:	2a02      	cmp	r2, #2
   86818:	d10d      	bne.n	86836 <udc_process_setup+0x72>
   8681a:	f241 5012 	movw	r0, #5394	; 0x1512
   8681e:	f2c2 0007 	movt	r0, #8199	; 0x2007
   86822:	f04f 0102 	mov.w	r1, #2
   86826:	f648 137d 	movw	r3, #35197	; 0x897d
   8682a:	f2c0 0308 	movt	r3, #8
   8682e:	4798      	blx	r3
   86830:	f04f 0001 	mov.w	r0, #1
   86834:	e328      	b.n	86e88 <udc_process_setup+0x6c4>
   86836:	f04f 0000 	mov.w	r0, #0
   8683a:	e325      	b.n	86e88 <udc_process_setup+0x6c4>
   8683c:	f641 4418 	movw	r4, #7192	; 0x1c18
   86840:	f2c2 0407 	movt	r4, #8199	; 0x2007
   86844:	8860      	ldrh	r0, [r4, #2]
   86846:	b2c4      	uxtb	r4, r0
   86848:	ea4f 2110 	mov.w	r1, r0, lsr #8
   8684c:	f101 33ff 	add.w	r3, r1, #4294967295
   86850:	2b06      	cmp	r3, #6
   86852:	f200 80c3 	bhi.w	869dc <udc_process_setup+0x218>
   86856:	e8df f013 	tbh	[pc, r3, lsl #1]
   8685a:	0007      	.short	0x0007
   8685c:	0078001b 	.word	0x0078001b
   86860:	00c100c1 	.word	0x00c100c1
   86864:	00510044 	.word	0x00510044
   86868:	f648 1205 	movw	r2, #35077	; 0x8905
   8686c:	f2c0 0208 	movt	r2, #8
   86870:	4790      	blx	r2
   86872:	b930      	cbnz	r0, 86882 <udc_process_setup+0xbe>
   86874:	48a3      	ldr	r0, [pc, #652]	; (86b04 <udc_process_setup+0x340>)
   86876:	6883      	ldr	r3, [r0, #8]
   86878:	4618      	mov	r0, r3
   8687a:	7819      	ldrb	r1, [r3, #0]
   8687c:	4aa2      	ldr	r2, [pc, #648]	; (86b08 <udc_process_setup+0x344>)
   8687e:	4790      	blx	r2
   86880:	e09c      	b.n	869bc <udc_process_setup+0x1f8>
   86882:	4ba0      	ldr	r3, [pc, #640]	; (86b04 <udc_process_setup+0x340>)
   86884:	6819      	ldr	r1, [r3, #0]
   86886:	4608      	mov	r0, r1
   86888:	7809      	ldrb	r1, [r1, #0]
   8688a:	4a9f      	ldr	r2, [pc, #636]	; (86b08 <udc_process_setup+0x344>)
   8688c:	4790      	blx	r2
   8688e:	e095      	b.n	869bc <udc_process_setup+0x1f8>
   86890:	f648 1105 	movw	r1, #35077	; 0x8905
   86894:	f2c0 0108 	movt	r1, #8
   86898:	4788      	blx	r1
   8689a:	b170      	cbz	r0, 868ba <udc_process_setup+0xf6>
   8689c:	4899      	ldr	r0, [pc, #612]	; (86b04 <udc_process_setup+0x340>)
   8689e:	6881      	ldr	r1, [r0, #8]
   868a0:	7c4a      	ldrb	r2, [r1, #17]
   868a2:	42a2      	cmp	r2, r4
   868a4:	f240 809d 	bls.w	869e2 <udc_process_setup+0x21e>
   868a8:	4b96      	ldr	r3, [pc, #600]	; (86b04 <udc_process_setup+0x340>)
   868aa:	6918      	ldr	r0, [r3, #16]
   868ac:	f850 1034 	ldr.w	r1, [r0, r4, lsl #3]
   868b0:	4608      	mov	r0, r1
   868b2:	8849      	ldrh	r1, [r1, #2]
   868b4:	4a94      	ldr	r2, [pc, #592]	; (86b08 <udc_process_setup+0x344>)
   868b6:	4790      	blx	r2
   868b8:	e00d      	b.n	868d6 <udc_process_setup+0x112>
   868ba:	4b92      	ldr	r3, [pc, #584]	; (86b04 <udc_process_setup+0x340>)
   868bc:	681a      	ldr	r2, [r3, #0]
   868be:	7c50      	ldrb	r0, [r2, #17]
   868c0:	42a0      	cmp	r0, r4
   868c2:	f240 8091 	bls.w	869e8 <udc_process_setup+0x224>
   868c6:	498f      	ldr	r1, [pc, #572]	; (86b04 <udc_process_setup+0x340>)
   868c8:	684b      	ldr	r3, [r1, #4]
   868ca:	f853 2034 	ldr.w	r2, [r3, r4, lsl #3]
   868ce:	4610      	mov	r0, r2
   868d0:	8851      	ldrh	r1, [r2, #2]
   868d2:	4b8d      	ldr	r3, [pc, #564]	; (86b08 <udc_process_setup+0x344>)
   868d4:	4798      	blx	r3
   868d6:	4b8d      	ldr	r3, [pc, #564]	; (86b0c <udc_process_setup+0x348>)
   868d8:	6898      	ldr	r0, [r3, #8]
   868da:	f04f 0102 	mov.w	r1, #2
   868de:	7041      	strb	r1, [r0, #1]
   868e0:	e06c      	b.n	869bc <udc_process_setup+0x1f8>
   868e2:	f240 1368 	movw	r3, #360	; 0x168
   868e6:	f2c2 0307 	movt	r3, #8199	; 0x2007
   868ea:	68d9      	ldr	r1, [r3, #12]
   868ec:	4608      	mov	r0, r1
   868ee:	7809      	ldrb	r1, [r1, #0]
   868f0:	f648 127d 	movw	r2, #35197	; 0x897d
   868f4:	f2c0 0208 	movt	r2, #8
   868f8:	4790      	blx	r2
   868fa:	e05f      	b.n	869bc <udc_process_setup+0x1f8>
   868fc:	f648 1205 	movw	r2, #35077	; 0x8905
   86900:	f2c0 0208 	movt	r2, #8
   86904:	4790      	blx	r2
   86906:	b968      	cbnz	r0, 86924 <udc_process_setup+0x160>
   86908:	4a7e      	ldr	r2, [pc, #504]	; (86b04 <udc_process_setup+0x340>)
   8690a:	6890      	ldr	r0, [r2, #8]
   8690c:	7c41      	ldrb	r1, [r0, #17]
   8690e:	42a1      	cmp	r1, r4
   86910:	d96d      	bls.n	869ee <udc_process_setup+0x22a>
   86912:	4b7c      	ldr	r3, [pc, #496]	; (86b04 <udc_process_setup+0x340>)
   86914:	691a      	ldr	r2, [r3, #16]
   86916:	f852 1034 	ldr.w	r1, [r2, r4, lsl #3]
   8691a:	4608      	mov	r0, r1
   8691c:	8849      	ldrh	r1, [r1, #2]
   8691e:	4b7a      	ldr	r3, [pc, #488]	; (86b08 <udc_process_setup+0x344>)
   86920:	4798      	blx	r3
   86922:	e00c      	b.n	8693e <udc_process_setup+0x17a>
   86924:	4877      	ldr	r0, [pc, #476]	; (86b04 <udc_process_setup+0x340>)
   86926:	6801      	ldr	r1, [r0, #0]
   86928:	7c4b      	ldrb	r3, [r1, #17]
   8692a:	42a3      	cmp	r3, r4
   8692c:	d962      	bls.n	869f4 <udc_process_setup+0x230>
   8692e:	4a75      	ldr	r2, [pc, #468]	; (86b04 <udc_process_setup+0x340>)
   86930:	6850      	ldr	r0, [r2, #4]
   86932:	f850 1034 	ldr.w	r1, [r0, r4, lsl #3]
   86936:	4608      	mov	r0, r1
   86938:	8849      	ldrh	r1, [r1, #2]
   8693a:	4b73      	ldr	r3, [pc, #460]	; (86b08 <udc_process_setup+0x344>)
   8693c:	4798      	blx	r3
   8693e:	4873      	ldr	r0, [pc, #460]	; (86b0c <udc_process_setup+0x348>)
   86940:	6881      	ldr	r1, [r0, #8]
   86942:	f04f 0207 	mov.w	r2, #7
   86946:	704a      	strb	r2, [r1, #1]
   86948:	e038      	b.n	869bc <udc_process_setup+0x1f8>
   8694a:	b2c0      	uxtb	r0, r0
   8694c:	2803      	cmp	r0, #3
   8694e:	d80b      	bhi.n	86968 <udc_process_setup+0x1a4>
   86950:	e8df f010 	tbh	[pc, r0, lsl #1]
   86954:	000e0004 	.word	0x000e0004
   86958:	032f032b 	.word	0x032f032b
   8695c:	486c      	ldr	r0, [pc, #432]	; (86b10 <udc_process_setup+0x34c>)
   8695e:	f04f 0104 	mov.w	r1, #4
   86962:	4a69      	ldr	r2, [pc, #420]	; (86b08 <udc_process_setup+0x344>)
   86964:	4790      	blx	r2
   86966:	e029      	b.n	869bc <udc_process_setup+0x1f8>
   86968:	486a      	ldr	r0, [pc, #424]	; (86b14 <udc_process_setup+0x350>)
   8696a:	4780      	blx	r0
   8696c:	bb30      	cbnz	r0, 869bc <udc_process_setup+0x1f8>
   8696e:	e28b      	b.n	86e88 <udc_process_setup+0x6c4>
   86970:	4969      	ldr	r1, [pc, #420]	; (86b18 <udc_process_setup+0x354>)
   86972:	f04f 0008 	mov.w	r0, #8
   86976:	f04f 0300 	mov.w	r3, #0
   8697a:	4a68      	ldr	r2, [pc, #416]	; (86b1c <udc_process_setup+0x358>)
   8697c:	5ccc      	ldrb	r4, [r1, r3]
   8697e:	f822 4f02 	strh.w	r4, [r2, #2]!
   86982:	f103 0301 	add.w	r3, r3, #1
   86986:	2801      	cmp	r0, #1
   86988:	f200 8317 	bhi.w	86fba <udc_process_setup+0x7f6>
   8698c:	e00e      	b.n	869ac <udc_process_setup+0x1e8>
   8698e:	f102 0402 	add.w	r4, r2, #2
   86992:	5ccd      	ldrb	r5, [r1, r3]
   86994:	8055      	strh	r5, [r2, #2]
   86996:	f103 0301 	add.w	r3, r3, #1
   8699a:	f102 0204 	add.w	r2, r2, #4
   8699e:	5ccd      	ldrb	r5, [r1, r3]
   869a0:	8065      	strh	r5, [r4, #2]
   869a2:	f103 0301 	add.w	r3, r3, #1
   869a6:	b2dc      	uxtb	r4, r3
   869a8:	4284      	cmp	r4, r0
   869aa:	d3f0      	bcc.n	8698e <udc_process_setup+0x1ca>
   869ac:	ea4f 0140 	mov.w	r1, r0, lsl #1
   869b0:	f101 0102 	add.w	r1, r1, #2
   869b4:	4859      	ldr	r0, [pc, #356]	; (86b1c <udc_process_setup+0x358>)
   869b6:	7001      	strb	r1, [r0, #0]
   869b8:	4b53      	ldr	r3, [pc, #332]	; (86b08 <udc_process_setup+0x344>)
   869ba:	4798      	blx	r3
   869bc:	f641 4118 	movw	r1, #7192	; 0x1c18
   869c0:	f2c2 0107 	movt	r1, #8199	; 0x2007
   869c4:	88c8      	ldrh	r0, [r1, #6]
   869c6:	898b      	ldrh	r3, [r1, #12]
   869c8:	4283      	cmp	r3, r0
   869ca:	d916      	bls.n	869fa <udc_process_setup+0x236>
   869cc:	f641 4218 	movw	r2, #7192	; 0x1c18
   869d0:	f2c2 0207 	movt	r2, #8199	; 0x2007
   869d4:	8190      	strh	r0, [r2, #12]
   869d6:	f04f 0001 	mov.w	r0, #1
   869da:	e255      	b.n	86e88 <udc_process_setup+0x6c4>
   869dc:	f04f 0000 	mov.w	r0, #0
   869e0:	e252      	b.n	86e88 <udc_process_setup+0x6c4>
   869e2:	f04f 0000 	mov.w	r0, #0
   869e6:	e24f      	b.n	86e88 <udc_process_setup+0x6c4>
   869e8:	f04f 0000 	mov.w	r0, #0
   869ec:	e24c      	b.n	86e88 <udc_process_setup+0x6c4>
   869ee:	f04f 0000 	mov.w	r0, #0
   869f2:	e249      	b.n	86e88 <udc_process_setup+0x6c4>
   869f4:	f04f 0000 	mov.w	r0, #0
   869f8:	e246      	b.n	86e88 <udc_process_setup+0x6c4>
   869fa:	f04f 0001 	mov.w	r0, #1
   869fe:	e243      	b.n	86e88 <udc_process_setup+0x6c4>
   86a00:	2a01      	cmp	r2, #1
   86a02:	d10d      	bne.n	86a20 <udc_process_setup+0x25c>
   86a04:	f241 5015 	movw	r0, #5397	; 0x1515
   86a08:	f2c2 0007 	movt	r0, #8199	; 0x2007
   86a0c:	f04f 0101 	mov.w	r1, #1
   86a10:	f648 127d 	movw	r2, #35197	; 0x897d
   86a14:	f2c0 0208 	movt	r2, #8
   86a18:	4790      	blx	r2
   86a1a:	f04f 0001 	mov.w	r0, #1
   86a1e:	e233      	b.n	86e88 <udc_process_setup+0x6c4>
   86a20:	f04f 0000 	mov.w	r0, #0
   86a24:	e230      	b.n	86e88 <udc_process_setup+0x6c4>
   86a26:	2b01      	cmp	r3, #1
   86a28:	d134      	bne.n	86a94 <udc_process_setup+0x2d0>
   86a2a:	f641 4018 	movw	r0, #7192	; 0x1c18
   86a2e:	f2c2 0007 	movt	r0, #8199	; 0x2007
   86a32:	7841      	ldrb	r1, [r0, #1]
   86a34:	290a      	cmp	r1, #10
   86a36:	d12d      	bne.n	86a94 <udc_process_setup+0x2d0>
   86a38:	2a01      	cmp	r2, #1
   86a3a:	d11f      	bne.n	86a7c <udc_process_setup+0x2b8>
   86a3c:	4838      	ldr	r0, [pc, #224]	; (86b20 <udc_process_setup+0x35c>)
   86a3e:	7801      	ldrb	r1, [r0, #0]
   86a40:	b1f9      	cbz	r1, 86a82 <udc_process_setup+0x2be>
   86a42:	4c32      	ldr	r4, [pc, #200]	; (86b0c <udc_process_setup+0x348>)
   86a44:	7924      	ldrb	r4, [r4, #4]
   86a46:	4d37      	ldr	r5, [pc, #220]	; (86b24 <udc_process_setup+0x360>)
   86a48:	682d      	ldr	r5, [r5, #0]
   86a4a:	682b      	ldr	r3, [r5, #0]
   86a4c:	791a      	ldrb	r2, [r3, #4]
   86a4e:	42a2      	cmp	r2, r4
   86a50:	d91a      	bls.n	86a88 <udc_process_setup+0x2c4>
   86a52:	4620      	mov	r0, r4
   86a54:	f04f 0100 	mov.w	r1, #0
   86a58:	4b33      	ldr	r3, [pc, #204]	; (86b28 <udc_process_setup+0x364>)
   86a5a:	4798      	blx	r3
   86a5c:	b1b8      	cbz	r0, 86a8e <udc_process_setup+0x2ca>
   86a5e:	6868      	ldr	r0, [r5, #4]
   86a60:	f850 1024 	ldr.w	r1, [r0, r4, lsl #2]
   86a64:	68ca      	ldr	r2, [r1, #12]
   86a66:	4790      	blx	r2
   86a68:	4b30      	ldr	r3, [pc, #192]	; (86b2c <udc_process_setup+0x368>)
   86a6a:	7018      	strb	r0, [r3, #0]
   86a6c:	4618      	mov	r0, r3
   86a6e:	f04f 0101 	mov.w	r1, #1
   86a72:	4a25      	ldr	r2, [pc, #148]	; (86b08 <udc_process_setup+0x344>)
   86a74:	4790      	blx	r2
   86a76:	f04f 0001 	mov.w	r0, #1
   86a7a:	e205      	b.n	86e88 <udc_process_setup+0x6c4>
   86a7c:	f04f 0000 	mov.w	r0, #0
   86a80:	e202      	b.n	86e88 <udc_process_setup+0x6c4>
   86a82:	f04f 0000 	mov.w	r0, #0
   86a86:	e1ff      	b.n	86e88 <udc_process_setup+0x6c4>
   86a88:	f04f 0000 	mov.w	r0, #0
   86a8c:	e1fc      	b.n	86e88 <udc_process_setup+0x6c4>
   86a8e:	f04f 0000 	mov.w	r0, #0
   86a92:	e1f9      	b.n	86e88 <udc_process_setup+0x6c4>
   86a94:	2b02      	cmp	r3, #2
   86a96:	f040 81f9 	bne.w	86e8c <udc_process_setup+0x6c8>
   86a9a:	f641 4318 	movw	r3, #7192	; 0x1c18
   86a9e:	f2c2 0307 	movt	r3, #8199	; 0x2007
   86aa2:	7858      	ldrb	r0, [r3, #1]
   86aa4:	2800      	cmp	r0, #0
   86aa6:	f040 81d5 	bne.w	86e54 <udc_process_setup+0x690>
   86aaa:	2a02      	cmp	r2, #2
   86aac:	d10d      	bne.n	86aca <udc_process_setup+0x306>
   86aae:	4a17      	ldr	r2, [pc, #92]	; (86b0c <udc_process_setup+0x348>)
   86ab0:	7910      	ldrb	r0, [r2, #4]
   86ab2:	491f      	ldr	r1, [pc, #124]	; (86b30 <udc_process_setup+0x36c>)
   86ab4:	4788      	blx	r1
   86ab6:	4b1f      	ldr	r3, [pc, #124]	; (86b34 <udc_process_setup+0x370>)
   86ab8:	8018      	strh	r0, [r3, #0]
   86aba:	4618      	mov	r0, r3
   86abc:	f04f 0102 	mov.w	r1, #2
   86ac0:	4a11      	ldr	r2, [pc, #68]	; (86b08 <udc_process_setup+0x344>)
   86ac2:	4790      	blx	r2
   86ac4:	f04f 0001 	mov.w	r0, #1
   86ac8:	e1de      	b.n	86e88 <udc_process_setup+0x6c4>
   86aca:	f04f 0000 	mov.w	r0, #0
   86ace:	e1db      	b.n	86e88 <udc_process_setup+0x6c4>
   86ad0:	f010 031f 	ands.w	r3, r0, #31
   86ad4:	f040 8142 	bne.w	86d5c <udc_process_setup+0x598>
   86ad8:	f641 4118 	movw	r1, #7192	; 0x1c18
   86adc:	f2c2 0107 	movt	r1, #8199	; 0x2007
   86ae0:	784a      	ldrb	r2, [r1, #1]
   86ae2:	f102 30ff 	add.w	r0, r2, #4294967295
   86ae6:	2808      	cmp	r0, #8
   86ae8:	f200 8138 	bhi.w	86d5c <udc_process_setup+0x598>
   86aec:	e8df f010 	tbh	[pc, r0, lsl #1]
   86af0:	01360039 	.word	0x01360039
   86af4:	01360057 	.word	0x01360057
   86af8:	01360024 	.word	0x01360024
   86afc:	01360136 	.word	0x01360136
   86b00:	00ae      	.short	0x00ae
   86b02:	bf00      	nop
   86b04:	20070168 	.word	0x20070168
   86b08:	0008897d 	.word	0x0008897d
   86b0c:	20071c18 	.word	0x20071c18
   86b10:	20070294 	.word	0x20070294
   86b14:	00084b0d 	.word	0x00084b0d
   86b18:	20070268 	.word	0x20070268
   86b1c:	20070274 	.word	0x20070274
   86b20:	20071515 	.word	0x20071515
   86b24:	2007150c 	.word	0x2007150c
   86b28:	00086569 	.word	0x00086569
   86b2c:	20071514 	.word	0x20071514
   86b30:	000889f1 	.word	0x000889f1
   86b34:	20071510 	.word	0x20071510
   86b38:	f641 4018 	movw	r0, #7192	; 0x1c18
   86b3c:	f2c2 0007 	movt	r0, #8199	; 0x2007
   86b40:	88c1      	ldrh	r1, [r0, #6]
   86b42:	b959      	cbnz	r1, 86b5c <udc_process_setup+0x398>
   86b44:	f641 4318 	movw	r3, #7192	; 0x1c18
   86b48:	f2c2 0307 	movt	r3, #8199	; 0x2007
   86b4c:	f246 52f5 	movw	r2, #26101	; 0x65f5
   86b50:	f2c0 0208 	movt	r2, #8
   86b54:	611a      	str	r2, [r3, #16]
   86b56:	f04f 0001 	mov.w	r0, #1
   86b5a:	e195      	b.n	86e88 <udc_process_setup+0x6c4>
   86b5c:	f04f 0000 	mov.w	r0, #0
   86b60:	e192      	b.n	86e88 <udc_process_setup+0x6c4>
   86b62:	f641 4218 	movw	r2, #7192	; 0x1c18
   86b66:	f2c2 0207 	movt	r2, #8199	; 0x2007
   86b6a:	88d1      	ldrh	r1, [r2, #6]
   86b6c:	b989      	cbnz	r1, 86b92 <udc_process_setup+0x3ce>
   86b6e:	f641 4018 	movw	r0, #7192	; 0x1c18
   86b72:	f2c2 0007 	movt	r0, #8199	; 0x2007
   86b76:	8843      	ldrh	r3, [r0, #2]
   86b78:	2b01      	cmp	r3, #1
   86b7a:	d10d      	bne.n	86b98 <udc_process_setup+0x3d4>
   86b7c:	f241 5112 	movw	r1, #5394	; 0x1512
   86b80:	f2c2 0107 	movt	r1, #8199	; 0x2007
   86b84:	880a      	ldrh	r2, [r1, #0]
   86b86:	f022 0002 	bic.w	r0, r2, #2
   86b8a:	8008      	strh	r0, [r1, #0]
   86b8c:	f04f 0001 	mov.w	r0, #1
   86b90:	e17a      	b.n	86e88 <udc_process_setup+0x6c4>
   86b92:	f04f 0000 	mov.w	r0, #0
   86b96:	e177      	b.n	86e88 <udc_process_setup+0x6c4>
   86b98:	f04f 0000 	mov.w	r0, #0
   86b9c:	e174      	b.n	86e88 <udc_process_setup+0x6c4>
   86b9e:	f641 4018 	movw	r0, #7192	; 0x1c18
   86ba2:	f2c2 0007 	movt	r0, #8199	; 0x2007
   86ba6:	88c1      	ldrh	r1, [r0, #6]
   86ba8:	2900      	cmp	r1, #0
   86baa:	d140      	bne.n	86c2e <udc_process_setup+0x46a>
   86bac:	f641 4318 	movw	r3, #7192	; 0x1c18
   86bb0:	f2c2 0307 	movt	r3, #8199	; 0x2007
   86bb4:	885a      	ldrh	r2, [r3, #2]
   86bb6:	2a02      	cmp	r2, #2
   86bb8:	d13c      	bne.n	86c34 <udc_process_setup+0x470>
   86bba:	f648 1005 	movw	r0, #35077	; 0x8905
   86bbe:	f2c0 0008 	movt	r0, #8
   86bc2:	4780      	blx	r0
   86bc4:	2800      	cmp	r0, #0
   86bc6:	d038      	beq.n	86c3a <udc_process_setup+0x476>
   86bc8:	f641 4118 	movw	r1, #7192	; 0x1c18
   86bcc:	f2c2 0107 	movt	r1, #8199	; 0x2007
   86bd0:	790b      	ldrb	r3, [r1, #4]
   86bd2:	2b00      	cmp	r3, #0
   86bd4:	d134      	bne.n	86c40 <udc_process_setup+0x47c>
   86bd6:	f246 7219 	movw	r2, #26393	; 0x6719
   86bda:	f2c0 0208 	movt	r2, #8
   86bde:	4790      	blx	r2
   86be0:	f641 4018 	movw	r0, #7192	; 0x1c18
   86be4:	f2c2 0007 	movt	r0, #8199	; 0x2007
   86be8:	8881      	ldrh	r1, [r0, #4]
   86bea:	ea4f 2311 	mov.w	r3, r1, lsr #8
   86bee:	f103 30ff 	add.w	r0, r3, #4294967295
   86bf2:	2803      	cmp	r0, #3
   86bf4:	d827      	bhi.n	86c46 <udc_process_setup+0x482>
   86bf6:	e8df f000 	tbb	[pc, r0]
   86bfa:	0802      	.short	0x0802
   86bfc:	140e      	.short	0x140e
   86bfe:	4897      	ldr	r0, [pc, #604]	; (86e5c <udc_process_setup+0x698>)
   86c00:	4b97      	ldr	r3, [pc, #604]	; (86e60 <udc_process_setup+0x69c>)
   86c02:	6118      	str	r0, [r3, #16]
   86c04:	f04f 0001 	mov.w	r0, #1
   86c08:	e13e      	b.n	86e88 <udc_process_setup+0x6c4>
   86c0a:	4a96      	ldr	r2, [pc, #600]	; (86e64 <udc_process_setup+0x6a0>)
   86c0c:	4994      	ldr	r1, [pc, #592]	; (86e60 <udc_process_setup+0x69c>)
   86c0e:	610a      	str	r2, [r1, #16]
   86c10:	f04f 0001 	mov.w	r0, #1
   86c14:	e138      	b.n	86e88 <udc_process_setup+0x6c4>
   86c16:	4894      	ldr	r0, [pc, #592]	; (86e68 <udc_process_setup+0x6a4>)
   86c18:	4b91      	ldr	r3, [pc, #580]	; (86e60 <udc_process_setup+0x69c>)
   86c1a:	6118      	str	r0, [r3, #16]
   86c1c:	f04f 0001 	mov.w	r0, #1
   86c20:	e132      	b.n	86e88 <udc_process_setup+0x6c4>
   86c22:	4a92      	ldr	r2, [pc, #584]	; (86e6c <udc_process_setup+0x6a8>)
   86c24:	498e      	ldr	r1, [pc, #568]	; (86e60 <udc_process_setup+0x69c>)
   86c26:	610a      	str	r2, [r1, #16]
   86c28:	f04f 0001 	mov.w	r0, #1
   86c2c:	e12c      	b.n	86e88 <udc_process_setup+0x6c4>
   86c2e:	f04f 0000 	mov.w	r0, #0
   86c32:	e129      	b.n	86e88 <udc_process_setup+0x6c4>
   86c34:	f04f 0000 	mov.w	r0, #0
   86c38:	e126      	b.n	86e88 <udc_process_setup+0x6c4>
   86c3a:	f04f 0000 	mov.w	r0, #0
   86c3e:	e123      	b.n	86e88 <udc_process_setup+0x6c4>
   86c40:	f04f 0000 	mov.w	r0, #0
   86c44:	e120      	b.n	86e88 <udc_process_setup+0x6c4>
   86c46:	f04f 0000 	mov.w	r0, #0
   86c4a:	e11d      	b.n	86e88 <udc_process_setup+0x6c4>
   86c4c:	f641 4318 	movw	r3, #7192	; 0x1c18
   86c50:	f2c2 0307 	movt	r3, #8199	; 0x2007
   86c54:	88d9      	ldrh	r1, [r3, #6]
   86c56:	2900      	cmp	r1, #0
   86c58:	d16e      	bne.n	86d38 <udc_process_setup+0x574>
   86c5a:	f648 1249 	movw	r2, #35145	; 0x8949
   86c5e:	f2c0 0208 	movt	r2, #8
   86c62:	4790      	blx	r2
   86c64:	2800      	cmp	r0, #0
   86c66:	d06a      	beq.n	86d3e <udc_process_setup+0x57a>
   86c68:	f648 1005 	movw	r0, #35077	; 0x8905
   86c6c:	f2c0 0008 	movt	r0, #8
   86c70:	4780      	blx	r0
   86c72:	b168      	cbz	r0, 86c90 <udc_process_setup+0x4cc>
   86c74:	f641 4118 	movw	r1, #7192	; 0x1c18
   86c78:	f2c2 0107 	movt	r1, #8199	; 0x2007
   86c7c:	788a      	ldrb	r2, [r1, #2]
   86c7e:	f240 1068 	movw	r0, #360	; 0x168
   86c82:	f2c2 0007 	movt	r0, #8199	; 0x2007
   86c86:	6883      	ldr	r3, [r0, #8]
   86c88:	7c59      	ldrb	r1, [r3, #17]
   86c8a:	428a      	cmp	r2, r1
   86c8c:	dd0d      	ble.n	86caa <udc_process_setup+0x4e6>
   86c8e:	e059      	b.n	86d44 <udc_process_setup+0x580>
   86c90:	f641 4318 	movw	r3, #7192	; 0x1c18
   86c94:	f2c2 0307 	movt	r3, #8199	; 0x2007
   86c98:	7899      	ldrb	r1, [r3, #2]
   86c9a:	f240 1268 	movw	r2, #360	; 0x168
   86c9e:	f2c2 0207 	movt	r2, #8199	; 0x2007
   86ca2:	6810      	ldr	r0, [r2, #0]
   86ca4:	7c43      	ldrb	r3, [r0, #17]
   86ca6:	4299      	cmp	r1, r3
   86ca8:	dc4f      	bgt.n	86d4a <udc_process_setup+0x586>
   86caa:	f246 7219 	movw	r2, #26393	; 0x6719
   86cae:	f2c0 0208 	movt	r2, #8
   86cb2:	4790      	blx	r2
   86cb4:	f641 4018 	movw	r0, #7192	; 0x1c18
   86cb8:	f2c2 0007 	movt	r0, #8199	; 0x2007
   86cbc:	7883      	ldrb	r3, [r0, #2]
   86cbe:	f241 5115 	movw	r1, #5397	; 0x1515
   86cc2:	f2c2 0107 	movt	r1, #8199	; 0x2007
   86cc6:	700b      	strb	r3, [r1, #0]
   86cc8:	2b00      	cmp	r3, #0
   86cca:	d041      	beq.n	86d50 <udc_process_setup+0x58c>
   86ccc:	4a68      	ldr	r2, [pc, #416]	; (86e70 <udc_process_setup+0x6ac>)
   86cce:	4790      	blx	r2
   86cd0:	b198      	cbz	r0, 86cfa <udc_process_setup+0x536>
   86cd2:	4a68      	ldr	r2, [pc, #416]	; (86e74 <udc_process_setup+0x6b0>)
   86cd4:	7810      	ldrb	r0, [r2, #0]
   86cd6:	f100 31ff 	add.w	r1, r0, #4294967295
   86cda:	4b67      	ldr	r3, [pc, #412]	; (86e78 <udc_process_setup+0x6b4>)
   86cdc:	691a      	ldr	r2, [r3, #16]
   86cde:	eb02 00c1 	add.w	r0, r2, r1, lsl #3
   86ce2:	4966      	ldr	r1, [pc, #408]	; (86e7c <udc_process_setup+0x6b8>)
   86ce4:	6008      	str	r0, [r1, #0]
   86ce6:	4b65      	ldr	r3, [pc, #404]	; (86e7c <udc_process_setup+0x6b8>)
   86ce8:	681a      	ldr	r2, [r3, #0]
   86cea:	6810      	ldr	r0, [r2, #0]
   86cec:	7901      	ldrb	r1, [r0, #4]
   86cee:	f04f 0001 	mov.w	r0, #1
   86cf2:	2900      	cmp	r1, #0
   86cf4:	f000 80c8 	beq.w	86e88 <udc_process_setup+0x6c4>
   86cf8:	e00a      	b.n	86d10 <udc_process_setup+0x54c>
   86cfa:	485e      	ldr	r0, [pc, #376]	; (86e74 <udc_process_setup+0x6b0>)
   86cfc:	7803      	ldrb	r3, [r0, #0]
   86cfe:	f103 31ff 	add.w	r1, r3, #4294967295
   86d02:	4a5d      	ldr	r2, [pc, #372]	; (86e78 <udc_process_setup+0x6b4>)
   86d04:	6850      	ldr	r0, [r2, #4]
   86d06:	eb00 01c1 	add.w	r1, r0, r1, lsl #3
   86d0a:	4b5c      	ldr	r3, [pc, #368]	; (86e7c <udc_process_setup+0x6b8>)
   86d0c:	6019      	str	r1, [r3, #0]
   86d0e:	e7ea      	b.n	86ce6 <udc_process_setup+0x522>
   86d10:	f04f 0400 	mov.w	r4, #0
   86d14:	4626      	mov	r6, r4
   86d16:	4d5a      	ldr	r5, [pc, #360]	; (86e80 <udc_process_setup+0x6bc>)
   86d18:	4f58      	ldr	r7, [pc, #352]	; (86e7c <udc_process_setup+0x6b8>)
   86d1a:	4620      	mov	r0, r4
   86d1c:	4631      	mov	r1, r6
   86d1e:	47a8      	blx	r5
   86d20:	b1c8      	cbz	r0, 86d56 <udc_process_setup+0x592>
   86d22:	f104 0401 	add.w	r4, r4, #1
   86d26:	b2e4      	uxtb	r4, r4
   86d28:	683b      	ldr	r3, [r7, #0]
   86d2a:	681a      	ldr	r2, [r3, #0]
   86d2c:	7910      	ldrb	r0, [r2, #4]
   86d2e:	42a0      	cmp	r0, r4
   86d30:	d8f3      	bhi.n	86d1a <udc_process_setup+0x556>
   86d32:	f04f 0001 	mov.w	r0, #1
   86d36:	e0a7      	b.n	86e88 <udc_process_setup+0x6c4>
   86d38:	f04f 0000 	mov.w	r0, #0
   86d3c:	e0a4      	b.n	86e88 <udc_process_setup+0x6c4>
   86d3e:	f04f 0000 	mov.w	r0, #0
   86d42:	e0a1      	b.n	86e88 <udc_process_setup+0x6c4>
   86d44:	f04f 0000 	mov.w	r0, #0
   86d48:	e09e      	b.n	86e88 <udc_process_setup+0x6c4>
   86d4a:	f04f 0000 	mov.w	r0, #0
   86d4e:	e09b      	b.n	86e88 <udc_process_setup+0x6c4>
   86d50:	f04f 0001 	mov.w	r0, #1
   86d54:	e098      	b.n	86e88 <udc_process_setup+0x6c4>
   86d56:	f04f 0000 	mov.w	r0, #0
   86d5a:	e095      	b.n	86e88 <udc_process_setup+0x6c4>
   86d5c:	2b01      	cmp	r3, #1
   86d5e:	d12d      	bne.n	86dbc <udc_process_setup+0x5f8>
   86d60:	f641 4118 	movw	r1, #7192	; 0x1c18
   86d64:	f2c2 0107 	movt	r1, #8199	; 0x2007
   86d68:	784a      	ldrb	r2, [r1, #1]
   86d6a:	2a0b      	cmp	r2, #11
   86d6c:	d126      	bne.n	86dbc <udc_process_setup+0x5f8>
   86d6e:	f641 4018 	movw	r0, #7192	; 0x1c18
   86d72:	f2c2 0007 	movt	r0, #8199	; 0x2007
   86d76:	88c2      	ldrh	r2, [r0, #6]
   86d78:	b9ba      	cbnz	r2, 86daa <udc_process_setup+0x5e6>
   86d7a:	f241 5315 	movw	r3, #5397	; 0x1515
   86d7e:	f2c2 0307 	movt	r3, #8199	; 0x2007
   86d82:	7819      	ldrb	r1, [r3, #0]
   86d84:	b1a1      	cbz	r1, 86db0 <udc_process_setup+0x5ec>
   86d86:	f641 4518 	movw	r5, #7192	; 0x1c18
   86d8a:	f2c2 0507 	movt	r5, #8199	; 0x2007
   86d8e:	792c      	ldrb	r4, [r5, #4]
   86d90:	886d      	ldrh	r5, [r5, #2]
   86d92:	4620      	mov	r0, r4
   86d94:	f246 627d 	movw	r2, #26237	; 0x667d
   86d98:	f2c0 0208 	movt	r2, #8
   86d9c:	4790      	blx	r2
   86d9e:	b150      	cbz	r0, 86db6 <udc_process_setup+0x5f2>
   86da0:	4620      	mov	r0, r4
   86da2:	b2e9      	uxtb	r1, r5
   86da4:	4b36      	ldr	r3, [pc, #216]	; (86e80 <udc_process_setup+0x6bc>)
   86da6:	4798      	blx	r3
   86da8:	e06e      	b.n	86e88 <udc_process_setup+0x6c4>
   86daa:	f04f 0000 	mov.w	r0, #0
   86dae:	e06b      	b.n	86e88 <udc_process_setup+0x6c4>
   86db0:	f04f 0000 	mov.w	r0, #0
   86db4:	e068      	b.n	86e88 <udc_process_setup+0x6c4>
   86db6:	f04f 0000 	mov.w	r0, #0
   86dba:	e065      	b.n	86e88 <udc_process_setup+0x6c4>
   86dbc:	2b02      	cmp	r3, #2
   86dbe:	d165      	bne.n	86e8c <udc_process_setup+0x6c8>
   86dc0:	f641 4318 	movw	r3, #7192	; 0x1c18
   86dc4:	f2c2 0307 	movt	r3, #8199	; 0x2007
   86dc8:	7858      	ldrb	r0, [r3, #1]
   86dca:	2801      	cmp	r0, #1
   86dcc:	d002      	beq.n	86dd4 <udc_process_setup+0x610>
   86dce:	2803      	cmp	r0, #3
   86dd0:	d158      	bne.n	86e84 <udc_process_setup+0x6c0>
   86dd2:	e01c      	b.n	86e0e <udc_process_setup+0x64a>
   86dd4:	f641 4318 	movw	r3, #7192	; 0x1c18
   86dd8:	f2c2 0307 	movt	r3, #8199	; 0x2007
   86ddc:	88d8      	ldrh	r0, [r3, #6]
   86dde:	b980      	cbnz	r0, 86e02 <udc_process_setup+0x63e>
   86de0:	f641 4118 	movw	r1, #7192	; 0x1c18
   86de4:	f2c2 0107 	movt	r1, #8199	; 0x2007
   86de8:	884a      	ldrh	r2, [r1, #2]
   86dea:	b96a      	cbnz	r2, 86e08 <udc_process_setup+0x644>
   86dec:	f641 4318 	movw	r3, #7192	; 0x1c18
   86df0:	f2c2 0307 	movt	r3, #8199	; 0x2007
   86df4:	7918      	ldrb	r0, [r3, #4]
   86df6:	f648 3131 	movw	r1, #35633	; 0x8b31
   86dfa:	f2c0 0108 	movt	r1, #8
   86dfe:	4788      	blx	r1
   86e00:	e042      	b.n	86e88 <udc_process_setup+0x6c4>
   86e02:	f04f 0000 	mov.w	r0, #0
   86e06:	e03f      	b.n	86e88 <udc_process_setup+0x6c4>
   86e08:	f04f 0000 	mov.w	r0, #0
   86e0c:	e03c      	b.n	86e88 <udc_process_setup+0x6c4>
   86e0e:	f641 4118 	movw	r1, #7192	; 0x1c18
   86e12:	f2c2 0107 	movt	r1, #8199	; 0x2007
   86e16:	88ca      	ldrh	r2, [r1, #6]
   86e18:	b9b2      	cbnz	r2, 86e48 <udc_process_setup+0x684>
   86e1a:	f641 4318 	movw	r3, #7192	; 0x1c18
   86e1e:	f2c2 0307 	movt	r3, #8199	; 0x2007
   86e22:	8858      	ldrh	r0, [r3, #2]
   86e24:	b998      	cbnz	r0, 86e4e <udc_process_setup+0x68a>
   86e26:	f641 4418 	movw	r4, #7192	; 0x1c18
   86e2a:	f2c2 0407 	movt	r4, #8199	; 0x2007
   86e2e:	7920      	ldrb	r0, [r4, #4]
   86e30:	f249 212d 	movw	r1, #37421	; 0x922d
   86e34:	f2c0 0108 	movt	r1, #8
   86e38:	4788      	blx	r1
   86e3a:	7920      	ldrb	r0, [r4, #4]
   86e3c:	f648 2209 	movw	r2, #35337	; 0x8a09
   86e40:	f2c0 0208 	movt	r2, #8
   86e44:	4790      	blx	r2
   86e46:	e01f      	b.n	86e88 <udc_process_setup+0x6c4>
   86e48:	f04f 0000 	mov.w	r0, #0
   86e4c:	e01c      	b.n	86e88 <udc_process_setup+0x6c4>
   86e4e:	f04f 0000 	mov.w	r0, #0
   86e52:	e019      	b.n	86e88 <udc_process_setup+0x6c4>
   86e54:	f04f 0000 	mov.w	r0, #0
   86e58:	e016      	b.n	86e88 <udc_process_setup+0x6c4>
   86e5a:	bf00      	nop
   86e5c:	00089331 	.word	0x00089331
   86e60:	20071c18 	.word	0x20071c18
   86e64:	00089351 	.word	0x00089351
   86e68:	00089371 	.word	0x00089371
   86e6c:	00089389 	.word	0x00089389
   86e70:	00088905 	.word	0x00088905
   86e74:	20071515 	.word	0x20071515
   86e78:	20070168 	.word	0x20070168
   86e7c:	2007150c 	.word	0x2007150c
   86e80:	00086611 	.word	0x00086611
   86e84:	f04f 0000 	mov.w	r0, #0
   86e88:	2800      	cmp	r0, #0
   86e8a:	d17b      	bne.n	86f84 <udc_process_setup+0x7c0>
   86e8c:	f641 4118 	movw	r1, #7192	; 0x1c18
   86e90:	f2c2 0107 	movt	r1, #8199	; 0x2007
   86e94:	7808      	ldrb	r0, [r1, #0]
   86e96:	f000 031f 	and.w	r3, r0, #31
   86e9a:	2b01      	cmp	r3, #1
   86e9c:	d12d      	bne.n	86efa <udc_process_setup+0x736>
   86e9e:	f241 5215 	movw	r2, #5397	; 0x1515
   86ea2:	f2c2 0207 	movt	r2, #8199	; 0x2007
   86ea6:	7811      	ldrb	r1, [r2, #0]
   86ea8:	b339      	cbz	r1, 86efa <udc_process_setup+0x736>
   86eaa:	f641 4418 	movw	r4, #7192	; 0x1c18
   86eae:	f2c2 0407 	movt	r4, #8199	; 0x2007
   86eb2:	7924      	ldrb	r4, [r4, #4]
   86eb4:	f241 550c 	movw	r5, #5388	; 0x150c
   86eb8:	f2c2 0507 	movt	r5, #8199	; 0x2007
   86ebc:	682d      	ldr	r5, [r5, #0]
   86ebe:	6828      	ldr	r0, [r5, #0]
   86ec0:	7903      	ldrb	r3, [r0, #4]
   86ec2:	42a3      	cmp	r3, r4
   86ec4:	d919      	bls.n	86efa <udc_process_setup+0x736>
   86ec6:	4620      	mov	r0, r4
   86ec8:	f04f 0100 	mov.w	r1, #0
   86ecc:	f246 5269 	movw	r2, #25961	; 0x6569
   86ed0:	f2c0 0208 	movt	r2, #8
   86ed4:	4790      	blx	r2
   86ed6:	b180      	cbz	r0, 86efa <udc_process_setup+0x736>
   86ed8:	6869      	ldr	r1, [r5, #4]
   86eda:	f851 5024 	ldr.w	r5, [r1, r4, lsl #2]
   86ede:	68e8      	ldr	r0, [r5, #12]
   86ee0:	4780      	blx	r0
   86ee2:	4601      	mov	r1, r0
   86ee4:	4620      	mov	r0, r4
   86ee6:	f246 5369 	movw	r3, #25961	; 0x6569
   86eea:	f2c0 0308 	movt	r3, #8
   86eee:	4798      	blx	r3
   86ef0:	b118      	cbz	r0, 86efa <udc_process_setup+0x736>
   86ef2:	68aa      	ldr	r2, [r5, #8]
   86ef4:	4790      	blx	r2
   86ef6:	2800      	cmp	r0, #0
   86ef8:	d147      	bne.n	86f8a <udc_process_setup+0x7c6>
   86efa:	f641 4118 	movw	r1, #7192	; 0x1c18
   86efe:	f2c2 0107 	movt	r1, #8199	; 0x2007
   86f02:	7808      	ldrb	r0, [r1, #0]
   86f04:	f000 031f 	and.w	r3, r0, #31
   86f08:	2b02      	cmp	r3, #2
   86f0a:	d141      	bne.n	86f90 <udc_process_setup+0x7cc>
   86f0c:	f241 5215 	movw	r2, #5397	; 0x1515
   86f10:	f2c2 0207 	movt	r2, #8199	; 0x2007
   86f14:	7811      	ldrb	r1, [r2, #0]
   86f16:	b331      	cbz	r1, 86f66 <udc_process_setup+0x7a2>
   86f18:	f241 500c 	movw	r0, #5388	; 0x150c
   86f1c:	f2c2 0007 	movt	r0, #8199	; 0x2007
   86f20:	6803      	ldr	r3, [r0, #0]
   86f22:	681a      	ldr	r2, [r3, #0]
   86f24:	7911      	ldrb	r1, [r2, #4]
   86f26:	b309      	cbz	r1, 86f6c <udc_process_setup+0x7a8>
   86f28:	f04f 0400 	mov.w	r4, #0
   86f2c:	f246 5669 	movw	r6, #25961	; 0x6569
   86f30:	f2c0 0608 	movt	r6, #8
   86f34:	f241 570c 	movw	r7, #5388	; 0x150c
   86f38:	f2c2 0707 	movt	r7, #8199	; 0x2007
   86f3c:	685d      	ldr	r5, [r3, #4]
   86f3e:	f855 5024 	ldr.w	r5, [r5, r4, lsl #2]
   86f42:	68eb      	ldr	r3, [r5, #12]
   86f44:	4798      	blx	r3
   86f46:	4601      	mov	r1, r0
   86f48:	4620      	mov	r0, r4
   86f4a:	47b0      	blx	r6
   86f4c:	b188      	cbz	r0, 86f72 <udc_process_setup+0x7ae>
   86f4e:	68a8      	ldr	r0, [r5, #8]
   86f50:	4780      	blx	r0
   86f52:	b988      	cbnz	r0, 86f78 <udc_process_setup+0x7b4>
   86f54:	f104 0401 	add.w	r4, r4, #1
   86f58:	b2e4      	uxtb	r4, r4
   86f5a:	683b      	ldr	r3, [r7, #0]
   86f5c:	681a      	ldr	r2, [r3, #0]
   86f5e:	7911      	ldrb	r1, [r2, #4]
   86f60:	42a1      	cmp	r1, r4
   86f62:	d8eb      	bhi.n	86f3c <udc_process_setup+0x778>
   86f64:	bdf8      	pop	{r3, r4, r5, r6, r7, pc}
   86f66:	f04f 0000 	mov.w	r0, #0
   86f6a:	bdf8      	pop	{r3, r4, r5, r6, r7, pc}
   86f6c:	f04f 0000 	mov.w	r0, #0
   86f70:	bdf8      	pop	{r3, r4, r5, r6, r7, pc}
   86f72:	f04f 0000 	mov.w	r0, #0
   86f76:	bdf8      	pop	{r3, r4, r5, r6, r7, pc}
   86f78:	f04f 0001 	mov.w	r0, #1
   86f7c:	bdf8      	pop	{r3, r4, r5, r6, r7, pc}
   86f7e:	f04f 0000 	mov.w	r0, #0
   86f82:	bdf8      	pop	{r3, r4, r5, r6, r7, pc}
   86f84:	f04f 0001 	mov.w	r0, #1
   86f88:	bdf8      	pop	{r3, r4, r5, r6, r7, pc}
   86f8a:	f04f 0001 	mov.w	r0, #1
   86f8e:	bdf8      	pop	{r3, r4, r5, r6, r7, pc}
   86f90:	f04f 0000 	mov.w	r0, #0
   86f94:	bdf8      	pop	{r3, r4, r5, r6, r7, pc}
   86f96:	f010 0f60 	tst.w	r0, #96	; 0x60
   86f9a:	f47f af77 	bne.w	86e8c <udc_process_setup+0x6c8>
   86f9e:	e597      	b.n	86ad0 <udc_process_setup+0x30c>
   86fa0:	f010 0f60 	tst.w	r0, #96	; 0x60
   86fa4:	f47f af72 	bne.w	86e8c <udc_process_setup+0x6c8>
   86fa8:	e424      	b.n	867f4 <udc_process_setup+0x30>
   86faa:	f04f 000e 	mov.w	r0, #14
   86fae:	490a      	ldr	r1, [pc, #40]	; (86fd8 <udc_process_setup+0x814>)
   86fb0:	e4e1      	b.n	86976 <udc_process_setup+0x1b2>
   86fb2:	f04f 000c 	mov.w	r0, #12
   86fb6:	4909      	ldr	r1, [pc, #36]	; (86fdc <udc_process_setup+0x818>)
   86fb8:	e4dd      	b.n	86976 <udc_process_setup+0x1b2>
   86fba:	f04f 0401 	mov.w	r4, #1
   86fbe:	2c00      	cmp	r4, #0
   86fc0:	f43f ace5 	beq.w	8698e <udc_process_setup+0x1ca>
   86fc4:	5ccc      	ldrb	r4, [r1, r3]
   86fc6:	f822 4f02 	strh.w	r4, [r2, #2]!
   86fca:	f103 0301 	add.w	r3, r3, #1
   86fce:	b2dc      	uxtb	r4, r3
   86fd0:	4284      	cmp	r4, r0
   86fd2:	f4ff acdc 	bcc.w	8698e <udc_process_setup+0x1ca>
   86fd6:	e4e9      	b.n	869ac <udc_process_setup+0x1e8>
   86fd8:	20070258 	.word	0x20070258
   86fdc:	0008cc88 	.word	0x0008cc88

00086fe0 <pio_pull_up>:
   86fe0:	b10a      	cbz	r2, 86fe6 <pio_pull_up+0x6>
   86fe2:	6641      	str	r1, [r0, #100]	; 0x64
   86fe4:	4770      	bx	lr
   86fe6:	6601      	str	r1, [r0, #96]	; 0x60
   86fe8:	4770      	bx	lr
   86fea:	bf00      	nop

00086fec <pio_set_peripheral>:
   86fec:	6442      	str	r2, [r0, #68]	; 0x44
   86fee:	f1b1 5f80 	cmp.w	r1, #268435456	; 0x10000000
   86ff2:	d016      	beq.n	87022 <pio_set_peripheral+0x36>
   86ff4:	d804      	bhi.n	87000 <pio_set_peripheral+0x14>
   86ff6:	b1c9      	cbz	r1, 8702c <pio_set_peripheral+0x40>
   86ff8:	f1b1 6f00 	cmp.w	r1, #134217728	; 0x8000000
   86ffc:	d115      	bne.n	8702a <pio_set_peripheral+0x3e>
   86ffe:	e009      	b.n	87014 <pio_set_peripheral+0x28>
   87000:	f1b1 5f40 	cmp.w	r1, #805306368	; 0x30000000
   87004:	d012      	beq.n	8702c <pio_set_peripheral+0x40>
   87006:	f1b1 5f60 	cmp.w	r1, #939524096	; 0x38000000
   8700a:	d00f      	beq.n	8702c <pio_set_peripheral+0x40>
   8700c:	f1b1 5f20 	cmp.w	r1, #671088640	; 0x28000000
   87010:	d10b      	bne.n	8702a <pio_set_peripheral+0x3e>
   87012:	4770      	bx	lr
   87014:	6f03      	ldr	r3, [r0, #112]	; 0x70
   87016:	6f01      	ldr	r1, [r0, #112]	; 0x70
   87018:	400b      	ands	r3, r1
   8701a:	ea23 0302 	bic.w	r3, r3, r2
   8701e:	6703      	str	r3, [r0, #112]	; 0x70
   87020:	e003      	b.n	8702a <pio_set_peripheral+0x3e>
   87022:	6f03      	ldr	r3, [r0, #112]	; 0x70
   87024:	ea42 0103 	orr.w	r1, r2, r3
   87028:	6701      	str	r1, [r0, #112]	; 0x70
   8702a:	6042      	str	r2, [r0, #4]
   8702c:	4770      	bx	lr
   8702e:	bf00      	nop

00087030 <pio_disable_interrupt>:
   87030:	6441      	str	r1, [r0, #68]	; 0x44
   87032:	4770      	bx	lr

00087034 <pio_set_output>:
   87034:	b5f8      	push	{r3, r4, r5, r6, r7, lr}
   87036:	4604      	mov	r4, r0
   87038:	460d      	mov	r5, r1
   8703a:	4616      	mov	r6, r2
   8703c:	461f      	mov	r7, r3
   8703e:	f247 0331 	movw	r3, #28721	; 0x7031
   87042:	f2c0 0308 	movt	r3, #8
   87046:	4798      	blx	r3
   87048:	4620      	mov	r0, r4
   8704a:	4629      	mov	r1, r5
   8704c:	9a06      	ldr	r2, [sp, #24]
   8704e:	f646 73e1 	movw	r3, #28641	; 0x6fe1
   87052:	f2c0 0308 	movt	r3, #8
   87056:	4798      	blx	r3
   87058:	b10f      	cbz	r7, 8705e <pio_set_output+0x2a>
   8705a:	6525      	str	r5, [r4, #80]	; 0x50
   8705c:	e000      	b.n	87060 <pio_set_output+0x2c>
   8705e:	6565      	str	r5, [r4, #84]	; 0x54
   87060:	b10e      	cbz	r6, 87066 <pio_set_output+0x32>
   87062:	6325      	str	r5, [r4, #48]	; 0x30
   87064:	e000      	b.n	87068 <pio_set_output+0x34>
   87066:	6365      	str	r5, [r4, #52]	; 0x34
   87068:	6125      	str	r5, [r4, #16]
   8706a:	6025      	str	r5, [r4, #0]
   8706c:	bdf8      	pop	{r3, r4, r5, r6, r7, pc}
   8706e:	bf00      	nop

00087070 <pio_set_input>:
   87070:	b570      	push	{r4, r5, r6, lr}
   87072:	4604      	mov	r4, r0
   87074:	460d      	mov	r5, r1
   87076:	4616      	mov	r6, r2
   87078:	f247 0331 	movw	r3, #28721	; 0x7031
   8707c:	f2c0 0308 	movt	r3, #8
   87080:	4798      	blx	r3
   87082:	4620      	mov	r0, r4
   87084:	4629      	mov	r1, r5
   87086:	f006 0201 	and.w	r2, r6, #1
   8708a:	f646 73e1 	movw	r3, #28641	; 0x6fe1
   8708e:	f2c0 0308 	movt	r3, #8
   87092:	4798      	blx	r3
   87094:	f016 0f0a 	tst.w	r6, #10
   87098:	bf14      	ite	ne
   8709a:	6225      	strne	r5, [r4, #32]
   8709c:	6265      	streq	r5, [r4, #36]	; 0x24
   8709e:	f016 0f02 	tst.w	r6, #2
   870a2:	d002      	beq.n	870aa <pio_set_input+0x3a>
   870a4:	f8c4 5080 	str.w	r5, [r4, #128]	; 0x80
   870a8:	e004      	b.n	870b4 <pio_set_input+0x44>
   870aa:	f016 0f08 	tst.w	r6, #8
   870ae:	bf18      	it	ne
   870b0:	f8c4 5080 	strne.w	r5, [r4, #128]	; 0x80
   870b4:	6165      	str	r5, [r4, #20]
   870b6:	6025      	str	r5, [r4, #0]
   870b8:	bd70      	pop	{r4, r5, r6, pc}
   870ba:	bf00      	nop

000870bc <pio_get_interrupt_status>:
   870bc:	6cc0      	ldr	r0, [r0, #76]	; 0x4c
   870be:	4770      	bx	lr

000870c0 <pio_get_interrupt_mask>:
   870c0:	6c80      	ldr	r0, [r0, #72]	; 0x48
   870c2:	4770      	bx	lr

000870c4 <pio_configure_pin>:
   870c4:	b5f0      	push	{r4, r5, r6, r7, lr}
   870c6:	b083      	sub	sp, #12
   870c8:	460d      	mov	r5, r1
   870ca:	ea4f 1650 	mov.w	r6, r0, lsr #5
   870ce:	f506 1100 	add.w	r1, r6, #2097152	; 0x200000
   870d2:	f201 7207 	addw	r2, r1, #1799	; 0x707
   870d6:	ea4f 2642 	mov.w	r6, r2, lsl #9
   870da:	f005 44f0 	and.w	r4, r5, #2013265920	; 0x78000000
   870de:	f1b4 5f20 	cmp.w	r4, #671088640	; 0x28000000
   870e2:	d042      	beq.n	8716a <pio_configure_pin+0xa6>
   870e4:	d806      	bhi.n	870f4 <pio_configure_pin+0x30>
   870e6:	f1b4 6f00 	cmp.w	r4, #134217728	; 0x8000000
   870ea:	d00a      	beq.n	87102 <pio_configure_pin+0x3e>
   870ec:	f1b4 5f80 	cmp.w	r4, #268435456	; 0x10000000
   870f0:	d164      	bne.n	871bc <pio_configure_pin+0xf8>
   870f2:	e020      	b.n	87136 <pio_configure_pin+0x72>
   870f4:	f1b4 5f40 	cmp.w	r4, #805306368	; 0x30000000
   870f8:	d046      	beq.n	87188 <pio_configure_pin+0xc4>
   870fa:	f1b4 5f60 	cmp.w	r4, #939524096	; 0x38000000
   870fe:	d15d      	bne.n	871bc <pio_configure_pin+0xf8>
   87100:	e042      	b.n	87188 <pio_configure_pin+0xc4>
   87102:	f000 071f 	and.w	r7, r0, #31
   87106:	f04f 0401 	mov.w	r4, #1
   8710a:	fa04 f707 	lsl.w	r7, r4, r7
   8710e:	4630      	mov	r0, r6
   87110:	f04f 6100 	mov.w	r1, #134217728	; 0x8000000
   87114:	463a      	mov	r2, r7
   87116:	f646 73ed 	movw	r3, #28653	; 0x6fed
   8711a:	f2c0 0308 	movt	r3, #8
   8711e:	4798      	blx	r3
   87120:	4630      	mov	r0, r6
   87122:	4639      	mov	r1, r7
   87124:	ea05 0204 	and.w	r2, r5, r4
   87128:	f646 73e1 	movw	r3, #28641	; 0x6fe1
   8712c:	f2c0 0308 	movt	r3, #8
   87130:	4798      	blx	r3
   87132:	4620      	mov	r0, r4
   87134:	e044      	b.n	871c0 <pio_configure_pin+0xfc>
   87136:	f000 001f 	and.w	r0, r0, #31
   8713a:	f04f 0401 	mov.w	r4, #1
   8713e:	fa04 f700 	lsl.w	r7, r4, r0
   87142:	4630      	mov	r0, r6
   87144:	f04f 5180 	mov.w	r1, #268435456	; 0x10000000
   87148:	463a      	mov	r2, r7
   8714a:	f646 73ed 	movw	r3, #28653	; 0x6fed
   8714e:	f2c0 0308 	movt	r3, #8
   87152:	4798      	blx	r3
   87154:	4630      	mov	r0, r6
   87156:	4639      	mov	r1, r7
   87158:	ea05 0204 	and.w	r2, r5, r4
   8715c:	f646 73e1 	movw	r3, #28641	; 0x6fe1
   87160:	f2c0 0308 	movt	r3, #8
   87164:	4798      	blx	r3
   87166:	4620      	mov	r0, r4
   87168:	e02a      	b.n	871c0 <pio_configure_pin+0xfc>
   8716a:	f000 021f 	and.w	r2, r0, #31
   8716e:	f04f 0401 	mov.w	r4, #1
   87172:	4630      	mov	r0, r6
   87174:	fa04 f102 	lsl.w	r1, r4, r2
   87178:	462a      	mov	r2, r5
   8717a:	f247 0371 	movw	r3, #28785	; 0x7071
   8717e:	f2c0 0308 	movt	r3, #8
   87182:	4798      	blx	r3
   87184:	4620      	mov	r0, r4
   87186:	e01b      	b.n	871c0 <pio_configure_pin+0xfc>
   87188:	f000 021f 	and.w	r2, r0, #31
   8718c:	f04f 0401 	mov.w	r4, #1
   87190:	f005 5360 	and.w	r3, r5, #939524096	; 0x38000000
   87194:	ea05 0104 	and.w	r1, r5, r4
   87198:	9100      	str	r1, [sp, #0]
   8719a:	4630      	mov	r0, r6
   8719c:	fa04 f102 	lsl.w	r1, r4, r2
   871a0:	f1b3 5f60 	cmp.w	r3, #939524096	; 0x38000000
   871a4:	bf14      	ite	ne
   871a6:	2200      	movne	r2, #0
   871a8:	2201      	moveq	r2, #1
   871aa:	f3c5 0380 	ubfx	r3, r5, #2, #1
   871ae:	f247 0535 	movw	r5, #28725	; 0x7035
   871b2:	f2c0 0508 	movt	r5, #8
   871b6:	47a8      	blx	r5
   871b8:	4620      	mov	r0, r4
   871ba:	e001      	b.n	871c0 <pio_configure_pin+0xfc>
   871bc:	f04f 0000 	mov.w	r0, #0
   871c0:	b003      	add	sp, #12
   871c2:	bdf0      	pop	{r4, r5, r6, r7, pc}

000871c4 <pio_handler_process>:
   871c4:	b5f8      	push	{r3, r4, r5, r6, r7, lr}
   871c6:	4604      	mov	r4, r0
   871c8:	460e      	mov	r6, r1
   871ca:	f247 03bd 	movw	r3, #28861	; 0x70bd
   871ce:	f2c0 0308 	movt	r3, #8
   871d2:	4798      	blx	r3
   871d4:	4605      	mov	r5, r0
   871d6:	4620      	mov	r0, r4
   871d8:	f247 01c1 	movw	r1, #28865	; 0x70c1
   871dc:	f2c0 0108 	movt	r1, #8
   871e0:	4788      	blx	r1
   871e2:	4005      	ands	r5, r0
   871e4:	d014      	beq.n	87210 <pio_handler_process+0x4c>
   871e6:	4c0b      	ldr	r4, [pc, #44]	; (87214 <pio_handler_process+0x50>)
   871e8:	4627      	mov	r7, r4
   871ea:	f854 0c0c 	ldr.w	r0, [r4, #-12]
   871ee:	42b0      	cmp	r0, r6
   871f0:	d10a      	bne.n	87208 <pio_handler_process+0x44>
   871f2:	f854 1c08 	ldr.w	r1, [r4, #-8]
   871f6:	4229      	tst	r1, r5
   871f8:	d006      	beq.n	87208 <pio_handler_process+0x44>
   871fa:	6822      	ldr	r2, [r4, #0]
   871fc:	4630      	mov	r0, r6
   871fe:	4790      	blx	r2
   87200:	f854 3c08 	ldr.w	r3, [r4, #-8]
   87204:	ea25 0503 	bic.w	r5, r5, r3
   87208:	f104 0410 	add.w	r4, r4, #16
   8720c:	2d00      	cmp	r5, #0
   8720e:	d1eb      	bne.n	871e8 <pio_handler_process+0x24>
   87210:	bdf8      	pop	{r3, r4, r5, r6, r7, pc}
   87212:	bf00      	nop
   87214:	20071528 	.word	0x20071528

00087218 <PIOA_Handler>:
   87218:	b508      	push	{r3, lr}
   8721a:	f44f 6060 	mov.w	r0, #3584	; 0xe00
   8721e:	f2c4 000e 	movt	r0, #16398	; 0x400e
   87222:	f04f 010b 	mov.w	r1, #11
   87226:	f247 13c5 	movw	r3, #29125	; 0x71c5
   8722a:	f2c0 0308 	movt	r3, #8
   8722e:	4798      	blx	r3
   87230:	bd08      	pop	{r3, pc}
   87232:	bf00      	nop

00087234 <PIOB_Handler>:
   87234:	b508      	push	{r3, lr}
   87236:	f44f 5080 	mov.w	r0, #4096	; 0x1000
   8723a:	f2c4 000e 	movt	r0, #16398	; 0x400e
   8723e:	f04f 010c 	mov.w	r1, #12
   87242:	f247 13c5 	movw	r3, #29125	; 0x71c5
   87246:	f2c0 0308 	movt	r3, #8
   8724a:	4798      	blx	r3
   8724c:	bd08      	pop	{r3, pc}
   8724e:	bf00      	nop

00087250 <PIOC_Handler>:
   87250:	b508      	push	{r3, lr}
   87252:	f44f 5090 	mov.w	r0, #4608	; 0x1200
   87256:	f2c4 000e 	movt	r0, #16398	; 0x400e
   8725a:	f04f 010d 	mov.w	r1, #13
   8725e:	f247 13c5 	movw	r3, #29125	; 0x71c5
   87262:	f2c0 0308 	movt	r3, #8
   87266:	4798      	blx	r3
   87268:	bd08      	pop	{r3, pc}
   8726a:	bf00      	nop

0008726c <PIOD_Handler>:
   8726c:	b508      	push	{r3, lr}
   8726e:	f44f 50a0 	mov.w	r0, #5120	; 0x1400
   87272:	f2c4 000e 	movt	r0, #16398	; 0x400e
   87276:	f04f 010e 	mov.w	r1, #14
   8727a:	f247 13c5 	movw	r3, #29125	; 0x71c5
   8727e:	f2c0 0308 	movt	r3, #8
   87282:	4798      	blx	r3
   87284:	bd08      	pop	{r3, pc}
   87286:	bf00      	nop

00087288 <pmc_switch_mck_to_pllack>:
   87288:	f44f 63c0 	mov.w	r3, #1536	; 0x600
   8728c:	f2c4 030e 	movt	r3, #16398	; 0x400e
   87290:	6b1a      	ldr	r2, [r3, #48]	; 0x30
   87292:	f022 0170 	bic.w	r1, r2, #112	; 0x70
   87296:	4308      	orrs	r0, r1
   87298:	6318      	str	r0, [r3, #48]	; 0x30
   8729a:	6e98      	ldr	r0, [r3, #104]	; 0x68
   8729c:	f010 0f08 	tst.w	r0, #8
   872a0:	d007      	beq.n	872b2 <pmc_switch_mck_to_pllack+0x2a>
   872a2:	e010      	b.n	872c6 <pmc_switch_mck_to_pllack+0x3e>
   872a4:	f100 33ff 	add.w	r3, r0, #4294967295
   872a8:	6e90      	ldr	r0, [r2, #104]	; 0x68
   872aa:	f010 0f08 	tst.w	r0, #8
   872ae:	d038      	beq.n	87322 <pmc_switch_mck_to_pllack+0x9a>
   872b0:	e009      	b.n	872c6 <pmc_switch_mck_to_pllack+0x3e>
   872b2:	f44f 6000 	mov.w	r0, #2048	; 0x800
   872b6:	f44f 62c0 	mov.w	r2, #1536	; 0x600
   872ba:	f2c4 020e 	movt	r2, #16398	; 0x400e
   872be:	6e91      	ldr	r1, [r2, #104]	; 0x68
   872c0:	f011 0f08 	tst.w	r1, #8
   872c4:	d0ee      	beq.n	872a4 <pmc_switch_mck_to_pllack+0x1c>
   872c6:	f44f 61c0 	mov.w	r1, #1536	; 0x600
   872ca:	f2c4 010e 	movt	r1, #16398	; 0x400e
   872ce:	6b0a      	ldr	r2, [r1, #48]	; 0x30
   872d0:	f022 0303 	bic.w	r3, r2, #3
   872d4:	f043 0002 	orr.w	r0, r3, #2
   872d8:	6308      	str	r0, [r1, #48]	; 0x30
   872da:	6e89      	ldr	r1, [r1, #104]	; 0x68
   872dc:	f011 0f08 	tst.w	r1, #8
   872e0:	d009      	beq.n	872f6 <pmc_switch_mck_to_pllack+0x6e>
   872e2:	f04f 0000 	mov.w	r0, #0
   872e6:	4770      	bx	lr
   872e8:	f103 33ff 	add.w	r3, r3, #4294967295
   872ec:	6e91      	ldr	r1, [r2, #104]	; 0x68
   872ee:	f011 0f08 	tst.w	r1, #8
   872f2:	d013      	beq.n	8731c <pmc_switch_mck_to_pllack+0x94>
   872f4:	e009      	b.n	8730a <pmc_switch_mck_to_pllack+0x82>
   872f6:	f44f 6300 	mov.w	r3, #2048	; 0x800
   872fa:	f44f 62c0 	mov.w	r2, #1536	; 0x600
   872fe:	f2c4 020e 	movt	r2, #16398	; 0x400e
   87302:	6e90      	ldr	r0, [r2, #104]	; 0x68
   87304:	f010 0f08 	tst.w	r0, #8
   87308:	d0ee      	beq.n	872e8 <pmc_switch_mck_to_pllack+0x60>
   8730a:	f04f 0000 	mov.w	r0, #0
   8730e:	4770      	bx	lr
   87310:	f04f 0001 	mov.w	r0, #1
   87314:	4770      	bx	lr
   87316:	f04f 0001 	mov.w	r0, #1
   8731a:	4770      	bx	lr
   8731c:	3b01      	subs	r3, #1
   8731e:	d1f0      	bne.n	87302 <pmc_switch_mck_to_pllack+0x7a>
   87320:	e7f9      	b.n	87316 <pmc_switch_mck_to_pllack+0x8e>
   87322:	1e58      	subs	r0, r3, #1
   87324:	d1cb      	bne.n	872be <pmc_switch_mck_to_pllack+0x36>
   87326:	e7f3      	b.n	87310 <pmc_switch_mck_to_pllack+0x88>

00087328 <pmc_switch_mainck_to_xtal>:
   87328:	b188      	cbz	r0, 8734e <pmc_switch_mainck_to_xtal+0x26>
   8732a:	f44f 61c0 	mov.w	r1, #1536	; 0x600
   8732e:	f2c4 010e 	movt	r1, #16398	; 0x400e
   87332:	6a08      	ldr	r0, [r1, #32]
   87334:	f64f 72fc 	movw	r2, #65532	; 0xfffc
   87338:	f6cf 62c8 	movt	r2, #65224	; 0xfec8
   8733c:	4002      	ands	r2, r0
   8733e:	f04f 0302 	mov.w	r3, #2
   87342:	f2c0 1337 	movt	r3, #311	; 0x137
   87346:	ea42 0003 	orr.w	r0, r2, r3
   8734a:	6208      	str	r0, [r1, #32]
   8734c:	4770      	bx	lr
   8734e:	f44f 63c0 	mov.w	r3, #1536	; 0x600
   87352:	f2c4 030e 	movt	r3, #16398	; 0x400e
   87356:	6a1a      	ldr	r2, [r3, #32]
   87358:	f422 105c 	bic.w	r0, r2, #3604480	; 0x370000
   8735c:	f020 0203 	bic.w	r2, r0, #3
   87360:	f442 105c 	orr.w	r0, r2, #3604480	; 0x370000
   87364:	f040 0201 	orr.w	r2, r0, #1
   87368:	ea4f 6101 	mov.w	r1, r1, lsl #24
   8736c:	ea42 4011 	orr.w	r0, r2, r1, lsr #16
   87370:	6218      	str	r0, [r3, #32]
   87372:	f44f 62c0 	mov.w	r2, #1536	; 0x600
   87376:	f2c4 020e 	movt	r2, #16398	; 0x400e
   8737a:	6e93      	ldr	r3, [r2, #104]	; 0x68
   8737c:	f013 0f01 	tst.w	r3, #1
   87380:	d0fb      	beq.n	8737a <pmc_switch_mainck_to_xtal+0x52>
   87382:	f44f 61c0 	mov.w	r1, #1536	; 0x600
   87386:	f2c4 010e 	movt	r1, #16398	; 0x400e
   8738a:	6a08      	ldr	r0, [r1, #32]
   8738c:	f040 729b 	orr.w	r2, r0, #20316160	; 0x1360000
   87390:	f442 3380 	orr.w	r3, r2, #65536	; 0x10000
   87394:	620b      	str	r3, [r1, #32]
   87396:	4770      	bx	lr

00087398 <pmc_osc_is_ready_mainck>:
   87398:	f44f 63c0 	mov.w	r3, #1536	; 0x600
   8739c:	f2c4 030e 	movt	r3, #16398	; 0x400e
   873a0:	6e98      	ldr	r0, [r3, #104]	; 0x68
   873a2:	f400 3080 	and.w	r0, r0, #65536	; 0x10000
   873a6:	4770      	bx	lr

000873a8 <pmc_disable_pllack>:
   873a8:	f44f 63c0 	mov.w	r3, #1536	; 0x600
   873ac:	f2c4 030e 	movt	r3, #16398	; 0x400e
   873b0:	f04f 5200 	mov.w	r2, #536870912	; 0x20000000
   873b4:	629a      	str	r2, [r3, #40]	; 0x28
   873b6:	4770      	bx	lr

000873b8 <pmc_is_locked_pllack>:
   873b8:	f44f 63c0 	mov.w	r3, #1536	; 0x600
   873bc:	f2c4 030e 	movt	r3, #16398	; 0x400e
   873c0:	6e98      	ldr	r0, [r3, #104]	; 0x68
   873c2:	f000 0002 	and.w	r0, r0, #2
   873c6:	4770      	bx	lr

000873c8 <pmc_enable_upll_clock>:
   873c8:	f44f 63c0 	mov.w	r3, #1536	; 0x600
   873cc:	f2c4 030e 	movt	r3, #16398	; 0x400e
   873d0:	f44f 1244 	mov.w	r2, #3211264	; 0x310000
   873d4:	61da      	str	r2, [r3, #28]
   873d6:	f44f 60c0 	mov.w	r0, #1536	; 0x600
   873da:	f2c4 000e 	movt	r0, #16398	; 0x400e
   873de:	6e81      	ldr	r1, [r0, #104]	; 0x68
   873e0:	f011 0f40 	tst.w	r1, #64	; 0x40
   873e4:	d0fb      	beq.n	873de <pmc_enable_upll_clock+0x16>
   873e6:	4770      	bx	lr

000873e8 <pmc_enable_periph_clk>:
   873e8:	282c      	cmp	r0, #44	; 0x2c
   873ea:	d835      	bhi.n	87458 <pmc_enable_periph_clk+0x70>
   873ec:	281f      	cmp	r0, #31
   873ee:	d817      	bhi.n	87420 <pmc_enable_periph_clk+0x38>
   873f0:	f44f 61c0 	mov.w	r1, #1536	; 0x600
   873f4:	f2c4 010e 	movt	r1, #16398	; 0x400e
   873f8:	698a      	ldr	r2, [r1, #24]
   873fa:	f04f 0301 	mov.w	r3, #1
   873fe:	fa03 f300 	lsl.w	r3, r3, r0
   87402:	401a      	ands	r2, r3
   87404:	4293      	cmp	r3, r2
   87406:	d02a      	beq.n	8745e <pmc_enable_periph_clk+0x76>
   87408:	f04f 0101 	mov.w	r1, #1
   8740c:	fa01 f000 	lsl.w	r0, r1, r0
   87410:	f44f 62c0 	mov.w	r2, #1536	; 0x600
   87414:	f2c4 020e 	movt	r2, #16398	; 0x400e
   87418:	6110      	str	r0, [r2, #16]
   8741a:	f04f 0000 	mov.w	r0, #0
   8741e:	4770      	bx	lr
   87420:	f44f 63c0 	mov.w	r3, #1536	; 0x600
   87424:	f2c4 030e 	movt	r3, #16398	; 0x400e
   87428:	f8d3 2108 	ldr.w	r2, [r3, #264]	; 0x108
   8742c:	f1a0 0020 	sub.w	r0, r0, #32
   87430:	f04f 0101 	mov.w	r1, #1
   87434:	fa01 f100 	lsl.w	r1, r1, r0
   87438:	400a      	ands	r2, r1
   8743a:	4291      	cmp	r1, r2
   8743c:	d012      	beq.n	87464 <pmc_enable_periph_clk+0x7c>
   8743e:	f04f 0301 	mov.w	r3, #1
   87442:	fa03 f000 	lsl.w	r0, r3, r0
   87446:	f44f 62c0 	mov.w	r2, #1536	; 0x600
   8744a:	f2c4 020e 	movt	r2, #16398	; 0x400e
   8744e:	f8c2 0100 	str.w	r0, [r2, #256]	; 0x100
   87452:	f04f 0000 	mov.w	r0, #0
   87456:	4770      	bx	lr
   87458:	f04f 0001 	mov.w	r0, #1
   8745c:	4770      	bx	lr
   8745e:	f04f 0000 	mov.w	r0, #0
   87462:	4770      	bx	lr
   87464:	f04f 0000 	mov.w	r0, #0
   87468:	4770      	bx	lr
   8746a:	bf00      	nop

0008746c <pmc_switch_udpck_to_upllck>:
   8746c:	ea4f 2000 	mov.w	r0, r0, lsl #8
   87470:	f400 6270 	and.w	r2, r0, #3840	; 0xf00
   87474:	f042 0101 	orr.w	r1, r2, #1
   87478:	f44f 63c0 	mov.w	r3, #1536	; 0x600
   8747c:	f2c4 030e 	movt	r3, #16398	; 0x400e
   87480:	6399      	str	r1, [r3, #56]	; 0x38
   87482:	4770      	bx	lr

00087484 <pmc_enable_udpck>:
   87484:	f44f 63c0 	mov.w	r3, #1536	; 0x600
   87488:	f2c4 030e 	movt	r3, #16398	; 0x400e
   8748c:	f04f 0220 	mov.w	r2, #32
   87490:	601a      	str	r2, [r3, #0]
   87492:	4770      	bx	lr

00087494 <pmc_set_fast_startup_input>:
   87494:	f44f 63c0 	mov.w	r3, #1536	; 0x600
   87498:	f2c4 030e 	movt	r3, #16398	; 0x400e
   8749c:	6f1a      	ldr	r2, [r3, #112]	; 0x70
   8749e:	f020 407f 	bic.w	r0, r0, #4278190080	; 0xff000000
   874a2:	f420 0178 	bic.w	r1, r0, #16252928	; 0xf80000
   874a6:	430a      	orrs	r2, r1
   874a8:	671a      	str	r2, [r3, #112]	; 0x70
   874aa:	4770      	bx	lr

000874ac <pmc_is_wakeup_clocks_restored>:
   874ac:	f241 538c 	movw	r3, #5516	; 0x158c
   874b0:	f2c2 0307 	movt	r3, #8199	; 0x2007
   874b4:	7818      	ldrb	r0, [r3, #0]
   874b6:	f080 0001 	eor.w	r0, r0, #1
   874ba:	4770      	bx	lr

000874bc <udd_sleep_mode>:
   874bc:	4603      	mov	r3, r0
   874be:	2800      	cmp	r0, #0
   874c0:	d149      	bne.n	87556 <udd_sleep_mode+0x9a>
   874c2:	f241 5291 	movw	r2, #5521	; 0x1591
   874c6:	f2c2 0207 	movt	r2, #8199	; 0x2007
   874ca:	7811      	ldrb	r1, [r2, #0]
   874cc:	2900      	cmp	r1, #0
   874ce:	d03c      	beq.n	8754a <udd_sleep_mode+0x8e>
   874d0:	f3ef 8110 	mrs	r1, PRIMASK
   874d4:	b672      	cpsid	i
   874d6:	f3bf 8f5f 	dmb	sy
   874da:	f240 2298 	movw	r2, #664	; 0x298
   874de:	f2c2 0207 	movt	r2, #8199	; 0x2007
   874e2:	7010      	strb	r0, [r2, #0]
   874e4:	f641 4210 	movw	r2, #7184	; 0x1c10
   874e8:	f2c2 0207 	movt	r2, #8199	; 0x2007
   874ec:	7890      	ldrb	r0, [r2, #2]
   874ee:	f100 30ff 	add.w	r0, r0, #4294967295
   874f2:	7090      	strb	r0, [r2, #2]
   874f4:	bb49      	cbnz	r1, 8754a <udd_sleep_mode+0x8e>
   874f6:	f240 2298 	movw	r2, #664	; 0x298
   874fa:	f2c2 0207 	movt	r2, #8199	; 0x2007
   874fe:	f04f 0101 	mov.w	r1, #1
   87502:	7011      	strb	r1, [r2, #0]
   87504:	f3bf 8f5f 	dmb	sy
   87508:	b662      	cpsie	i
   8750a:	e01e      	b.n	8754a <udd_sleep_mode+0x8e>
   8750c:	f3ef 8110 	mrs	r1, PRIMASK
   87510:	b672      	cpsid	i
   87512:	f3bf 8f5f 	dmb	sy
   87516:	f240 2298 	movw	r2, #664	; 0x298
   8751a:	f2c2 0207 	movt	r2, #8199	; 0x2007
   8751e:	f04f 0000 	mov.w	r0, #0
   87522:	7010      	strb	r0, [r2, #0]
   87524:	f641 4210 	movw	r2, #7184	; 0x1c10
   87528:	f2c2 0207 	movt	r2, #8199	; 0x2007
   8752c:	7890      	ldrb	r0, [r2, #2]
   8752e:	f100 0001 	add.w	r0, r0, #1
   87532:	7090      	strb	r0, [r2, #2]
   87534:	b949      	cbnz	r1, 8754a <udd_sleep_mode+0x8e>
   87536:	f240 2298 	movw	r2, #664	; 0x298
   8753a:	f2c2 0207 	movt	r2, #8199	; 0x2007
   8753e:	f04f 0101 	mov.w	r1, #1
   87542:	7011      	strb	r1, [r2, #0]
   87544:	f3bf 8f5f 	dmb	sy
   87548:	b662      	cpsie	i
   8754a:	f241 5091 	movw	r0, #5521	; 0x1591
   8754e:	f2c2 0007 	movt	r0, #8199	; 0x2007
   87552:	7003      	strb	r3, [r0, #0]
   87554:	4770      	bx	lr
   87556:	f241 5291 	movw	r2, #5521	; 0x1591
   8755a:	f2c2 0207 	movt	r2, #8199	; 0x2007
   8755e:	7810      	ldrb	r0, [r2, #0]
   87560:	2800      	cmp	r0, #0
   87562:	d0d3      	beq.n	8750c <udd_sleep_mode+0x50>
   87564:	e7f1      	b.n	8754a <udd_sleep_mode+0x8e>
   87566:	bf00      	nop

00087568 <udd_ctrl_init>:
   87568:	f3ef 8210 	mrs	r2, PRIMASK
   8756c:	b672      	cpsid	i
   8756e:	f3bf 8f5f 	dmb	sy
   87572:	f240 2398 	movw	r3, #664	; 0x298
   87576:	f2c2 0307 	movt	r3, #8199	; 0x2007
   8757a:	f04f 0100 	mov.w	r1, #0
   8757e:	7019      	strb	r1, [r3, #0]
   87580:	f24c 2020 	movw	r0, #49696	; 0xc220
   87584:	f2c4 000a 	movt	r0, #16394	; 0x400a
   87588:	f04f 0101 	mov.w	r1, #1
   8758c:	6001      	str	r1, [r0, #0]
   8758e:	b93a      	cbnz	r2, 875a0 <udd_ctrl_init+0x38>
   87590:	f240 2398 	movw	r3, #664	; 0x298
   87594:	f2c2 0307 	movt	r3, #8199	; 0x2007
   87598:	7019      	strb	r1, [r3, #0]
   8759a:	f3bf 8f5f 	dmb	sy
   8759e:	b662      	cpsie	i
   875a0:	f24c 1060 	movw	r0, #49504	; 0xc160
   875a4:	f2c4 000a 	movt	r0, #16394	; 0x400a
   875a8:	f04f 0102 	mov.w	r1, #2
   875ac:	6001      	str	r1, [r0, #0]
   875ae:	f641 4218 	movw	r2, #7192	; 0x1c18
   875b2:	f2c2 0207 	movt	r2, #8199	; 0x2007
   875b6:	f04f 0300 	mov.w	r3, #0
   875ba:	6113      	str	r3, [r2, #16]
   875bc:	6153      	str	r3, [r2, #20]
   875be:	8193      	strh	r3, [r2, #12]
   875c0:	f241 610c 	movw	r1, #5644	; 0x160c
   875c4:	f2c2 0107 	movt	r1, #8199	; 0x2007
   875c8:	700b      	strb	r3, [r1, #0]
   875ca:	4770      	bx	lr

000875cc <udd_ctrl_stall_data>:
   875cc:	f241 630c 	movw	r3, #5644	; 0x160c
   875d0:	f2c2 0307 	movt	r3, #8199	; 0x2007
   875d4:	f04f 0205 	mov.w	r2, #5
   875d8:	701a      	strb	r2, [r3, #0]
   875da:	f24c 10f0 	movw	r0, #49648	; 0xc1f0
   875de:	f2c4 000a 	movt	r0, #16394	; 0x400a
   875e2:	f44f 2100 	mov.w	r1, #524288	; 0x80000
   875e6:	6001      	str	r1, [r0, #0]
   875e8:	4770      	bx	lr
   875ea:	bf00      	nop

000875ec <udd_ctrl_send_zlp_in>:
   875ec:	f241 630c 	movw	r3, #5644	; 0x160c
   875f0:	f2c2 0307 	movt	r3, #8199	; 0x2007
   875f4:	f04f 0203 	mov.w	r2, #3
   875f8:	701a      	strb	r2, [r3, #0]
   875fa:	f3ef 8010 	mrs	r0, PRIMASK
   875fe:	b672      	cpsid	i
   87600:	f3bf 8f5f 	dmb	sy
   87604:	f240 2198 	movw	r1, #664	; 0x298
   87608:	f2c2 0107 	movt	r1, #8199	; 0x2007
   8760c:	f04f 0300 	mov.w	r3, #0
   87610:	700b      	strb	r3, [r1, #0]
   87612:	f24c 1260 	movw	r2, #49504	; 0xc160
   87616:	f2c4 020a 	movt	r2, #16394	; 0x400a
   8761a:	f04f 0101 	mov.w	r1, #1
   8761e:	6011      	str	r1, [r2, #0]
   87620:	f24c 13f0 	movw	r3, #49648	; 0xc1f0
   87624:	f2c4 030a 	movt	r3, #16394	; 0x400a
   87628:	6019      	str	r1, [r3, #0]
   8762a:	f04f 0108 	mov.w	r1, #8
   8762e:	6011      	str	r1, [r2, #0]
   87630:	6019      	str	r1, [r3, #0]
   87632:	b948      	cbnz	r0, 87648 <udd_ctrl_send_zlp_in+0x5c>
   87634:	f240 2098 	movw	r0, #664	; 0x298
   87638:	f2c2 0007 	movt	r0, #8199	; 0x2007
   8763c:	f04f 0201 	mov.w	r2, #1
   87640:	7002      	strb	r2, [r0, #0]
   87642:	f3bf 8f5f 	dmb	sy
   87646:	b662      	cpsie	i
   87648:	4770      	bx	lr
   8764a:	bf00      	nop

0008764c <udd_ctrl_endofrequest>:
   8764c:	b508      	push	{r3, lr}
   8764e:	f641 4318 	movw	r3, #7192	; 0x1c18
   87652:	f2c2 0307 	movt	r3, #8199	; 0x2007
   87656:	6918      	ldr	r0, [r3, #16]
   87658:	b100      	cbz	r0, 8765c <udd_ctrl_endofrequest+0x10>
   8765a:	4780      	blx	r0
   8765c:	bd08      	pop	{r3, pc}
   8765e:	bf00      	nop

00087660 <udd_ctrl_in_sent>:
   87660:	b570      	push	{r4, r5, r6, lr}
   87662:	f3ef 8210 	mrs	r2, PRIMASK
   87666:	b672      	cpsid	i
   87668:	f3bf 8f5f 	dmb	sy
   8766c:	f240 2398 	movw	r3, #664	; 0x298
   87670:	f2c2 0307 	movt	r3, #8199	; 0x2007
   87674:	f04f 0100 	mov.w	r1, #0
   87678:	7019      	strb	r1, [r3, #0]
   8767a:	f24c 2020 	movw	r0, #49696	; 0xc220
   8767e:	f2c4 000a 	movt	r0, #16394	; 0x400a
   87682:	f04f 0101 	mov.w	r1, #1
   87686:	6001      	str	r1, [r0, #0]
   87688:	b93a      	cbnz	r2, 8769a <udd_ctrl_in_sent+0x3a>
   8768a:	f240 2398 	movw	r3, #664	; 0x298
   8768e:	f2c2 0307 	movt	r3, #8199	; 0x2007
   87692:	7019      	strb	r1, [r3, #0]
   87694:	f3bf 8f5f 	dmb	sy
   87698:	b662      	cpsie	i
   8769a:	f241 600c 	movw	r0, #5644	; 0x160c
   8769e:	f2c2 0007 	movt	r0, #8199	; 0x2007
   876a2:	7801      	ldrb	r1, [r0, #0]
   876a4:	2903      	cmp	r1, #3
   876a6:	d10a      	bne.n	876be <udd_ctrl_in_sent+0x5e>
   876a8:	f247 624d 	movw	r2, #30285	; 0x764d
   876ac:	f2c0 0208 	movt	r2, #8
   876b0:	4790      	blx	r2
   876b2:	f247 5069 	movw	r0, #30057	; 0x7569
   876b6:	f2c0 0008 	movt	r0, #8
   876ba:	4780      	blx	r0
   876bc:	bd70      	pop	{r4, r5, r6, pc}
   876be:	f241 640e 	movw	r4, #5646	; 0x160e
   876c2:	f2c2 0407 	movt	r4, #8199	; 0x2007
   876c6:	8823      	ldrh	r3, [r4, #0]
   876c8:	f641 4218 	movw	r2, #7192	; 0x1c18
   876cc:	f2c2 0207 	movt	r2, #8199	; 0x2007
   876d0:	8990      	ldrh	r0, [r2, #12]
   876d2:	1ac1      	subs	r1, r0, r3
   876d4:	b28c      	uxth	r4, r1
   876d6:	2c00      	cmp	r4, #0
   876d8:	d155      	bne.n	87786 <udd_ctrl_in_sent+0x126>
   876da:	f241 528e 	movw	r2, #5518	; 0x158e
   876de:	f2c2 0207 	movt	r2, #8199	; 0x2007
   876e2:	8810      	ldrh	r0, [r2, #0]
   876e4:	181b      	adds	r3, r3, r0
   876e6:	b299      	uxth	r1, r3
   876e8:	8011      	strh	r1, [r2, #0]
   876ea:	f641 4218 	movw	r2, #7192	; 0x1c18
   876ee:	f2c2 0207 	movt	r2, #8199	; 0x2007
   876f2:	88d0      	ldrh	r0, [r2, #6]
   876f4:	4288      	cmp	r0, r1
   876f6:	d005      	beq.n	87704 <udd_ctrl_in_sent+0xa4>
   876f8:	f241 5390 	movw	r3, #5520	; 0x1590
   876fc:	f2c2 0307 	movt	r3, #8199	; 0x2007
   87700:	7819      	ldrb	r1, [r3, #0]
   87702:	b361      	cbz	r1, 8775e <udd_ctrl_in_sent+0xfe>
   87704:	f241 600c 	movw	r0, #5644	; 0x160c
   87708:	f2c2 0007 	movt	r0, #8199	; 0x2007
   8770c:	f04f 0204 	mov.w	r2, #4
   87710:	7002      	strb	r2, [r0, #0]
   87712:	f3ef 8110 	mrs	r1, PRIMASK
   87716:	b672      	cpsid	i
   87718:	f3bf 8f5f 	dmb	sy
   8771c:	f240 2398 	movw	r3, #664	; 0x298
   87720:	f2c2 0307 	movt	r3, #8199	; 0x2007
   87724:	f04f 0000 	mov.w	r0, #0
   87728:	7018      	strb	r0, [r3, #0]
   8772a:	f24c 1360 	movw	r3, #49504	; 0xc160
   8772e:	f2c4 030a 	movt	r3, #16394	; 0x400a
   87732:	f04f 0210 	mov.w	r2, #16
   87736:	601a      	str	r2, [r3, #0]
   87738:	f24c 10f0 	movw	r0, #49648	; 0xc1f0
   8773c:	f2c4 000a 	movt	r0, #16394	; 0x400a
   87740:	6002      	str	r2, [r0, #0]
   87742:	2900      	cmp	r1, #0
   87744:	f040 80a7 	bne.w	87896 <udd_ctrl_in_sent+0x236>
   87748:	f240 2198 	movw	r1, #664	; 0x298
   8774c:	f2c2 0107 	movt	r1, #8199	; 0x2007
   87750:	f04f 0301 	mov.w	r3, #1
   87754:	700b      	strb	r3, [r1, #0]
   87756:	f3bf 8f5f 	dmb	sy
   8775a:	b662      	cpsie	i
   8775c:	bd70      	pop	{r4, r5, r6, pc}
   8775e:	f641 4518 	movw	r5, #7192	; 0x1c18
   87762:	f2c2 0507 	movt	r5, #8199	; 0x2007
   87766:	696e      	ldr	r6, [r5, #20]
   87768:	b1ce      	cbz	r6, 8779e <udd_ctrl_in_sent+0x13e>
   8776a:	47b0      	blx	r6
   8776c:	b1b8      	cbz	r0, 8779e <udd_ctrl_in_sent+0x13e>
   8776e:	f241 640e 	movw	r4, #5646	; 0x160e
   87772:	f2c2 0407 	movt	r4, #8199	; 0x2007
   87776:	f04f 0200 	mov.w	r2, #0
   8777a:	8022      	strh	r2, [r4, #0]
   8777c:	f641 4018 	movw	r0, #7192	; 0x1c18
   87780:	f2c2 0007 	movt	r0, #8199	; 0x2007
   87784:	8984      	ldrh	r4, [r0, #12]
   87786:	2c3f      	cmp	r4, #63	; 0x3f
   87788:	d909      	bls.n	8779e <udd_ctrl_in_sent+0x13e>
   8778a:	f241 5390 	movw	r3, #5520	; 0x1590
   8778e:	f2c2 0307 	movt	r3, #8199	; 0x2007
   87792:	f04f 0100 	mov.w	r1, #0
   87796:	7019      	strb	r1, [r3, #0]
   87798:	f04f 0440 	mov.w	r4, #64	; 0x40
   8779c:	e006      	b.n	877ac <udd_ctrl_in_sent+0x14c>
   8779e:	f241 5590 	movw	r5, #5520	; 0x1590
   877a2:	f2c2 0507 	movt	r5, #8199	; 0x2007
   877a6:	f04f 0601 	mov.w	r6, #1
   877aa:	702e      	strb	r6, [r5, #0]
   877ac:	f641 4218 	movw	r2, #7192	; 0x1c18
   877b0:	f2c2 0207 	movt	r2, #8199	; 0x2007
   877b4:	6890      	ldr	r0, [r2, #8]
   877b6:	f241 630e 	movw	r3, #5646	; 0x160e
   877ba:	f2c2 0307 	movt	r3, #8199	; 0x2007
   877be:	881e      	ldrh	r6, [r3, #0]
   877c0:	f3ef 8110 	mrs	r1, PRIMASK
   877c4:	f1d1 0501 	rsbs	r5, r1, #1
   877c8:	bf38      	it	cc
   877ca:	2500      	movcc	r5, #0
   877cc:	b672      	cpsid	i
   877ce:	f3bf 8f5f 	dmb	sy
   877d2:	f240 2298 	movw	r2, #664	; 0x298
   877d6:	f2c2 0207 	movt	r2, #8199	; 0x2007
   877da:	f04f 0300 	mov.w	r3, #0
   877de:	7013      	strb	r3, [r2, #0]
   877e0:	f24c 1130 	movw	r1, #49456	; 0xc130
   877e4:	f2c4 010a 	movt	r1, #16394	; 0x400a
   877e8:	680a      	ldr	r2, [r1, #0]
   877ea:	f012 0f02 	tst.w	r2, #2
   877ee:	d101      	bne.n	877f4 <udd_ctrl_in_sent+0x194>
   877f0:	b99c      	cbnz	r4, 8781a <udd_ctrl_in_sent+0x1ba>
   877f2:	e035      	b.n	87860 <udd_ctrl_in_sent+0x200>
   877f4:	b14d      	cbz	r5, 8780a <udd_ctrl_in_sent+0x1aa>
   877f6:	f240 2098 	movw	r0, #664	; 0x298
   877fa:	f2c2 0007 	movt	r0, #8199	; 0x2007
   877fe:	f04f 0201 	mov.w	r2, #1
   87802:	7002      	strb	r2, [r0, #0]
   87804:	f3bf 8f5f 	dmb	sy
   87808:	b662      	cpsie	i
   8780a:	f241 610c 	movw	r1, #5644	; 0x160c
   8780e:	f2c2 0107 	movt	r1, #8199	; 0x2007
   87812:	f04f 0304 	mov.w	r3, #4
   87816:	700b      	strb	r3, [r1, #0]
   87818:	bd70      	pop	{r4, r5, r6, pc}
   8781a:	1982      	adds	r2, r0, r6
   8781c:	f04f 0300 	mov.w	r3, #0
   87820:	f2c2 0318 	movt	r3, #8216	; 0x2018
   87824:	ea6f 0003 	mvn.w	r0, r3
   87828:	1901      	adds	r1, r0, r4
   8782a:	f001 0001 	and.w	r0, r1, #1
   8782e:	f102 32ff 	add.w	r2, r2, #4294967295
   87832:	f812 1f01 	ldrb.w	r1, [r2, #1]!
   87836:	f803 1b01 	strb.w	r1, [r3], #1
   8783a:	b2d9      	uxtb	r1, r3
   8783c:	42a1      	cmp	r1, r4
   8783e:	d32b      	bcc.n	87898 <udd_ctrl_in_sent+0x238>
   87840:	e00e      	b.n	87860 <udd_ctrl_in_sent+0x200>
   87842:	f102 0001 	add.w	r0, r2, #1
   87846:	7852      	ldrb	r2, [r2, #1]
   87848:	4619      	mov	r1, r3
   8784a:	f801 2b01 	strb.w	r2, [r1], #1
   8784e:	f100 0201 	add.w	r2, r0, #1
   87852:	7840      	ldrb	r0, [r0, #1]
   87854:	7058      	strb	r0, [r3, #1]
   87856:	f101 0301 	add.w	r3, r1, #1
   8785a:	b2d9      	uxtb	r1, r3
   8785c:	42a1      	cmp	r1, r4
   8785e:	d3f0      	bcc.n	87842 <udd_ctrl_in_sent+0x1e2>
   87860:	19a4      	adds	r4, r4, r6
   87862:	f241 630e 	movw	r3, #5646	; 0x160e
   87866:	f2c2 0307 	movt	r3, #8199	; 0x2007
   8786a:	801c      	strh	r4, [r3, #0]
   8786c:	f24c 1060 	movw	r0, #49504	; 0xc160
   87870:	f2c4 000a 	movt	r0, #16394	; 0x400a
   87874:	f04f 0201 	mov.w	r2, #1
   87878:	6002      	str	r2, [r0, #0]
   8787a:	f24c 11f0 	movw	r1, #49648	; 0xc1f0
   8787e:	f2c4 010a 	movt	r1, #16394	; 0x400a
   87882:	600a      	str	r2, [r1, #0]
   87884:	b13d      	cbz	r5, 87896 <udd_ctrl_in_sent+0x236>
   87886:	f240 2398 	movw	r3, #664	; 0x298
   8788a:	f2c2 0307 	movt	r3, #8199	; 0x2007
   8788e:	701a      	strb	r2, [r3, #0]
   87890:	f3bf 8f5f 	dmb	sy
   87894:	b662      	cpsie	i
   87896:	bd70      	pop	{r4, r5, r6, pc}
   87898:	b240      	sxtb	r0, r0
   8789a:	2800      	cmp	r0, #0
   8789c:	d0d1      	beq.n	87842 <udd_ctrl_in_sent+0x1e2>
   8789e:	f812 1f01 	ldrb.w	r1, [r2, #1]!
   878a2:	f803 1b01 	strb.w	r1, [r3], #1
   878a6:	b2d8      	uxtb	r0, r3
   878a8:	42a0      	cmp	r0, r4
   878aa:	d3ca      	bcc.n	87842 <udd_ctrl_in_sent+0x1e2>
   878ac:	e7d8      	b.n	87860 <udd_ctrl_in_sent+0x200>
   878ae:	bf00      	nop

000878b0 <udd_ep_finish_job>:
   878b0:	b538      	push	{r3, r4, r5, lr}
   878b2:	4603      	mov	r3, r0
   878b4:	7d04      	ldrb	r4, [r0, #20]
   878b6:	f014 0f01 	tst.w	r4, #1
   878ba:	d013      	beq.n	878e4 <udd_ep_finish_job+0x34>
   878bc:	7d04      	ldrb	r4, [r0, #20]
   878be:	f36f 0400 	bfc	r4, #0, #1
   878c2:	7504      	strb	r4, [r0, #20]
   878c4:	6804      	ldr	r4, [r0, #0]
   878c6:	b16c      	cbz	r4, 878e4 <udd_ep_finish_job+0x34>
   878c8:	f44f 4541 	mov.w	r5, #49408	; 0xc100
   878cc:	f2c4 050a 	movt	r5, #16394	; 0x400a
   878d0:	f855 0022 	ldr.w	r0, [r5, r2, lsl #2]
   878d4:	f410 7f80 	tst.w	r0, #256	; 0x100
   878d8:	bf18      	it	ne
   878da:	f042 0280 	orrne.w	r2, r2, #128	; 0x80
   878de:	4608      	mov	r0, r1
   878e0:	6899      	ldr	r1, [r3, #8]
   878e2:	47a0      	blx	r4
   878e4:	bd38      	pop	{r3, r4, r5, pc}
   878e6:	bf00      	nop

000878e8 <udd_ep_abort_job>:
   878e8:	b508      	push	{r3, lr}
   878ea:	f000 020f 	and.w	r2, r0, #15
   878ee:	f102 30ff 	add.w	r0, r2, #4294967295
   878f2:	eb00 0140 	add.w	r1, r0, r0, lsl #1
   878f6:	f241 5394 	movw	r3, #5524	; 0x1594
   878fa:	f2c2 0307 	movt	r3, #8199	; 0x2007
   878fe:	eb03 00c1 	add.w	r0, r3, r1, lsl #3
   87902:	f04f 0101 	mov.w	r1, #1
   87906:	f647 03b1 	movw	r3, #30897	; 0x78b1
   8790a:	f2c0 0308 	movt	r3, #8
   8790e:	4798      	blx	r3
   87910:	bd08      	pop	{r3, pc}
   87912:	bf00      	nop

00087914 <udd_ep_trans_done>:
   87914:	b5f8      	push	{r3, r4, r5, r6, r7, lr}
   87916:	4602      	mov	r2, r0
   87918:	f100 31ff 	add.w	r1, r0, #4294967295
   8791c:	eb01 0041 	add.w	r0, r1, r1, lsl #1
   87920:	f241 5394 	movw	r3, #5524	; 0x1594
   87924:	f2c2 0307 	movt	r3, #8199	; 0x2007
   87928:	eb03 03c0 	add.w	r3, r3, r0, lsl #3
   8792c:	7d18      	ldrb	r0, [r3, #20]
   8792e:	f010 0f01 	tst.w	r0, #1
   87932:	f000 80c6 	beq.w	87ac2 <udd_ep_trans_done+0x1ae>
   87936:	68dc      	ldr	r4, [r3, #12]
   87938:	689d      	ldr	r5, [r3, #8]
   8793a:	42ac      	cmp	r4, r5
   8793c:	f000 8082 	beq.w	87a44 <udd_ep_trans_done+0x130>
   87940:	1b2d      	subs	r5, r5, r4
   87942:	f5b5 3f80 	cmp.w	r5, #65536	; 0x10000
   87946:	bf92      	itee	ls
   87948:	042e      	lslls	r6, r5, #16
   8794a:	f44f 3580 	movhi.w	r5, #65536	; 0x10000
   8794e:	2600      	movhi	r6, #0
   87950:	f44f 4041 	mov.w	r0, #49408	; 0xc100
   87954:	f2c4 000a 	movt	r0, #16394	; 0x400a
   87958:	eb00 0c82 	add.w	ip, r0, r2, lsl #2
   8795c:	f850 7022 	ldr.w	r7, [r0, r2, lsl #2]
   87960:	f417 7f80 	tst.w	r7, #256	; 0x100
   87964:	d011      	beq.n	8798a <udd_ep_trans_done+0x76>
   87966:	f850 7022 	ldr.w	r7, [r0, r2, lsl #2]
   8796a:	f3c7 1002 	ubfx	r0, r7, #4, #3
   8796e:	f04f 0708 	mov.w	r7, #8
   87972:	fa07 f000 	lsl.w	r0, r7, r0
   87976:	f100 30ff 	add.w	r0, r0, #4294967295
   8797a:	4205      	tst	r5, r0
   8797c:	d017      	beq.n	879ae <udd_ep_trans_done+0x9a>
   8797e:	433e      	orrs	r6, r7
   87980:	7d1f      	ldrb	r7, [r3, #20]
   87982:	f36f 0741 	bfc	r7, #1, #1
   87986:	751f      	strb	r7, [r3, #20]
   87988:	e011      	b.n	879ae <udd_ep_trans_done+0x9a>
   8798a:	f850 0022 	ldr.w	r0, [r0, r2, lsl #2]
   8798e:	f3c0 27c1 	ubfx	r7, r0, #11, #2
   87992:	2f01      	cmp	r7, #1
   87994:	d109      	bne.n	879aa <udd_ep_trans_done+0x96>
   87996:	f8dc 0000 	ldr.w	r0, [ip]
   8799a:	f3c0 1002 	ubfx	r0, r0, #4, #3
   8799e:	f04f 0708 	mov.w	r7, #8
   879a2:	fa07 f000 	lsl.w	r0, r7, r0
   879a6:	4285      	cmp	r5, r0
   879a8:	d801      	bhi.n	879ae <udd_ep_trans_done+0x9a>
   879aa:	f046 0614 	orr.w	r6, r6, #20
   879ae:	f44f 4043 	mov.w	r0, #49920	; 0xc300
   879b2:	f2c4 000a 	movt	r0, #16394	; 0x400a
   879b6:	eb00 1002 	add.w	r0, r0, r2, lsl #4
   879ba:	685f      	ldr	r7, [r3, #4]
   879bc:	193c      	adds	r4, r7, r4
   879be:	6044      	str	r4, [r0, #4]
   879c0:	f3ef 8710 	mrs	r7, PRIMASK
   879c4:	f1d7 0c01 	rsbs	ip, r7, #1
   879c8:	bf38      	it	cc
   879ca:	f04f 0c00 	movcc.w	ip, #0
   879ce:	b672      	cpsid	i
   879d0:	f3bf 8f5f 	dmb	sy
   879d4:	f240 2498 	movw	r4, #664	; 0x298
   879d8:	f2c2 0407 	movt	r4, #8199	; 0x2007
   879dc:	f04f 0700 	mov.w	r7, #0
   879e0:	7027      	strb	r7, [r4, #0]
   879e2:	68c4      	ldr	r4, [r0, #12]
   879e4:	f014 0f10 	tst.w	r4, #16
   879e8:	d11d      	bne.n	87a26 <udd_ep_trans_done+0x112>
   879ea:	f046 0621 	orr.w	r6, r6, #33	; 0x21
   879ee:	6086      	str	r6, [r0, #8]
   879f0:	68da      	ldr	r2, [r3, #12]
   879f2:	1950      	adds	r0, r2, r5
   879f4:	60d8      	str	r0, [r3, #12]
   879f6:	611d      	str	r5, [r3, #16]
   879f8:	f04f 7300 	mov.w	r3, #33554432	; 0x2000000
   879fc:	fa03 f101 	lsl.w	r1, r3, r1
   87a00:	f44f 4240 	mov.w	r2, #49152	; 0xc000
   87a04:	f2c4 020a 	movt	r2, #16394	; 0x400a
   87a08:	6191      	str	r1, [r2, #24]
   87a0a:	f1bc 0f00 	cmp.w	ip, #0
   87a0e:	d058      	beq.n	87ac2 <udd_ep_trans_done+0x1ae>
   87a10:	f240 2098 	movw	r0, #664	; 0x298
   87a14:	f2c2 0007 	movt	r0, #8199	; 0x2007
   87a18:	f04f 0301 	mov.w	r3, #1
   87a1c:	7003      	strb	r3, [r0, #0]
   87a1e:	f3bf 8f5f 	dmb	sy
   87a22:	b662      	cpsie	i
   87a24:	bdf8      	pop	{r3, r4, r5, r6, r7, pc}
   87a26:	f1bc 0f00 	cmp.w	ip, #0
   87a2a:	d009      	beq.n	87a40 <udd_ep_trans_done+0x12c>
   87a2c:	f240 2198 	movw	r1, #664	; 0x298
   87a30:	f2c2 0107 	movt	r1, #8199	; 0x2007
   87a34:	f04f 0001 	mov.w	r0, #1
   87a38:	7008      	strb	r0, [r1, #0]
   87a3a:	f3bf 8f5f 	dmb	sy
   87a3e:	b662      	cpsie	i
   87a40:	68d9      	ldr	r1, [r3, #12]
   87a42:	6099      	str	r1, [r3, #8]
   87a44:	f44f 4041 	mov.w	r0, #49408	; 0xc100
   87a48:	f2c4 000a 	movt	r0, #16394	; 0x400a
   87a4c:	f850 1022 	ldr.w	r1, [r0, r2, lsl #2]
   87a50:	f411 7f80 	tst.w	r1, #256	; 0x100
   87a54:	d02d      	beq.n	87ab2 <udd_ep_trans_done+0x19e>
   87a56:	7d18      	ldrb	r0, [r3, #20]
   87a58:	f000 0102 	and.w	r1, r0, #2
   87a5c:	b2c8      	uxtb	r0, r1
   87a5e:	b340      	cbz	r0, 87ab2 <udd_ep_trans_done+0x19e>
   87a60:	f24c 1060 	movw	r0, #49504	; 0xc160
   87a64:	f2c4 000a 	movt	r0, #16394	; 0x400a
   87a68:	f04f 0101 	mov.w	r1, #1
   87a6c:	f840 1022 	str.w	r1, [r0, r2, lsl #2]
   87a70:	f24c 1330 	movw	r3, #49456	; 0xc130
   87a74:	f2c4 030a 	movt	r3, #16394	; 0x400a
   87a78:	f853 0022 	ldr.w	r0, [r3, r2, lsl #2]
   87a7c:	f410 3f80 	tst.w	r0, #65536	; 0x10000
   87a80:	d005      	beq.n	87a8e <udd_ep_trans_done+0x17a>
   87a82:	f24c 1390 	movw	r3, #49552	; 0xc190
   87a86:	f2c4 030a 	movt	r3, #16394	; 0x400a
   87a8a:	f843 1022 	str.w	r1, [r3, r2, lsl #2]
   87a8e:	f24c 10f0 	movw	r0, #49648	; 0xc1f0
   87a92:	f2c4 000a 	movt	r0, #16394	; 0x400a
   87a96:	f04f 0101 	mov.w	r1, #1
   87a9a:	f840 1022 	str.w	r1, [r0, r2, lsl #2]
   87a9e:	f44f 5380 	mov.w	r3, #4096	; 0x1000
   87aa2:	fa03 f202 	lsl.w	r2, r3, r2
   87aa6:	f44f 4040 	mov.w	r0, #49152	; 0xc000
   87aaa:	f2c4 000a 	movt	r0, #16394	; 0x400a
   87aae:	6182      	str	r2, [r0, #24]
   87ab0:	bdf8      	pop	{r3, r4, r5, r6, r7, pc}
   87ab2:	4618      	mov	r0, r3
   87ab4:	f04f 0100 	mov.w	r1, #0
   87ab8:	f647 03b1 	movw	r3, #30897	; 0x78b1
   87abc:	f2c0 0308 	movt	r3, #8
   87ac0:	4798      	blx	r3
   87ac2:	bdf8      	pop	{r3, r4, r5, r6, r7, pc}

00087ac4 <udd_enable>:
   87ac4:	b510      	push	{r4, lr}
   87ac6:	f3ef 8410 	mrs	r4, PRIMASK
   87aca:	b672      	cpsid	i
   87acc:	f3bf 8f5f 	dmb	sy
   87ad0:	f240 2398 	movw	r3, #664	; 0x298
   87ad4:	f2c2 0307 	movt	r3, #8199	; 0x2007
   87ad8:	f04f 0200 	mov.w	r2, #0
   87adc:	701a      	strb	r2, [r3, #0]
   87ade:	f04f 0028 	mov.w	r0, #40	; 0x28
   87ae2:	f247 31e9 	movw	r1, #29673	; 0x73e9
   87ae6:	f2c0 0108 	movt	r1, #8
   87aea:	4788      	blx	r1
   87aec:	f644 40f5 	movw	r0, #19701	; 0x4cf5
   87af0:	f2c0 0008 	movt	r0, #8
   87af4:	4780      	blx	r0
   87af6:	f44f 4361 	mov.w	r3, #57600	; 0xe100
   87afa:	f2ce 0300 	movt	r3, #57344	; 0xe000
   87afe:	f04f 0250 	mov.w	r2, #80	; 0x50
   87b02:	f883 2328 	strb.w	r2, [r3, #808]	; 0x328
   87b06:	f44f 7180 	mov.w	r1, #256	; 0x100
   87b0a:	6059      	str	r1, [r3, #4]
   87b0c:	f44f 2080 	mov.w	r0, #262144	; 0x40000
   87b10:	f247 4395 	movw	r3, #29845	; 0x7495
   87b14:	f2c0 0308 	movt	r3, #8
   87b18:	4798      	blx	r3
   87b1a:	f44f 4040 	mov.w	r0, #49152	; 0xc000
   87b1e:	f2c4 000a 	movt	r0, #16394	; 0x400a
   87b22:	f8d0 2800 	ldr.w	r2, [r0, #2048]	; 0x800
   87b26:	f022 7180 	bic.w	r1, r2, #16777216	; 0x1000000
   87b2a:	f8c0 1800 	str.w	r1, [r0, #2048]	; 0x800
   87b2e:	f8d0 3800 	ldr.w	r3, [r0, #2048]	; 0x800
   87b32:	f043 7200 	orr.w	r2, r3, #33554432	; 0x2000000
   87b36:	f8c0 2800 	str.w	r2, [r0, #2048]	; 0x800
   87b3a:	f8d0 1800 	ldr.w	r1, [r0, #2048]	; 0x800
   87b3e:	f021 7380 	bic.w	r3, r1, #16777216	; 0x1000000
   87b42:	f8c0 3800 	str.w	r3, [r0, #2048]	; 0x800
   87b46:	f8d0 2800 	ldr.w	r2, [r0, #2048]	; 0x800
   87b4a:	f442 5180 	orr.w	r1, r2, #4096	; 0x1000
   87b4e:	f8c0 1800 	str.w	r1, [r0, #2048]	; 0x800
   87b52:	f8d0 3800 	ldr.w	r3, [r0, #2048]	; 0x800
   87b56:	f443 4200 	orr.w	r2, r3, #32768	; 0x8000
   87b5a:	f8c0 2800 	str.w	r2, [r0, #2048]	; 0x800
   87b5e:	6801      	ldr	r1, [r0, #0]
   87b60:	f421 5380 	bic.w	r3, r1, #4096	; 0x1000
   87b64:	6003      	str	r3, [r0, #0]
   87b66:	6802      	ldr	r2, [r0, #0]
   87b68:	f422 6140 	bic.w	r1, r2, #3072	; 0xc00
   87b6c:	6001      	str	r1, [r0, #0]
   87b6e:	f8d0 3800 	ldr.w	r3, [r0, #2048]	; 0x800
   87b72:	f423 4280 	bic.w	r2, r3, #16384	; 0x4000
   87b76:	f8c0 2800 	str.w	r2, [r0, #2048]	; 0x800
   87b7a:	f44f 4040 	mov.w	r0, #49152	; 0xc000
   87b7e:	f2c4 000a 	movt	r0, #16394	; 0x400a
   87b82:	f8d0 1804 	ldr.w	r1, [r0, #2052]	; 0x804
   87b86:	f411 4f80 	tst.w	r1, #16384	; 0x4000
   87b8a:	d0fa      	beq.n	87b82 <udd_enable+0xbe>
   87b8c:	f241 5394 	movw	r3, #5524	; 0x1594
   87b90:	f2c2 0307 	movt	r3, #8199	; 0x2007
   87b94:	7d1a      	ldrb	r2, [r3, #20]
   87b96:	f002 00fe 	and.w	r0, r2, #254	; 0xfe
   87b9a:	f36f 0082 	bfc	r0, #2, #1
   87b9e:	7518      	strb	r0, [r3, #20]
   87ba0:	f893 102c 	ldrb.w	r1, [r3, #44]	; 0x2c
   87ba4:	f001 02fe 	and.w	r2, r1, #254	; 0xfe
   87ba8:	f36f 0282 	bfc	r2, #2, #1
   87bac:	f883 202c 	strb.w	r2, [r3, #44]	; 0x2c
   87bb0:	f893 0044 	ldrb.w	r0, [r3, #68]	; 0x44
   87bb4:	f000 01fe 	and.w	r1, r0, #254	; 0xfe
   87bb8:	f36f 0182 	bfc	r1, #2, #1
   87bbc:	f883 1044 	strb.w	r1, [r3, #68]	; 0x44
   87bc0:	f893 205c 	ldrb.w	r2, [r3, #92]	; 0x5c
   87bc4:	f002 00fe 	and.w	r0, r2, #254	; 0xfe
   87bc8:	f36f 0082 	bfc	r0, #2, #1
   87bcc:	f883 005c 	strb.w	r0, [r3, #92]	; 0x5c
   87bd0:	f893 1074 	ldrb.w	r1, [r3, #116]	; 0x74
   87bd4:	f001 02fe 	and.w	r2, r1, #254	; 0xfe
   87bd8:	f36f 0282 	bfc	r2, #2, #1
   87bdc:	f883 2074 	strb.w	r2, [r3, #116]	; 0x74
   87be0:	f44f 4340 	mov.w	r3, #49152	; 0xc000
   87be4:	f2c4 030a 	movt	r3, #16394	; 0x400a
   87be8:	f04f 0002 	mov.w	r0, #2
   87bec:	f8c3 0808 	str.w	r0, [r3, #2056]	; 0x808
   87bf0:	f8d3 1804 	ldr.w	r1, [r3, #2052]	; 0x804
   87bf4:	f411 6f00 	tst.w	r1, #2048	; 0x800
   87bf8:	d005      	beq.n	87c06 <udd_enable+0x142>
   87bfa:	f44f 4240 	mov.w	r2, #49152	; 0xc000
   87bfe:	f2c4 020a 	movt	r2, #16394	; 0x400a
   87c02:	f8c2 080c 	str.w	r0, [r2, #2060]	; 0x80c
   87c06:	f44f 4340 	mov.w	r3, #49152	; 0xc000
   87c0a:	f2c4 030a 	movt	r3, #16394	; 0x400a
   87c0e:	f8d3 0800 	ldr.w	r0, [r3, #2048]	; 0x800
   87c12:	f040 0102 	orr.w	r1, r0, #2
   87c16:	f8c3 1800 	str.w	r1, [r3, #2048]	; 0x800
   87c1a:	f8d3 2800 	ldr.w	r2, [r3, #2048]	; 0x800
   87c1e:	f442 4080 	orr.w	r0, r2, #16384	; 0x4000
   87c22:	f8c3 0800 	str.w	r0, [r3, #2048]	; 0x800
   87c26:	f241 538d 	movw	r3, #5517	; 0x158d
   87c2a:	f2c2 0307 	movt	r3, #8199	; 0x2007
   87c2e:	7819      	ldrb	r1, [r3, #0]
   87c30:	bb59      	cbnz	r1, 87c8a <udd_enable+0x1c6>
   87c32:	f241 508d 	movw	r0, #5517	; 0x158d
   87c36:	f2c2 0007 	movt	r0, #8199	; 0x2007
   87c3a:	f04f 0301 	mov.w	r3, #1
   87c3e:	7003      	strb	r3, [r0, #0]
   87c40:	f04f 0000 	mov.w	r0, #0
   87c44:	f241 5191 	movw	r1, #5521	; 0x1591
   87c48:	f2c2 0107 	movt	r1, #8199	; 0x2007
   87c4c:	7008      	strb	r0, [r1, #0]
   87c4e:	f3ef 8210 	mrs	r2, PRIMASK
   87c52:	b672      	cpsid	i
   87c54:	f3bf 8f5f 	dmb	sy
   87c58:	f240 2398 	movw	r3, #664	; 0x298
   87c5c:	f2c2 0307 	movt	r3, #8199	; 0x2007
   87c60:	7018      	strb	r0, [r3, #0]
   87c62:	f641 4010 	movw	r0, #7184	; 0x1c10
   87c66:	f2c2 0007 	movt	r0, #8199	; 0x2007
   87c6a:	78c1      	ldrb	r1, [r0, #3]
   87c6c:	f101 0101 	add.w	r1, r1, #1
   87c70:	70c1      	strb	r1, [r0, #3]
   87c72:	b98a      	cbnz	r2, 87c98 <udd_enable+0x1d4>
   87c74:	f240 2398 	movw	r3, #664	; 0x298
   87c78:	f2c2 0307 	movt	r3, #8199	; 0x2007
   87c7c:	f04f 0201 	mov.w	r2, #1
   87c80:	701a      	strb	r2, [r3, #0]
   87c82:	f3bf 8f5f 	dmb	sy
   87c86:	b662      	cpsie	i
   87c88:	e006      	b.n	87c98 <udd_enable+0x1d4>
   87c8a:	f04f 0000 	mov.w	r0, #0
   87c8e:	f247 42bd 	movw	r2, #29885	; 0x74bd
   87c92:	f2c0 0208 	movt	r2, #8
   87c96:	4790      	blx	r2
   87c98:	b94c      	cbnz	r4, 87cae <udd_enable+0x1ea>
   87c9a:	f240 2098 	movw	r0, #664	; 0x298
   87c9e:	f2c2 0007 	movt	r0, #8199	; 0x2007
   87ca2:	f04f 0101 	mov.w	r1, #1
   87ca6:	7001      	strb	r1, [r0, #0]
   87ca8:	f3bf 8f5f 	dmb	sy
   87cac:	b662      	cpsie	i
   87cae:	bd10      	pop	{r4, pc}

00087cb0 <udd_attach>:
   87cb0:	b570      	push	{r4, r5, r6, lr}
   87cb2:	f3ef 8410 	mrs	r4, PRIMASK
   87cb6:	b672      	cpsid	i
   87cb8:	f3bf 8f5f 	dmb	sy
   87cbc:	f240 2398 	movw	r3, #664	; 0x298
   87cc0:	f2c2 0307 	movt	r3, #8199	; 0x2007
   87cc4:	f04f 0200 	mov.w	r2, #0
   87cc8:	701a      	strb	r2, [r3, #0]
   87cca:	f04f 0001 	mov.w	r0, #1
   87cce:	f247 41bd 	movw	r1, #29885	; 0x74bd
   87cd2:	f2c0 0108 	movt	r1, #8
   87cd6:	4788      	blx	r1
   87cd8:	f44f 4040 	mov.w	r0, #49152	; 0xc000
   87cdc:	f2c4 000a 	movt	r0, #16394	; 0x400a
   87ce0:	f8d0 5800 	ldr.w	r5, [r0, #2048]	; 0x800
   87ce4:	f425 4680 	bic.w	r6, r5, #16384	; 0x4000
   87ce8:	f8c0 6800 	str.w	r6, [r0, #2048]	; 0x800
   87cec:	f44f 4240 	mov.w	r2, #49152	; 0xc000
   87cf0:	f2c4 020a 	movt	r2, #16394	; 0x400a
   87cf4:	f8d2 3804 	ldr.w	r3, [r2, #2052]	; 0x804
   87cf8:	f413 4f80 	tst.w	r3, #16384	; 0x4000
   87cfc:	d0fa      	beq.n	87cf4 <udd_attach+0x44>
   87cfe:	f44f 4340 	mov.w	r3, #49152	; 0xc000
   87d02:	f2c4 030a 	movt	r3, #16394	; 0x400a
   87d06:	6819      	ldr	r1, [r3, #0]
   87d08:	f421 7080 	bic.w	r0, r1, #256	; 0x100
   87d0c:	6018      	str	r0, [r3, #0]
   87d0e:	f04f 0608 	mov.w	r6, #8
   87d12:	619e      	str	r6, [r3, #24]
   87d14:	f04f 0101 	mov.w	r1, #1
   87d18:	6199      	str	r1, [r3, #24]
   87d1a:	f04f 0210 	mov.w	r2, #16
   87d1e:	619a      	str	r2, [r3, #24]
   87d20:	f04f 0504 	mov.w	r5, #4
   87d24:	619d      	str	r5, [r3, #24]
   87d26:	f04f 0002 	mov.w	r0, #2
   87d2a:	6198      	str	r0, [r3, #24]
   87d2c:	609e      	str	r6, [r3, #8]
   87d2e:	609d      	str	r5, [r3, #8]
   87d30:	6098      	str	r0, [r3, #8]
   87d32:	60d9      	str	r1, [r3, #12]
   87d34:	609a      	str	r2, [r3, #8]
   87d36:	f8d3 2800 	ldr.w	r2, [r3, #2048]	; 0x800
   87d3a:	f442 4080 	orr.w	r0, r2, #16384	; 0x4000
   87d3e:	f8c3 0800 	str.w	r0, [r3, #2048]	; 0x800
   87d42:	b93c      	cbnz	r4, 87d54 <udd_attach+0xa4>
   87d44:	f240 2398 	movw	r3, #664	; 0x298
   87d48:	f2c2 0307 	movt	r3, #8199	; 0x2007
   87d4c:	7019      	strb	r1, [r3, #0]
   87d4e:	f3bf 8f5f 	dmb	sy
   87d52:	b662      	cpsie	i
   87d54:	bd70      	pop	{r4, r5, r6, pc}
   87d56:	bf00      	nop

00087d58 <udd_detach>:
   87d58:	b508      	push	{r3, lr}
   87d5a:	f44f 4340 	mov.w	r3, #49152	; 0xc000
   87d5e:	f2c4 030a 	movt	r3, #16394	; 0x400a
   87d62:	f8d3 2800 	ldr.w	r2, [r3, #2048]	; 0x800
   87d66:	f422 4080 	bic.w	r0, r2, #16384	; 0x4000
   87d6a:	f8c3 0800 	str.w	r0, [r3, #2048]	; 0x800
   87d6e:	6819      	ldr	r1, [r3, #0]
   87d70:	f441 7280 	orr.w	r2, r1, #256	; 0x100
   87d74:	601a      	str	r2, [r3, #0]
   87d76:	f8d3 0800 	ldr.w	r0, [r3, #2048]	; 0x800
   87d7a:	f440 4180 	orr.w	r1, r0, #16384	; 0x4000
   87d7e:	f8c3 1800 	str.w	r1, [r3, #2048]	; 0x800
   87d82:	f04f 0000 	mov.w	r0, #0
   87d86:	f247 43bd 	movw	r3, #29885	; 0x74bd
   87d8a:	f2c0 0308 	movt	r3, #8
   87d8e:	4798      	blx	r3
   87d90:	bd08      	pop	{r3, pc}
   87d92:	bf00      	nop

00087d94 <UOTGHS_Handler>:
   87d94:	b570      	push	{r4, r5, r6, lr}
   87d96:	f247 43ad 	movw	r3, #29869	; 0x74ad
   87d9a:	f2c0 0308 	movt	r3, #8
   87d9e:	4798      	blx	r3
   87da0:	b990      	cbnz	r0, 87dc8 <UOTGHS_Handler+0x34>
   87da2:	f44f 4040 	mov.w	r0, #49152	; 0xc000
   87da6:	f2c4 000a 	movt	r0, #16394	; 0x400a
   87daa:	6841      	ldr	r1, [r0, #4]
   87dac:	f011 0f01 	tst.w	r1, #1
   87db0:	d10a      	bne.n	87dc8 <UOTGHS_Handler+0x34>
   87db2:	b672      	cpsid	i
   87db4:	f3bf 8f5f 	dmb	sy
   87db8:	f240 2098 	movw	r0, #664	; 0x298
   87dbc:	f2c2 0007 	movt	r0, #8199	; 0x2007
   87dc0:	f04f 0200 	mov.w	r2, #0
   87dc4:	7002      	strb	r2, [r0, #0]
   87dc6:	bd70      	pop	{r4, r5, r6, pc}
   87dc8:	f44f 4240 	mov.w	r2, #49152	; 0xc000
   87dcc:	f2c4 020a 	movt	r2, #16394	; 0x400a
   87dd0:	6853      	ldr	r3, [r2, #4]
   87dd2:	f013 0f04 	tst.w	r3, #4
   87dd6:	d016      	beq.n	87e06 <UOTGHS_Handler+0x72>
   87dd8:	f44f 4140 	mov.w	r1, #49152	; 0xc000
   87ddc:	f2c4 010a 	movt	r1, #16394	; 0x400a
   87de0:	f04f 0004 	mov.w	r0, #4
   87de4:	6088      	str	r0, [r1, #8]
   87de6:	f8d1 2804 	ldr.w	r2, [r1, #2052]	; 0x804
   87dea:	f412 5f40 	tst.w	r2, #12288	; 0x3000
   87dee:	d104      	bne.n	87dfa <UOTGHS_Handler+0x66>
   87df0:	f246 737d 	movw	r3, #26493	; 0x677d
   87df4:	f2c0 0308 	movt	r3, #8
   87df8:	4798      	blx	r3
   87dfa:	f644 01f1 	movw	r1, #18673	; 0x48f1
   87dfe:	f2c0 0108 	movt	r1, #8
   87e02:	4788      	blx	r1
   87e04:	bd70      	pop	{r4, r5, r6, pc}
   87e06:	f44f 4040 	mov.w	r0, #49152	; 0xc000
   87e0a:	f2c4 000a 	movt	r0, #16394	; 0x400a
   87e0e:	6841      	ldr	r1, [r0, #4]
   87e10:	f011 0f02 	tst.w	r1, #2
   87e14:	d00c      	beq.n	87e30 <UOTGHS_Handler+0x9c>
   87e16:	f44f 4040 	mov.w	r0, #49152	; 0xc000
   87e1a:	f2c4 000a 	movt	r0, #16394	; 0x400a
   87e1e:	f04f 0202 	mov.w	r2, #2
   87e22:	6082      	str	r2, [r0, #8]
   87e24:	f246 737d 	movw	r3, #26493	; 0x677d
   87e28:	f2c0 0308 	movt	r3, #8
   87e2c:	4798      	blx	r3
   87e2e:	bd70      	pop	{r4, r5, r6, pc}
   87e30:	f44f 4240 	mov.w	r2, #49152	; 0xc000
   87e34:	f2c4 020a 	movt	r2, #16394	; 0x400a
   87e38:	6853      	ldr	r3, [r2, #4]
   87e3a:	f413 5f80 	tst.w	r3, #4096	; 0x1000
   87e3e:	f000 8459 	beq.w	886f4 <UOTGHS_Handler+0x960>
   87e42:	f24c 2020 	movw	r0, #49696	; 0xc220
   87e46:	f2c4 000a 	movt	r0, #16394	; 0x400a
   87e4a:	f04f 0110 	mov.w	r1, #16
   87e4e:	6001      	str	r1, [r0, #0]
   87e50:	f04f 0208 	mov.w	r2, #8
   87e54:	6002      	str	r2, [r0, #0]
   87e56:	f24c 1330 	movw	r3, #49456	; 0xc130
   87e5a:	f2c4 030a 	movt	r3, #16394	; 0x400a
   87e5e:	6818      	ldr	r0, [r3, #0]
   87e60:	f010 0f04 	tst.w	r0, #4
   87e64:	f000 80d9 	beq.w	8801a <UOTGHS_Handler+0x286>
   87e68:	f241 610c 	movw	r1, #5644	; 0x160c
   87e6c:	f2c2 0107 	movt	r1, #8199	; 0x2007
   87e70:	780a      	ldrb	r2, [r1, #0]
   87e72:	b14a      	cbz	r2, 87e88 <UOTGHS_Handler+0xf4>
   87e74:	f247 604d 	movw	r0, #30285	; 0x764d
   87e78:	f2c0 0008 	movt	r0, #8
   87e7c:	4780      	blx	r0
   87e7e:	f247 5369 	movw	r3, #30057	; 0x7569
   87e82:	f2c0 0308 	movt	r3, #8
   87e86:	4798      	blx	r3
   87e88:	f24c 1130 	movw	r1, #49456	; 0xc130
   87e8c:	f2c4 010a 	movt	r1, #16394	; 0x400a
   87e90:	680a      	ldr	r2, [r1, #0]
   87e92:	f3c2 500a 	ubfx	r0, r2, #20, #11
   87e96:	2808      	cmp	r0, #8
   87e98:	d00c      	beq.n	87eb4 <UOTGHS_Handler+0x120>
   87e9a:	f247 51cd 	movw	r1, #30157	; 0x75cd
   87e9e:	f2c0 0108 	movt	r1, #8
   87ea2:	4788      	blx	r1
   87ea4:	f24c 1360 	movw	r3, #49504	; 0xc160
   87ea8:	f2c4 030a 	movt	r3, #16394	; 0x400a
   87eac:	f04f 0204 	mov.w	r2, #4
   87eb0:	601a      	str	r2, [r3, #0]
   87eb2:	bd70      	pop	{r4, r5, r6, pc}
   87eb4:	f04f 0300 	mov.w	r3, #0
   87eb8:	f2c2 0318 	movt	r3, #8216	; 0x2018
   87ebc:	7819      	ldrb	r1, [r3, #0]
   87ebe:	f641 4018 	movw	r0, #7192	; 0x1c18
   87ec2:	f2c2 0007 	movt	r0, #8199	; 0x2007
   87ec6:	7001      	strb	r1, [r0, #0]
   87ec8:	f04f 0201 	mov.w	r2, #1
   87ecc:	f2c2 0218 	movt	r2, #8216	; 0x2018
   87ed0:	7813      	ldrb	r3, [r2, #0]
   87ed2:	7043      	strb	r3, [r0, #1]
   87ed4:	f04f 0102 	mov.w	r1, #2
   87ed8:	f2c2 0118 	movt	r1, #8216	; 0x2018
   87edc:	780a      	ldrb	r2, [r1, #0]
   87ede:	7082      	strb	r2, [r0, #2]
   87ee0:	f04f 0303 	mov.w	r3, #3
   87ee4:	f2c2 0318 	movt	r3, #8216	; 0x2018
   87ee8:	7819      	ldrb	r1, [r3, #0]
   87eea:	70c1      	strb	r1, [r0, #3]
   87eec:	f04f 0204 	mov.w	r2, #4
   87ef0:	f2c2 0218 	movt	r2, #8216	; 0x2018
   87ef4:	7813      	ldrb	r3, [r2, #0]
   87ef6:	7103      	strb	r3, [r0, #4]
   87ef8:	f04f 0105 	mov.w	r1, #5
   87efc:	f2c2 0118 	movt	r1, #8216	; 0x2018
   87f00:	780a      	ldrb	r2, [r1, #0]
   87f02:	7142      	strb	r2, [r0, #5]
   87f04:	f04f 0306 	mov.w	r3, #6
   87f08:	f2c2 0318 	movt	r3, #8216	; 0x2018
   87f0c:	7819      	ldrb	r1, [r3, #0]
   87f0e:	7181      	strb	r1, [r0, #6]
   87f10:	f04f 0207 	mov.w	r2, #7
   87f14:	f2c2 0218 	movt	r2, #8216	; 0x2018
   87f18:	7813      	ldrb	r3, [r2, #0]
   87f1a:	71c3      	strb	r3, [r0, #7]
   87f1c:	f246 70c5 	movw	r0, #26565	; 0x67c5
   87f20:	f2c0 0008 	movt	r0, #8
   87f24:	4780      	blx	r0
   87f26:	b960      	cbnz	r0, 87f42 <UOTGHS_Handler+0x1ae>
   87f28:	f247 52cd 	movw	r2, #30157	; 0x75cd
   87f2c:	f2c0 0208 	movt	r2, #8
   87f30:	4790      	blx	r2
   87f32:	f24c 1360 	movw	r3, #49504	; 0xc160
   87f36:	f2c4 030a 	movt	r3, #16394	; 0x400a
   87f3a:	f04f 0004 	mov.w	r0, #4
   87f3e:	6018      	str	r0, [r3, #0]
   87f40:	bd70      	pop	{r4, r5, r6, pc}
   87f42:	f24c 1160 	movw	r1, #49504	; 0xc160
   87f46:	f2c4 010a 	movt	r1, #16394	; 0x400a
   87f4a:	f04f 0204 	mov.w	r2, #4
   87f4e:	600a      	str	r2, [r1, #0]
   87f50:	f641 4318 	movw	r3, #7192	; 0x1c18
   87f54:	f2c2 0307 	movt	r3, #8199	; 0x2007
   87f58:	f993 0000 	ldrsb.w	r0, [r3]
   87f5c:	2800      	cmp	r0, #0
   87f5e:	da18      	bge.n	87f92 <UOTGHS_Handler+0x1fe>
   87f60:	f04f 0000 	mov.w	r0, #0
   87f64:	f241 518e 	movw	r1, #5518	; 0x158e
   87f68:	f2c2 0107 	movt	r1, #8199	; 0x2007
   87f6c:	8008      	strh	r0, [r1, #0]
   87f6e:	f241 620e 	movw	r2, #5646	; 0x160e
   87f72:	f2c2 0207 	movt	r2, #8199	; 0x2007
   87f76:	8010      	strh	r0, [r2, #0]
   87f78:	f241 630c 	movw	r3, #5644	; 0x160c
   87f7c:	f2c2 0307 	movt	r3, #8199	; 0x2007
   87f80:	f04f 0002 	mov.w	r0, #2
   87f84:	7018      	strb	r0, [r3, #0]
   87f86:	f247 6161 	movw	r1, #30305	; 0x7661
   87f8a:	f2c0 0108 	movt	r1, #8
   87f8e:	4788      	blx	r1
   87f90:	bd70      	pop	{r4, r5, r6, pc}
   87f92:	f641 4118 	movw	r1, #7192	; 0x1c18
   87f96:	f2c2 0107 	movt	r1, #8199	; 0x2007
   87f9a:	88ca      	ldrh	r2, [r1, #6]
   87f9c:	b92a      	cbnz	r2, 87faa <UOTGHS_Handler+0x216>
   87f9e:	f247 53ed 	movw	r3, #30189	; 0x75ed
   87fa2:	f2c0 0308 	movt	r3, #8
   87fa6:	4798      	blx	r3
   87fa8:	bd70      	pop	{r4, r5, r6, pc}
   87faa:	f04f 0300 	mov.w	r3, #0
   87fae:	4618      	mov	r0, r3
   87fb0:	f241 518e 	movw	r1, #5518	; 0x158e
   87fb4:	f2c2 0107 	movt	r1, #8199	; 0x2007
   87fb8:	800b      	strh	r3, [r1, #0]
   87fba:	f241 620e 	movw	r2, #5646	; 0x160e
   87fbe:	f2c2 0207 	movt	r2, #8199	; 0x2007
   87fc2:	8013      	strh	r3, [r2, #0]
   87fc4:	f241 630c 	movw	r3, #5644	; 0x160c
   87fc8:	f2c2 0307 	movt	r3, #8199	; 0x2007
   87fcc:	f04f 0101 	mov.w	r1, #1
   87fd0:	7019      	strb	r1, [r3, #0]
   87fd2:	f24c 1360 	movw	r3, #49504	; 0xc160
   87fd6:	f2c4 030a 	movt	r3, #16394	; 0x400a
   87fda:	f04f 0210 	mov.w	r2, #16
   87fde:	601a      	str	r2, [r3, #0]
   87fe0:	f3ef 8110 	mrs	r1, PRIMASK
   87fe4:	b672      	cpsid	i
   87fe6:	f3bf 8f5f 	dmb	sy
   87fea:	f240 2398 	movw	r3, #664	; 0x298
   87fee:	f2c2 0307 	movt	r3, #8199	; 0x2007
   87ff2:	7018      	strb	r0, [r3, #0]
   87ff4:	f24c 10f0 	movw	r0, #49648	; 0xc1f0
   87ff8:	f2c4 000a 	movt	r0, #16394	; 0x400a
   87ffc:	6002      	str	r2, [r0, #0]
   87ffe:	2900      	cmp	r1, #0
   88000:	f040 8471 	bne.w	888e6 <UOTGHS_Handler+0xb52>
   88004:	f240 2198 	movw	r1, #664	; 0x298
   88008:	f2c2 0107 	movt	r1, #8199	; 0x2007
   8800c:	f04f 0201 	mov.w	r2, #1
   88010:	700a      	strb	r2, [r1, #0]
   88012:	f3bf 8f5f 	dmb	sy
   88016:	b662      	cpsie	i
   88018:	bd70      	pop	{r4, r5, r6, pc}
   8801a:	f24c 1130 	movw	r1, #49456	; 0xc130
   8801e:	f2c4 010a 	movt	r1, #16394	; 0x400a
   88022:	680a      	ldr	r2, [r1, #0]
   88024:	f012 0f01 	tst.w	r2, #1
   88028:	d00d      	beq.n	88046 <UOTGHS_Handler+0x2b2>
   8802a:	f24c 13c0 	movw	r3, #49600	; 0xc1c0
   8802e:	f2c4 030a 	movt	r3, #16394	; 0x400a
   88032:	6818      	ldr	r0, [r3, #0]
   88034:	f010 0f01 	tst.w	r0, #1
   88038:	d005      	beq.n	88046 <UOTGHS_Handler+0x2b2>
   8803a:	f247 6361 	movw	r3, #30305	; 0x7661
   8803e:	f2c0 0308 	movt	r3, #8
   88042:	4798      	blx	r3
   88044:	bd70      	pop	{r4, r5, r6, pc}
   88046:	f24c 1130 	movw	r1, #49456	; 0xc130
   8804a:	f2c4 010a 	movt	r1, #16394	; 0x400a
   8804e:	680a      	ldr	r2, [r1, #0]
   88050:	f012 0f02 	tst.w	r2, #2
   88054:	f000 80de 	beq.w	88214 <UOTGHS_Handler+0x480>
   88058:	f241 600c 	movw	r0, #5644	; 0x160c
   8805c:	f2c2 0007 	movt	r0, #8199	; 0x2007
   88060:	7801      	ldrb	r1, [r0, #0]
   88062:	2901      	cmp	r1, #1
   88064:	d014      	beq.n	88090 <UOTGHS_Handler+0x2fc>
   88066:	2902      	cmp	r1, #2
   88068:	d001      	beq.n	8806e <UOTGHS_Handler+0x2da>
   8806a:	2904      	cmp	r1, #4
   8806c:	d105      	bne.n	8807a <UOTGHS_Handler+0x2e6>
   8806e:	f247 624d 	movw	r2, #30285	; 0x764d
   88072:	f2c0 0208 	movt	r2, #8
   88076:	4790      	blx	r2
   88078:	e004      	b.n	88084 <UOTGHS_Handler+0x2f0>
   8807a:	f247 51cd 	movw	r1, #30157	; 0x75cd
   8807e:	f2c0 0108 	movt	r1, #8
   88082:	4788      	blx	r1
   88084:	f247 5069 	movw	r0, #30057	; 0x7569
   88088:	f2c0 0008 	movt	r0, #8
   8808c:	4780      	blx	r0
   8808e:	bd70      	pop	{r4, r5, r6, pc}
   88090:	f24c 1430 	movw	r4, #49456	; 0xc130
   88094:	f2c4 040a 	movt	r4, #16394	; 0x400a
   88098:	6826      	ldr	r6, [r4, #0]
   8809a:	f3c6 540a 	ubfx	r4, r6, #20, #11
   8809e:	f641 4318 	movw	r3, #7192	; 0x1c18
   880a2:	f2c2 0307 	movt	r3, #8199	; 0x2007
   880a6:	8998      	ldrh	r0, [r3, #12]
   880a8:	f241 620e 	movw	r2, #5646	; 0x160e
   880ac:	f2c2 0207 	movt	r2, #8199	; 0x2007
   880b0:	8816      	ldrh	r6, [r2, #0]
   880b2:	1931      	adds	r1, r6, r4
   880b4:	4288      	cmp	r0, r1
   880b6:	bfae      	itee	ge
   880b8:	b2a4      	uxthge	r4, r4
   880ba:	ebc6 0000 	rsblt	r0, r6, r0
   880be:	b284      	uxthlt	r4, r0
   880c0:	f641 4318 	movw	r3, #7192	; 0x1c18
   880c4:	f2c2 0307 	movt	r3, #8199	; 0x2007
   880c8:	6898      	ldr	r0, [r3, #8]
   880ca:	1982      	adds	r2, r0, r6
   880cc:	b3b4      	cbz	r4, 8813c <UOTGHS_Handler+0x3a8>
   880ce:	f04f 0300 	mov.w	r3, #0
   880d2:	f2c2 0318 	movt	r3, #8216	; 0x2018
   880d6:	ea6f 0103 	mvn.w	r1, r3
   880da:	1908      	adds	r0, r1, r4
   880dc:	f000 0101 	and.w	r1, r0, #1
   880e0:	f813 0b01 	ldrb.w	r0, [r3], #1
   880e4:	f802 0b01 	strb.w	r0, [r2], #1
   880e8:	b2d8      	uxtb	r0, r3
   880ea:	42a0      	cmp	r0, r4
   880ec:	f0c0 83fc 	bcc.w	888e8 <UOTGHS_Handler+0xb54>
   880f0:	e00e      	b.n	88110 <UOTGHS_Handler+0x37c>
   880f2:	4618      	mov	r0, r3
   880f4:	f810 5b01 	ldrb.w	r5, [r0], #1
   880f8:	4611      	mov	r1, r2
   880fa:	f801 5b01 	strb.w	r5, [r1], #1
   880fe:	785d      	ldrb	r5, [r3, #1]
   88100:	f100 0301 	add.w	r3, r0, #1
   88104:	7055      	strb	r5, [r2, #1]
   88106:	f101 0201 	add.w	r2, r1, #1
   8810a:	b2d8      	uxtb	r0, r3
   8810c:	42a0      	cmp	r0, r4
   8810e:	d3f0      	bcc.n	880f2 <UOTGHS_Handler+0x35e>
   88110:	19a6      	adds	r6, r4, r6
   88112:	b2b6      	uxth	r6, r6
   88114:	f241 620e 	movw	r2, #5646	; 0x160e
   88118:	f2c2 0207 	movt	r2, #8199	; 0x2007
   8811c:	8016      	strh	r6, [r2, #0]
   8811e:	2c40      	cmp	r4, #64	; 0x40
   88120:	d10c      	bne.n	8813c <UOTGHS_Handler+0x3a8>
   88122:	f641 4318 	movw	r3, #7192	; 0x1c18
   88126:	f2c2 0307 	movt	r3, #8199	; 0x2007
   8812a:	88d9      	ldrh	r1, [r3, #6]
   8812c:	f241 508e 	movw	r0, #5518	; 0x158e
   88130:	f2c2 0007 	movt	r0, #8199	; 0x2007
   88134:	8802      	ldrh	r2, [r0, #0]
   88136:	1993      	adds	r3, r2, r6
   88138:	4299      	cmp	r1, r3
   8813a:	dc22      	bgt.n	88182 <UOTGHS_Handler+0x3ee>
   8813c:	f641 4118 	movw	r1, #7192	; 0x1c18
   88140:	f2c2 0107 	movt	r1, #8199	; 0x2007
   88144:	818e      	strh	r6, [r1, #12]
   88146:	694a      	ldr	r2, [r1, #20]
   88148:	b172      	cbz	r2, 88168 <UOTGHS_Handler+0x3d4>
   8814a:	4790      	blx	r2
   8814c:	b960      	cbnz	r0, 88168 <UOTGHS_Handler+0x3d4>
   8814e:	f247 52cd 	movw	r2, #30157	; 0x75cd
   88152:	f2c0 0208 	movt	r2, #8
   88156:	4790      	blx	r2
   88158:	f24c 1060 	movw	r0, #49504	; 0xc160
   8815c:	f2c4 000a 	movt	r0, #16394	; 0x400a
   88160:	f04f 0302 	mov.w	r3, #2
   88164:	6003      	str	r3, [r0, #0]
   88166:	bd70      	pop	{r4, r5, r6, pc}
   88168:	f24c 1060 	movw	r0, #49504	; 0xc160
   8816c:	f2c4 000a 	movt	r0, #16394	; 0x400a
   88170:	f04f 0302 	mov.w	r3, #2
   88174:	6003      	str	r3, [r0, #0]
   88176:	f247 51ed 	movw	r1, #30189	; 0x75ed
   8817a:	f2c0 0108 	movt	r1, #8
   8817e:	4788      	blx	r1
   88180:	bd70      	pop	{r4, r5, r6, pc}
   88182:	49ae      	ldr	r1, [pc, #696]	; (8843c <UOTGHS_Handler+0x6a8>)
   88184:	8988      	ldrh	r0, [r1, #12]
   88186:	42b0      	cmp	r0, r6
   88188:	d121      	bne.n	881ce <UOTGHS_Handler+0x43a>
   8818a:	4aac      	ldr	r2, [pc, #688]	; (8843c <UOTGHS_Handler+0x6a8>)
   8818c:	6953      	ldr	r3, [r2, #20]
   8818e:	b94b      	cbnz	r3, 881a4 <UOTGHS_Handler+0x410>
   88190:	4aab      	ldr	r2, [pc, #684]	; (88440 <UOTGHS_Handler+0x6ac>)
   88192:	4790      	blx	r2
   88194:	f24c 1060 	movw	r0, #49504	; 0xc160
   88198:	f2c4 000a 	movt	r0, #16394	; 0x400a
   8819c:	f04f 0302 	mov.w	r3, #2
   881a0:	6003      	str	r3, [r0, #0]
   881a2:	bd70      	pop	{r4, r5, r6, pc}
   881a4:	4798      	blx	r3
   881a6:	b948      	cbnz	r0, 881bc <UOTGHS_Handler+0x428>
   881a8:	48a5      	ldr	r0, [pc, #660]	; (88440 <UOTGHS_Handler+0x6ac>)
   881aa:	4780      	blx	r0
   881ac:	f24c 1360 	movw	r3, #49504	; 0xc160
   881b0:	f2c4 030a 	movt	r3, #16394	; 0x400a
   881b4:	f04f 0102 	mov.w	r1, #2
   881b8:	6019      	str	r1, [r3, #0]
   881ba:	bd70      	pop	{r4, r5, r6, pc}
   881bc:	4aa1      	ldr	r2, [pc, #644]	; (88444 <UOTGHS_Handler+0x6b0>)
   881be:	4ba2      	ldr	r3, [pc, #648]	; (88448 <UOTGHS_Handler+0x6b4>)
   881c0:	8818      	ldrh	r0, [r3, #0]
   881c2:	8811      	ldrh	r1, [r2, #0]
   881c4:	1840      	adds	r0, r0, r1
   881c6:	8010      	strh	r0, [r2, #0]
   881c8:	f04f 0200 	mov.w	r2, #0
   881cc:	801a      	strh	r2, [r3, #0]
   881ce:	f24c 1360 	movw	r3, #49504	; 0xc160
   881d2:	f2c4 030a 	movt	r3, #16394	; 0x400a
   881d6:	f04f 0102 	mov.w	r1, #2
   881da:	6019      	str	r1, [r3, #0]
   881dc:	f04f 0210 	mov.w	r2, #16
   881e0:	601a      	str	r2, [r3, #0]
   881e2:	f3ef 8110 	mrs	r1, PRIMASK
   881e6:	b672      	cpsid	i
   881e8:	f3bf 8f5f 	dmb	sy
   881ec:	4b97      	ldr	r3, [pc, #604]	; (8844c <UOTGHS_Handler+0x6b8>)
   881ee:	f04f 0000 	mov.w	r0, #0
   881f2:	7018      	strb	r0, [r3, #0]
   881f4:	f24c 13f0 	movw	r3, #49648	; 0xc1f0
   881f8:	f2c4 030a 	movt	r3, #16394	; 0x400a
   881fc:	601a      	str	r2, [r3, #0]
   881fe:	2900      	cmp	r1, #0
   88200:	f040 8371 	bne.w	888e6 <UOTGHS_Handler+0xb52>
   88204:	4991      	ldr	r1, [pc, #580]	; (8844c <UOTGHS_Handler+0x6b8>)
   88206:	f04f 0201 	mov.w	r2, #1
   8820a:	700a      	strb	r2, [r1, #0]
   8820c:	f3bf 8f5f 	dmb	sy
   88210:	b662      	cpsie	i
   88212:	bd70      	pop	{r4, r5, r6, pc}
   88214:	f24c 1330 	movw	r3, #49456	; 0xc130
   88218:	f2c4 030a 	movt	r3, #16394	; 0x400a
   8821c:	6818      	ldr	r0, [r3, #0]
   8821e:	f010 0f08 	tst.w	r0, #8
   88222:	d01f      	beq.n	88264 <UOTGHS_Handler+0x4d0>
   88224:	f24c 1060 	movw	r0, #49504	; 0xc160
   88228:	f2c4 000a 	movt	r0, #16394	; 0x400a
   8822c:	f04f 0108 	mov.w	r1, #8
   88230:	6001      	str	r1, [r0, #0]
   88232:	f24c 1230 	movw	r2, #49456	; 0xc130
   88236:	f2c4 020a 	movt	r2, #16394	; 0x400a
   8823a:	6813      	ldr	r3, [r2, #0]
   8823c:	f013 0f01 	tst.w	r3, #1
   88240:	f040 8351 	bne.w	888e6 <UOTGHS_Handler+0xb52>
   88244:	f241 600c 	movw	r0, #5644	; 0x160c
   88248:	f2c2 0007 	movt	r0, #8199	; 0x2007
   8824c:	7801      	ldrb	r1, [r0, #0]
   8824e:	2903      	cmp	r1, #3
   88250:	f040 8349 	bne.w	888e6 <UOTGHS_Handler+0xb52>
   88254:	f24c 13f0 	movw	r3, #49648	; 0xc1f0
   88258:	f2c4 030a 	movt	r3, #16394	; 0x400a
   8825c:	f44f 2200 	mov.w	r2, #524288	; 0x80000
   88260:	601a      	str	r2, [r3, #0]
   88262:	bd70      	pop	{r4, r5, r6, pc}
   88264:	f24c 1130 	movw	r1, #49456	; 0xc130
   88268:	f2c4 010a 	movt	r1, #16394	; 0x400a
   8826c:	680a      	ldr	r2, [r1, #0]
   8826e:	f012 0f10 	tst.w	r2, #16
   88272:	f000 823f 	beq.w	886f4 <UOTGHS_Handler+0x960>
   88276:	f24c 1360 	movw	r3, #49504	; 0xc160
   8827a:	f2c4 030a 	movt	r3, #16394	; 0x400a
   8827e:	f04f 0010 	mov.w	r0, #16
   88282:	6018      	str	r0, [r3, #0]
   88284:	f24c 1130 	movw	r1, #49456	; 0xc130
   88288:	f2c4 010a 	movt	r1, #16394	; 0x400a
   8828c:	680a      	ldr	r2, [r1, #0]
   8828e:	f012 0f02 	tst.w	r2, #2
   88292:	f040 8328 	bne.w	888e6 <UOTGHS_Handler+0xb52>
   88296:	f241 630c 	movw	r3, #5644	; 0x160c
   8829a:	f2c2 0307 	movt	r3, #8199	; 0x2007
   8829e:	7818      	ldrb	r0, [r3, #0]
   882a0:	2801      	cmp	r0, #1
   882a2:	d105      	bne.n	882b0 <UOTGHS_Handler+0x51c>
   882a4:	f247 53ed 	movw	r3, #30189	; 0x75ed
   882a8:	f2c0 0308 	movt	r3, #8
   882ac:	4798      	blx	r3
   882ae:	bd70      	pop	{r4, r5, r6, pc}
   882b0:	2804      	cmp	r0, #4
   882b2:	f040 8318 	bne.w	888e6 <UOTGHS_Handler+0xb52>
   882b6:	f24c 11f0 	movw	r1, #49648	; 0xc1f0
   882ba:	f2c4 010a 	movt	r1, #16394	; 0x400a
   882be:	f44f 2200 	mov.w	r2, #524288	; 0x80000
   882c2:	600a      	str	r2, [r1, #0]
   882c4:	bd70      	pop	{r4, r5, r6, pc}
   882c6:	f44f 4340 	mov.w	r3, #49152	; 0xc000
   882ca:	f2c4 030a 	movt	r3, #16394	; 0x400a
   882ce:	685a      	ldr	r2, [r3, #4]
   882d0:	f012 5f00 	tst.w	r2, #536870912	; 0x20000000
   882d4:	d03c      	beq.n	88350 <UOTGHS_Handler+0x5bc>
   882d6:	f04f 0005 	mov.w	r0, #5
   882da:	f04f 5400 	mov.w	r4, #536870912	; 0x20000000
   882de:	495c      	ldr	r1, [pc, #368]	; (88450 <UOTGHS_Handler+0x6bc>)
   882e0:	e019      	b.n	88316 <UOTGHS_Handler+0x582>
   882e2:	f04f 0001 	mov.w	r0, #1
   882e6:	f04f 7400 	mov.w	r4, #33554432	; 0x2000000
   882ea:	f241 5194 	movw	r1, #5524	; 0x1594
   882ee:	f2c2 0107 	movt	r1, #8199	; 0x2007
   882f2:	e010      	b.n	88316 <UOTGHS_Handler+0x582>
   882f4:	f04f 0002 	mov.w	r0, #2
   882f8:	f04f 6480 	mov.w	r4, #67108864	; 0x4000000
   882fc:	4955      	ldr	r1, [pc, #340]	; (88454 <UOTGHS_Handler+0x6c0>)
   882fe:	e00a      	b.n	88316 <UOTGHS_Handler+0x582>
   88300:	f04f 0003 	mov.w	r0, #3
   88304:	f04f 6400 	mov.w	r4, #134217728	; 0x8000000
   88308:	4953      	ldr	r1, [pc, #332]	; (88458 <UOTGHS_Handler+0x6c4>)
   8830a:	e004      	b.n	88316 <UOTGHS_Handler+0x582>
   8830c:	f04f 0004 	mov.w	r0, #4
   88310:	f04f 5480 	mov.w	r4, #268435456	; 0x10000000
   88314:	4951      	ldr	r1, [pc, #324]	; (8845c <UOTGHS_Handler+0x6c8>)
   88316:	f44f 4243 	mov.w	r2, #49920	; 0xc300
   8831a:	f2c4 020a 	movt	r2, #16394	; 0x400a
   8831e:	eb02 1300 	add.w	r3, r2, r0, lsl #4
   88322:	68da      	ldr	r2, [r3, #12]
   88324:	f012 0f01 	tst.w	r2, #1
   88328:	f040 82dd 	bne.w	888e6 <UOTGHS_Handler+0xb52>
   8832c:	f44f 4240 	mov.w	r2, #49152	; 0xc000
   88330:	f2c4 020a 	movt	r2, #16394	; 0x400a
   88334:	6154      	str	r4, [r2, #20]
   88336:	68db      	ldr	r3, [r3, #12]
   88338:	0c1b      	lsrs	r3, r3, #16
   8833a:	d003      	beq.n	88344 <UOTGHS_Handler+0x5b0>
   8833c:	68ca      	ldr	r2, [r1, #12]
   8833e:	1ad3      	subs	r3, r2, r3
   88340:	60cb      	str	r3, [r1, #12]
   88342:	608b      	str	r3, [r1, #8]
   88344:	f647 1115 	movw	r1, #30997	; 0x7915
   88348:	f2c0 0108 	movt	r1, #8
   8834c:	4788      	blx	r1
   8834e:	bd70      	pop	{r4, r5, r6, pc}
   88350:	f44f 4040 	mov.w	r0, #49152	; 0xc000
   88354:	f2c4 000a 	movt	r0, #16394	; 0x400a
   88358:	6901      	ldr	r1, [r0, #16]
   8835a:	f411 3f00 	tst.w	r1, #131072	; 0x20000
   8835e:	f000 80a9 	beq.w	884b4 <UOTGHS_Handler+0x720>
   88362:	f24c 13d4 	movw	r3, #49620	; 0xc1d4
   88366:	f2c4 030a 	movt	r3, #16394	; 0x400a
   8836a:	681a      	ldr	r2, [r3, #0]
   8836c:	f012 0f01 	tst.w	r2, #1
   88370:	d03b      	beq.n	883ea <UOTGHS_Handler+0x656>
   88372:	f24c 1044 	movw	r0, #49476	; 0xc144
   88376:	f2c4 000a 	movt	r0, #16394	; 0x400a
   8837a:	6801      	ldr	r1, [r0, #0]
   8837c:	f011 0f01 	tst.w	r1, #1
   88380:	d033      	beq.n	883ea <UOTGHS_Handler+0x656>
   88382:	f04f 0205 	mov.w	r2, #5
   88386:	f04f 0314 	mov.w	r3, #20
   8838a:	4831      	ldr	r0, [pc, #196]	; (88450 <UOTGHS_Handler+0x6bc>)
   8838c:	e016      	b.n	883bc <UOTGHS_Handler+0x628>
   8838e:	f04f 0201 	mov.w	r2, #1
   88392:	f04f 0304 	mov.w	r3, #4
   88396:	4832      	ldr	r0, [pc, #200]	; (88460 <UOTGHS_Handler+0x6cc>)
   88398:	e010      	b.n	883bc <UOTGHS_Handler+0x628>
   8839a:	f04f 0202 	mov.w	r2, #2
   8839e:	f04f 0308 	mov.w	r3, #8
   883a2:	482c      	ldr	r0, [pc, #176]	; (88454 <UOTGHS_Handler+0x6c0>)
   883a4:	e00a      	b.n	883bc <UOTGHS_Handler+0x628>
   883a6:	f04f 0203 	mov.w	r2, #3
   883aa:	f04f 030c 	mov.w	r3, #12
   883ae:	482a      	ldr	r0, [pc, #168]	; (88458 <UOTGHS_Handler+0x6c4>)
   883b0:	e004      	b.n	883bc <UOTGHS_Handler+0x628>
   883b2:	f04f 0204 	mov.w	r2, #4
   883b6:	f04f 0310 	mov.w	r3, #16
   883ba:	4828      	ldr	r0, [pc, #160]	; (8845c <UOTGHS_Handler+0x6c8>)
   883bc:	f24c 2120 	movw	r1, #49696	; 0xc220
   883c0:	f2c4 010a 	movt	r1, #16394	; 0x400a
   883c4:	f04f 0501 	mov.w	r5, #1
   883c8:	505d      	str	r5, [r3, r1]
   883ca:	f24c 1460 	movw	r4, #49504	; 0xc160
   883ce:	f2c4 040a 	movt	r4, #16394	; 0x400a
   883d2:	511d      	str	r5, [r3, r4]
   883d4:	f44f 4480 	mov.w	r4, #16384	; 0x4000
   883d8:	505c      	str	r4, [r3, r1]
   883da:	f04f 0100 	mov.w	r1, #0
   883de:	f647 03b1 	movw	r3, #30897	; 0x78b1
   883e2:	f2c0 0308 	movt	r3, #8
   883e6:	4798      	blx	r3
   883e8:	bd70      	pop	{r4, r5, r6, pc}
   883ea:	f24c 13d4 	movw	r3, #49620	; 0xc1d4
   883ee:	f2c4 030a 	movt	r3, #16394	; 0x400a
   883f2:	681a      	ldr	r2, [r3, #0]
   883f4:	f412 5f80 	tst.w	r2, #4096	; 0x1000
   883f8:	d05c      	beq.n	884b4 <UOTGHS_Handler+0x720>
   883fa:	f24c 1044 	movw	r0, #49476	; 0xc144
   883fe:	f2c4 000a 	movt	r0, #16394	; 0x400a
   88402:	6801      	ldr	r1, [r0, #0]
   88404:	f411 5f40 	tst.w	r1, #12288	; 0x3000
   88408:	d154      	bne.n	884b4 <UOTGHS_Handler+0x720>
   8840a:	f04f 0314 	mov.w	r3, #20
   8840e:	f44f 3100 	mov.w	r1, #131072	; 0x20000
   88412:	4a0f      	ldr	r2, [pc, #60]	; (88450 <UOTGHS_Handler+0x6bc>)
   88414:	e02b      	b.n	8846e <UOTGHS_Handler+0x6da>
   88416:	f04f 0304 	mov.w	r3, #4
   8841a:	f44f 5100 	mov.w	r1, #8192	; 0x2000
   8841e:	4a10      	ldr	r2, [pc, #64]	; (88460 <UOTGHS_Handler+0x6cc>)
   88420:	e025      	b.n	8846e <UOTGHS_Handler+0x6da>
   88422:	f04f 0308 	mov.w	r3, #8
   88426:	f44f 4180 	mov.w	r1, #16384	; 0x4000
   8842a:	4a0a      	ldr	r2, [pc, #40]	; (88454 <UOTGHS_Handler+0x6c0>)
   8842c:	e01f      	b.n	8846e <UOTGHS_Handler+0x6da>
   8842e:	f04f 030c 	mov.w	r3, #12
   88432:	f44f 4100 	mov.w	r1, #32768	; 0x8000
   88436:	4a08      	ldr	r2, [pc, #32]	; (88458 <UOTGHS_Handler+0x6c4>)
   88438:	e019      	b.n	8846e <UOTGHS_Handler+0x6da>
   8843a:	bf00      	nop
   8843c:	20071c18 	.word	0x20071c18
   88440:	000875cd 	.word	0x000875cd
   88444:	2007158e 	.word	0x2007158e
   88448:	2007160e 	.word	0x2007160e
   8844c:	20070298 	.word	0x20070298
   88450:	200715f4 	.word	0x200715f4
   88454:	200715ac 	.word	0x200715ac
   88458:	200715c4 	.word	0x200715c4
   8845c:	200715dc 	.word	0x200715dc
   88460:	20071594 	.word	0x20071594
   88464:	f04f 0310 	mov.w	r3, #16
   88468:	f44f 3180 	mov.w	r1, #65536	; 0x10000
   8846c:	4abf      	ldr	r2, [pc, #764]	; (8876c <UOTGHS_Handler+0x9d8>)
   8846e:	f24c 2020 	movw	r0, #49696	; 0xc220
   88472:	f2c4 000a 	movt	r0, #16394	; 0x400a
   88476:	f44f 5480 	mov.w	r4, #4096	; 0x1000
   8847a:	501c      	str	r4, [r3, r0]
   8847c:	f44f 4040 	mov.w	r0, #49152	; 0xc000
   88480:	f2c4 000a 	movt	r0, #16394	; 0x400a
   88484:	6141      	str	r1, [r0, #20]
   88486:	7d11      	ldrb	r1, [r2, #20]
   88488:	f36f 0182 	bfc	r1, #2, #1
   8848c:	7511      	strb	r1, [r2, #20]
   8848e:	f44f 4241 	mov.w	r2, #49408	; 0xc100
   88492:	f2c4 020a 	movt	r2, #16394	; 0x400a
   88496:	5898      	ldr	r0, [r3, r2]
   88498:	f420 7100 	bic.w	r1, r0, #512	; 0x200
   8849c:	5099      	str	r1, [r3, r2]
   8849e:	f24c 12f0 	movw	r2, #49648	; 0xc1f0
   884a2:	f2c4 020a 	movt	r2, #16394	; 0x400a
   884a6:	f44f 2000 	mov.w	r0, #524288	; 0x80000
   884aa:	5098      	str	r0, [r3, r2]
   884ac:	f44f 2180 	mov.w	r1, #262144	; 0x40000
   884b0:	5099      	str	r1, [r3, r2]
   884b2:	bd70      	pop	{r4, r5, r6, pc}
   884b4:	f44f 4340 	mov.w	r3, #49152	; 0xc000
   884b8:	f2c4 030a 	movt	r3, #16394	; 0x400a
   884bc:	685a      	ldr	r2, [r3, #4]
   884be:	f012 0f08 	tst.w	r2, #8
   884c2:	d07a      	beq.n	885ba <UOTGHS_Handler+0x826>
   884c4:	f44f 4440 	mov.w	r4, #49152	; 0xc000
   884c8:	f2c4 040a 	movt	r4, #16394	; 0x400a
   884cc:	f04f 0508 	mov.w	r5, #8
   884d0:	60a5      	str	r5, [r4, #8]
   884d2:	f241 5694 	movw	r6, #5524	; 0x1594
   884d6:	f2c2 0607 	movt	r6, #8199	; 0x2007
   884da:	4630      	mov	r0, r6
   884dc:	f04f 0101 	mov.w	r1, #1
   884e0:	460a      	mov	r2, r1
   884e2:	f647 05b1 	movw	r5, #30897	; 0x78b1
   884e6:	f2c0 0508 	movt	r5, #8
   884ea:	47a8      	blx	r5
   884ec:	f106 0018 	add.w	r0, r6, #24
   884f0:	f04f 0101 	mov.w	r1, #1
   884f4:	f04f 0202 	mov.w	r2, #2
   884f8:	47a8      	blx	r5
   884fa:	f106 0030 	add.w	r0, r6, #48	; 0x30
   884fe:	f04f 0101 	mov.w	r1, #1
   88502:	f04f 0203 	mov.w	r2, #3
   88506:	47a8      	blx	r5
   88508:	f106 0048 	add.w	r0, r6, #72	; 0x48
   8850c:	f04f 0101 	mov.w	r1, #1
   88510:	f04f 0204 	mov.w	r2, #4
   88514:	47a8      	blx	r5
   88516:	f106 0060 	add.w	r0, r6, #96	; 0x60
   8851a:	f04f 0101 	mov.w	r1, #1
   8851e:	f04f 0205 	mov.w	r2, #5
   88522:	47a8      	blx	r5
   88524:	f246 7319 	movw	r3, #26393	; 0x6719
   88528:	f2c0 0308 	movt	r3, #8
   8852c:	4798      	blx	r3
   8852e:	6822      	ldr	r2, [r4, #0]
   88530:	f022 017f 	bic.w	r1, r2, #127	; 0x7f
   88534:	6021      	str	r1, [r4, #0]
   88536:	6820      	ldr	r0, [r4, #0]
   88538:	f040 0380 	orr.w	r3, r0, #128	; 0x80
   8853c:	6023      	str	r3, [r4, #0]
   8853e:	f44f 4141 	mov.w	r1, #49408	; 0xc100
   88542:	f2c4 010a 	movt	r1, #16394	; 0x400a
   88546:	680a      	ldr	r2, [r1, #0]
   88548:	f422 50cb 	bic.w	r0, r2, #6496	; 0x1960
   8854c:	f020 031c 	bic.w	r3, r0, #28
   88550:	f043 0230 	orr.w	r2, r3, #48	; 0x30
   88554:	600a      	str	r2, [r1, #0]
   88556:	6808      	ldr	r0, [r1, #0]
   88558:	f040 0302 	orr.w	r3, r0, #2
   8855c:	600b      	str	r3, [r1, #0]
   8855e:	69e1      	ldr	r1, [r4, #28]
   88560:	f041 0201 	orr.w	r2, r1, #1
   88564:	61e2      	str	r2, [r4, #28]
   88566:	f3ef 8010 	mrs	r0, PRIMASK
   8856a:	b672      	cpsid	i
   8856c:	f3bf 8f5f 	dmb	sy
   88570:	f240 2398 	movw	r3, #664	; 0x298
   88574:	f2c2 0307 	movt	r3, #8199	; 0x2007
   88578:	f04f 0100 	mov.w	r1, #0
   8857c:	7019      	strb	r1, [r3, #0]
   8857e:	f24c 12f0 	movw	r2, #49648	; 0xc1f0
   88582:	f2c4 020a 	movt	r2, #16394	; 0x400a
   88586:	f04f 0304 	mov.w	r3, #4
   8858a:	6013      	str	r3, [r2, #0]
   8858c:	f04f 0102 	mov.w	r1, #2
   88590:	6011      	str	r1, [r2, #0]
   88592:	f44f 5280 	mov.w	r2, #4096	; 0x1000
   88596:	61a2      	str	r2, [r4, #24]
   88598:	b948      	cbnz	r0, 885ae <UOTGHS_Handler+0x81a>
   8859a:	f240 2098 	movw	r0, #664	; 0x298
   8859e:	f2c2 0007 	movt	r0, #8199	; 0x2007
   885a2:	f04f 0301 	mov.w	r3, #1
   885a6:	7003      	strb	r3, [r0, #0]
   885a8:	f3bf 8f5f 	dmb	sy
   885ac:	b662      	cpsie	i
   885ae:	f247 5169 	movw	r1, #30057	; 0x7569
   885b2:	f2c0 0108 	movt	r1, #8
   885b6:	4788      	blx	r1
   885b8:	bd70      	pop	{r4, r5, r6, pc}
   885ba:	f44f 4040 	mov.w	r0, #49152	; 0xc000
   885be:	f2c4 000a 	movt	r0, #16394	; 0x400a
   885c2:	6901      	ldr	r1, [r0, #16]
   885c4:	f011 0f01 	tst.w	r1, #1
   885c8:	d02a      	beq.n	88620 <UOTGHS_Handler+0x88c>
   885ca:	f44f 4340 	mov.w	r3, #49152	; 0xc000
   885ce:	f2c4 030a 	movt	r3, #16394	; 0x400a
   885d2:	685a      	ldr	r2, [r3, #4]
   885d4:	f012 0f01 	tst.w	r2, #1
   885d8:	d022      	beq.n	88620 <UOTGHS_Handler+0x88c>
   885da:	f44f 4140 	mov.w	r1, #49152	; 0xc000
   885de:	f2c4 010a 	movt	r1, #16394	; 0x400a
   885e2:	f8d1 0800 	ldr.w	r0, [r1, #2048]	; 0x800
   885e6:	f420 4380 	bic.w	r3, r0, #16384	; 0x4000
   885ea:	f8c1 3800 	str.w	r3, [r1, #2048]	; 0x800
   885ee:	f04f 0201 	mov.w	r2, #1
   885f2:	614a      	str	r2, [r1, #20]
   885f4:	f04f 0010 	mov.w	r0, #16
   885f8:	6188      	str	r0, [r1, #24]
   885fa:	f8d1 3800 	ldr.w	r3, [r1, #2048]	; 0x800
   885fe:	f443 4280 	orr.w	r2, r3, #16384	; 0x4000
   88602:	f8c1 2800 	str.w	r2, [r1, #2048]	; 0x800
   88606:	f04f 0000 	mov.w	r0, #0
   8860a:	f247 41bd 	movw	r1, #29885	; 0x74bd
   8860e:	f2c0 0108 	movt	r1, #8
   88612:	4788      	blx	r1
   88614:	f644 00e9 	movw	r0, #18665	; 0x48e9
   88618:	f2c0 0008 	movt	r0, #8
   8861c:	4780      	blx	r0
   8861e:	bd70      	pop	{r4, r5, r6, pc}
   88620:	f44f 4040 	mov.w	r0, #49152	; 0xc000
   88624:	f2c4 000a 	movt	r0, #16394	; 0x400a
   88628:	6901      	ldr	r1, [r0, #16]
   8862a:	f011 0f10 	tst.w	r1, #16
   8862e:	d034      	beq.n	8869a <UOTGHS_Handler+0x906>
   88630:	f44f 4340 	mov.w	r3, #49152	; 0xc000
   88634:	f2c4 030a 	movt	r3, #16394	; 0x400a
   88638:	685a      	ldr	r2, [r3, #4]
   8863a:	f012 0f10 	tst.w	r2, #16
   8863e:	d02c      	beq.n	8869a <UOTGHS_Handler+0x906>
   88640:	f44f 4140 	mov.w	r1, #49152	; 0xc000
   88644:	f2c4 010a 	movt	r1, #16394	; 0x400a
   88648:	f8d1 2800 	ldr.w	r2, [r1, #2048]	; 0x800
   8864c:	f422 4080 	bic.w	r0, r2, #16384	; 0x4000
   88650:	f8c1 0800 	str.w	r0, [r1, #2048]	; 0x800
   88654:	f44f 4340 	mov.w	r3, #49152	; 0xc000
   88658:	f2c4 030a 	movt	r3, #16394	; 0x400a
   8865c:	e003      	b.n	88666 <UOTGHS_Handler+0x8d2>
   8865e:	685a      	ldr	r2, [r3, #4]
   88660:	f012 0f01 	tst.w	r2, #1
   88664:	d104      	bne.n	88670 <UOTGHS_Handler+0x8dc>
   88666:	f8d3 1804 	ldr.w	r1, [r3, #2052]	; 0x804
   8866a:	f411 4f80 	tst.w	r1, #16384	; 0x4000
   8866e:	d0f6      	beq.n	8865e <UOTGHS_Handler+0x8ca>
   88670:	f44f 4140 	mov.w	r1, #49152	; 0xc000
   88674:	f2c4 010a 	movt	r1, #16394	; 0x400a
   88678:	f04f 0010 	mov.w	r0, #16
   8867c:	6148      	str	r0, [r1, #20]
   8867e:	f04f 0001 	mov.w	r0, #1
   88682:	6188      	str	r0, [r1, #24]
   88684:	f247 43bd 	movw	r3, #29885	; 0x74bd
   88688:	f2c0 0308 	movt	r3, #8
   8868c:	4798      	blx	r3
   8868e:	f644 02ed 	movw	r2, #18669	; 0x48ed
   88692:	f2c0 0208 	movt	r2, #8
   88696:	4790      	blx	r2
   88698:	bd70      	pop	{r4, r5, r6, pc}
   8869a:	f44f 4040 	mov.w	r0, #49152	; 0xc000
   8869e:	f2c4 000a 	movt	r0, #16394	; 0x400a
   886a2:	f8d0 1804 	ldr.w	r1, [r0, #2052]	; 0x804
   886a6:	f011 0f02 	tst.w	r1, #2
   886aa:	f000 811c 	beq.w	888e6 <UOTGHS_Handler+0xb52>
   886ae:	f44f 4340 	mov.w	r3, #49152	; 0xc000
   886b2:	f2c4 030a 	movt	r3, #16394	; 0x400a
   886b6:	f8d3 2800 	ldr.w	r2, [r3, #2048]	; 0x800
   886ba:	f422 4080 	bic.w	r0, r2, #16384	; 0x4000
   886be:	f8c3 0800 	str.w	r0, [r3, #2048]	; 0x800
   886c2:	f04f 0102 	mov.w	r1, #2
   886c6:	f8c3 1808 	str.w	r1, [r3, #2056]	; 0x808
   886ca:	f8d3 2800 	ldr.w	r2, [r3, #2048]	; 0x800
   886ce:	f442 4080 	orr.w	r0, r2, #16384	; 0x4000
   886d2:	f8c3 0800 	str.w	r0, [r3, #2048]	; 0x800
   886d6:	f8d3 3804 	ldr.w	r3, [r3, #2052]	; 0x804
   886da:	f413 6f00 	tst.w	r3, #2048	; 0x800
   886de:	bf19      	ittee	ne
   886e0:	f647 43b1 	movwne	r3, #31921	; 0x7cb1
   886e4:	f2c0 0308 	movtne	r3, #8
   886e8:	f647 5359 	movweq	r3, #32089	; 0x7d59
   886ec:	f2c0 0308 	movteq	r3, #8
   886f0:	4798      	blx	r3
   886f2:	bd70      	pop	{r4, r5, r6, pc}
   886f4:	f44f 4040 	mov.w	r0, #49152	; 0xc000
   886f8:	f2c4 000a 	movt	r0, #16394	; 0x400a
   886fc:	6901      	ldr	r1, [r0, #16]
   886fe:	f011 7f00 	tst.w	r1, #33554432	; 0x2000000
   88702:	d008      	beq.n	88716 <UOTGHS_Handler+0x982>
   88704:	f44f 4340 	mov.w	r3, #49152	; 0xc000
   88708:	f2c4 030a 	movt	r3, #16394	; 0x400a
   8870c:	685a      	ldr	r2, [r3, #4]
   8870e:	f012 7f00 	tst.w	r2, #33554432	; 0x2000000
   88712:	f47f ade6 	bne.w	882e2 <UOTGHS_Handler+0x54e>
   88716:	f44f 4040 	mov.w	r0, #49152	; 0xc000
   8871a:	f2c4 000a 	movt	r0, #16394	; 0x400a
   8871e:	6901      	ldr	r1, [r0, #16]
   88720:	f411 5f00 	tst.w	r1, #8192	; 0x2000
   88724:	d024      	beq.n	88770 <UOTGHS_Handler+0x9dc>
   88726:	f24c 13c4 	movw	r3, #49604	; 0xc1c4
   8872a:	f2c4 030a 	movt	r3, #16394	; 0x400a
   8872e:	681a      	ldr	r2, [r3, #0]
   88730:	f012 0f01 	tst.w	r2, #1
   88734:	d110      	bne.n	88758 <UOTGHS_Handler+0x9c4>
   88736:	f24c 13c4 	movw	r3, #49604	; 0xc1c4
   8873a:	f2c4 030a 	movt	r3, #16394	; 0x400a
   8873e:	681a      	ldr	r2, [r3, #0]
   88740:	f412 5f80 	tst.w	r2, #4096	; 0x1000
   88744:	d014      	beq.n	88770 <UOTGHS_Handler+0x9dc>
   88746:	f24c 1034 	movw	r0, #49460	; 0xc134
   8874a:	f2c4 000a 	movt	r0, #16394	; 0x400a
   8874e:	6801      	ldr	r1, [r0, #0]
   88750:	f411 5f40 	tst.w	r1, #12288	; 0x3000
   88754:	d10c      	bne.n	88770 <UOTGHS_Handler+0x9dc>
   88756:	e65e      	b.n	88416 <UOTGHS_Handler+0x682>
   88758:	f24c 1034 	movw	r0, #49460	; 0xc134
   8875c:	f2c4 000a 	movt	r0, #16394	; 0x400a
   88760:	6801      	ldr	r1, [r0, #0]
   88762:	f011 0f01 	tst.w	r1, #1
   88766:	d0e6      	beq.n	88736 <UOTGHS_Handler+0x9a2>
   88768:	e611      	b.n	8838e <UOTGHS_Handler+0x5fa>
   8876a:	bf00      	nop
   8876c:	200715dc 	.word	0x200715dc
   88770:	f44f 4340 	mov.w	r3, #49152	; 0xc000
   88774:	f2c4 030a 	movt	r3, #16394	; 0x400a
   88778:	691a      	ldr	r2, [r3, #16]
   8877a:	f012 6f80 	tst.w	r2, #67108864	; 0x4000000
   8877e:	d008      	beq.n	88792 <UOTGHS_Handler+0x9fe>
   88780:	f44f 4040 	mov.w	r0, #49152	; 0xc000
   88784:	f2c4 000a 	movt	r0, #16394	; 0x400a
   88788:	6841      	ldr	r1, [r0, #4]
   8878a:	f011 6f80 	tst.w	r1, #67108864	; 0x4000000
   8878e:	f47f adb1 	bne.w	882f4 <UOTGHS_Handler+0x560>
   88792:	f44f 4340 	mov.w	r3, #49152	; 0xc000
   88796:	f2c4 030a 	movt	r3, #16394	; 0x400a
   8879a:	691a      	ldr	r2, [r3, #16]
   8879c:	f412 4f80 	tst.w	r2, #16384	; 0x4000
   887a0:	d021      	beq.n	887e6 <UOTGHS_Handler+0xa52>
   887a2:	f24c 10c8 	movw	r0, #49608	; 0xc1c8
   887a6:	f2c4 000a 	movt	r0, #16394	; 0x400a
   887aa:	6801      	ldr	r1, [r0, #0]
   887ac:	f011 0f01 	tst.w	r1, #1
   887b0:	d110      	bne.n	887d4 <UOTGHS_Handler+0xa40>
   887b2:	f24c 10c8 	movw	r0, #49608	; 0xc1c8
   887b6:	f2c4 000a 	movt	r0, #16394	; 0x400a
   887ba:	6801      	ldr	r1, [r0, #0]
   887bc:	f411 5f80 	tst.w	r1, #4096	; 0x1000
   887c0:	d011      	beq.n	887e6 <UOTGHS_Handler+0xa52>
   887c2:	f24c 1338 	movw	r3, #49464	; 0xc138
   887c6:	f2c4 030a 	movt	r3, #16394	; 0x400a
   887ca:	681a      	ldr	r2, [r3, #0]
   887cc:	f412 5f40 	tst.w	r2, #12288	; 0x3000
   887d0:	d109      	bne.n	887e6 <UOTGHS_Handler+0xa52>
   887d2:	e626      	b.n	88422 <UOTGHS_Handler+0x68e>
   887d4:	f24c 1338 	movw	r3, #49464	; 0xc138
   887d8:	f2c4 030a 	movt	r3, #16394	; 0x400a
   887dc:	681a      	ldr	r2, [r3, #0]
   887de:	f012 0f01 	tst.w	r2, #1
   887e2:	d0e6      	beq.n	887b2 <UOTGHS_Handler+0xa1e>
   887e4:	e5d9      	b.n	8839a <UOTGHS_Handler+0x606>
   887e6:	f44f 4040 	mov.w	r0, #49152	; 0xc000
   887ea:	f2c4 000a 	movt	r0, #16394	; 0x400a
   887ee:	6901      	ldr	r1, [r0, #16]
   887f0:	f011 6f00 	tst.w	r1, #134217728	; 0x8000000
   887f4:	d008      	beq.n	88808 <UOTGHS_Handler+0xa74>
   887f6:	f44f 4340 	mov.w	r3, #49152	; 0xc000
   887fa:	f2c4 030a 	movt	r3, #16394	; 0x400a
   887fe:	685a      	ldr	r2, [r3, #4]
   88800:	f012 6f00 	tst.w	r2, #134217728	; 0x8000000
   88804:	f47f ad7c 	bne.w	88300 <UOTGHS_Handler+0x56c>
   88808:	f44f 4040 	mov.w	r0, #49152	; 0xc000
   8880c:	f2c4 000a 	movt	r0, #16394	; 0x400a
   88810:	6901      	ldr	r1, [r0, #16]
   88812:	f411 4f00 	tst.w	r1, #32768	; 0x8000
   88816:	d021      	beq.n	8885c <UOTGHS_Handler+0xac8>
   88818:	f24c 13cc 	movw	r3, #49612	; 0xc1cc
   8881c:	f2c4 030a 	movt	r3, #16394	; 0x400a
   88820:	681a      	ldr	r2, [r3, #0]
   88822:	f012 0f01 	tst.w	r2, #1
   88826:	d110      	bne.n	8884a <UOTGHS_Handler+0xab6>
   88828:	f24c 13cc 	movw	r3, #49612	; 0xc1cc
   8882c:	f2c4 030a 	movt	r3, #16394	; 0x400a
   88830:	681a      	ldr	r2, [r3, #0]
   88832:	f412 5f80 	tst.w	r2, #4096	; 0x1000
   88836:	d011      	beq.n	8885c <UOTGHS_Handler+0xac8>
   88838:	f24c 103c 	movw	r0, #49468	; 0xc13c
   8883c:	f2c4 000a 	movt	r0, #16394	; 0x400a
   88840:	6801      	ldr	r1, [r0, #0]
   88842:	f411 5f40 	tst.w	r1, #12288	; 0x3000
   88846:	d109      	bne.n	8885c <UOTGHS_Handler+0xac8>
   88848:	e5f1      	b.n	8842e <UOTGHS_Handler+0x69a>
   8884a:	f24c 103c 	movw	r0, #49468	; 0xc13c
   8884e:	f2c4 000a 	movt	r0, #16394	; 0x400a
   88852:	6801      	ldr	r1, [r0, #0]
   88854:	f011 0f01 	tst.w	r1, #1
   88858:	d0e6      	beq.n	88828 <UOTGHS_Handler+0xa94>
   8885a:	e5a4      	b.n	883a6 <UOTGHS_Handler+0x612>
   8885c:	f44f 4340 	mov.w	r3, #49152	; 0xc000
   88860:	f2c4 030a 	movt	r3, #16394	; 0x400a
   88864:	691a      	ldr	r2, [r3, #16]
   88866:	f012 5f80 	tst.w	r2, #268435456	; 0x10000000
   8886a:	d008      	beq.n	8887e <UOTGHS_Handler+0xaea>
   8886c:	f44f 4040 	mov.w	r0, #49152	; 0xc000
   88870:	f2c4 000a 	movt	r0, #16394	; 0x400a
   88874:	6841      	ldr	r1, [r0, #4]
   88876:	f011 5f80 	tst.w	r1, #268435456	; 0x10000000
   8887a:	f47f ad47 	bne.w	8830c <UOTGHS_Handler+0x578>
   8887e:	f44f 4340 	mov.w	r3, #49152	; 0xc000
   88882:	f2c4 030a 	movt	r3, #16394	; 0x400a
   88886:	691a      	ldr	r2, [r3, #16]
   88888:	f412 3f80 	tst.w	r2, #65536	; 0x10000
   8888c:	d021      	beq.n	888d2 <UOTGHS_Handler+0xb3e>
   8888e:	f24c 10d0 	movw	r0, #49616	; 0xc1d0
   88892:	f2c4 000a 	movt	r0, #16394	; 0x400a
   88896:	6801      	ldr	r1, [r0, #0]
   88898:	f011 0f01 	tst.w	r1, #1
   8889c:	d110      	bne.n	888c0 <UOTGHS_Handler+0xb2c>
   8889e:	f24c 10d0 	movw	r0, #49616	; 0xc1d0
   888a2:	f2c4 000a 	movt	r0, #16394	; 0x400a
   888a6:	6801      	ldr	r1, [r0, #0]
   888a8:	f411 5f80 	tst.w	r1, #4096	; 0x1000
   888ac:	d011      	beq.n	888d2 <UOTGHS_Handler+0xb3e>
   888ae:	f24c 1340 	movw	r3, #49472	; 0xc140
   888b2:	f2c4 030a 	movt	r3, #16394	; 0x400a
   888b6:	681a      	ldr	r2, [r3, #0]
   888b8:	f412 5f40 	tst.w	r2, #12288	; 0x3000
   888bc:	d109      	bne.n	888d2 <UOTGHS_Handler+0xb3e>
   888be:	e5d1      	b.n	88464 <UOTGHS_Handler+0x6d0>
   888c0:	f24c 1340 	movw	r3, #49472	; 0xc140
   888c4:	f2c4 030a 	movt	r3, #16394	; 0x400a
   888c8:	681a      	ldr	r2, [r3, #0]
   888ca:	f012 0f01 	tst.w	r2, #1
   888ce:	d0e6      	beq.n	8889e <UOTGHS_Handler+0xb0a>
   888d0:	e56f      	b.n	883b2 <UOTGHS_Handler+0x61e>
   888d2:	f44f 4040 	mov.w	r0, #49152	; 0xc000
   888d6:	f2c4 000a 	movt	r0, #16394	; 0x400a
   888da:	6901      	ldr	r1, [r0, #16]
   888dc:	f011 5f00 	tst.w	r1, #536870912	; 0x20000000
   888e0:	f47f acf1 	bne.w	882c6 <UOTGHS_Handler+0x532>
   888e4:	e534      	b.n	88350 <UOTGHS_Handler+0x5bc>
   888e6:	bd70      	pop	{r4, r5, r6, pc}
   888e8:	b249      	sxtb	r1, r1
   888ea:	2900      	cmp	r1, #0
   888ec:	f43f ac01 	beq.w	880f2 <UOTGHS_Handler+0x35e>
   888f0:	f813 0b01 	ldrb.w	r0, [r3], #1
   888f4:	f802 0b01 	strb.w	r0, [r2], #1
   888f8:	b2d9      	uxtb	r1, r3
   888fa:	42a1      	cmp	r1, r4
   888fc:	f4ff abf9 	bcc.w	880f2 <UOTGHS_Handler+0x35e>
   88900:	e406      	b.n	88110 <UOTGHS_Handler+0x37c>
   88902:	bf00      	nop

00088904 <udd_is_high_speed>:
   88904:	f44f 4340 	mov.w	r3, #49152	; 0xc000
   88908:	f2c4 030a 	movt	r3, #16394	; 0x400a
   8890c:	f8d3 0804 	ldr.w	r0, [r3, #2052]	; 0x804
   88910:	f410 5040 	ands.w	r0, r0, #12288	; 0x3000
   88914:	bf18      	it	ne
   88916:	2001      	movne	r0, #1
   88918:	4770      	bx	lr
   8891a:	bf00      	nop

0008891c <udd_set_address>:
   8891c:	f44f 4340 	mov.w	r3, #49152	; 0xc000
   88920:	f2c4 030a 	movt	r3, #16394	; 0x400a
   88924:	681a      	ldr	r2, [r3, #0]
   88926:	f022 0180 	bic.w	r1, r2, #128	; 0x80
   8892a:	6019      	str	r1, [r3, #0]
   8892c:	681a      	ldr	r2, [r3, #0]
   8892e:	f000 007f 	and.w	r0, r0, #127	; 0x7f
   88932:	f022 017f 	bic.w	r1, r2, #127	; 0x7f
   88936:	ea40 0201 	orr.w	r2, r0, r1
   8893a:	601a      	str	r2, [r3, #0]
   8893c:	6818      	ldr	r0, [r3, #0]
   8893e:	f040 0180 	orr.w	r1, r0, #128	; 0x80
   88942:	6019      	str	r1, [r3, #0]
   88944:	4770      	bx	lr
   88946:	bf00      	nop

00088948 <udd_getaddress>:
   88948:	f44f 4340 	mov.w	r3, #49152	; 0xc000
   8894c:	f2c4 030a 	movt	r3, #16394	; 0x400a
   88950:	6818      	ldr	r0, [r3, #0]
   88952:	f000 007f 	and.w	r0, r0, #127	; 0x7f
   88956:	4770      	bx	lr

00088958 <udd_get_frame_number>:
   88958:	f44f 4340 	mov.w	r3, #49152	; 0xc000
   8895c:	f2c4 030a 	movt	r3, #16394	; 0x400a
   88960:	6a18      	ldr	r0, [r3, #32]
   88962:	f3c0 00ca 	ubfx	r0, r0, #3, #11
   88966:	4770      	bx	lr

00088968 <udd_get_micro_frame_number>:
   88968:	f44f 4340 	mov.w	r3, #49152	; 0xc000
   8896c:	f2c4 030a 	movt	r3, #16394	; 0x400a
   88970:	6a18      	ldr	r0, [r3, #32]
   88972:	ea4f 4180 	mov.w	r1, r0, lsl #18
   88976:	ea4f 4091 	mov.w	r0, r1, lsr #18
   8897a:	4770      	bx	lr

0008897c <udd_set_setup_payload>:
   8897c:	f641 4318 	movw	r3, #7192	; 0x1c18
   88980:	f2c2 0307 	movt	r3, #8199	; 0x2007
   88984:	6098      	str	r0, [r3, #8]
   88986:	8199      	strh	r1, [r3, #12]
   88988:	4770      	bx	lr
   8898a:	bf00      	nop

0008898c <udd_ep_free>:
   8898c:	b510      	push	{r4, lr}
   8898e:	f000 040f 	and.w	r4, r0, #15
   88992:	2c05      	cmp	r4, #5
   88994:	d82a      	bhi.n	889ec <udd_ep_free+0x60>
   88996:	f44f 4340 	mov.w	r3, #49152	; 0xc000
   8899a:	f2c4 030a 	movt	r3, #16394	; 0x400a
   8899e:	69d9      	ldr	r1, [r3, #28]
   889a0:	f04f 0201 	mov.w	r2, #1
   889a4:	fa02 f204 	lsl.w	r2, r2, r4
   889a8:	ea21 0102 	bic.w	r1, r1, r2
   889ac:	61d9      	str	r1, [r3, #28]
   889ae:	f44f 4341 	mov.w	r3, #49408	; 0xc100
   889b2:	f2c4 030a 	movt	r3, #16394	; 0x400a
   889b6:	f853 2024 	ldr.w	r2, [r3, r4, lsl #2]
   889ba:	f022 0102 	bic.w	r1, r2, #2
   889be:	f843 1024 	str.w	r1, [r3, r4, lsl #2]
   889c2:	f647 03e9 	movw	r3, #30953	; 0x78e9
   889c6:	f2c0 0308 	movt	r3, #8
   889ca:	4798      	blx	r3
   889cc:	f104 34ff 	add.w	r4, r4, #4294967295
   889d0:	eb04 0044 	add.w	r0, r4, r4, lsl #1
   889d4:	f241 5294 	movw	r2, #5524	; 0x1594
   889d8:	f2c2 0207 	movt	r2, #8199	; 0x2007
   889dc:	eb02 04c0 	add.w	r4, r2, r0, lsl #3
   889e0:	7d21      	ldrb	r1, [r4, #20]
   889e2:	f36f 0182 	bfc	r1, #2, #1
   889e6:	7521      	strb	r1, [r4, #20]
   889e8:	f104 0410 	add.w	r4, r4, #16
   889ec:	bd10      	pop	{r4, pc}
   889ee:	bf00      	nop

000889f0 <udd_ep_is_halted>:
   889f0:	f000 000f 	and.w	r0, r0, #15
   889f4:	f24c 13c0 	movw	r3, #49600	; 0xc1c0
   889f8:	f2c4 030a 	movt	r3, #16394	; 0x400a
   889fc:	f853 1020 	ldr.w	r1, [r3, r0, lsl #2]
   88a00:	f3c1 40c0 	ubfx	r0, r1, #19, #1
   88a04:	4770      	bx	lr
   88a06:	bf00      	nop

00088a08 <udd_ep_set_halt>:
   88a08:	b430      	push	{r4, r5}
   88a0a:	f000 030f 	and.w	r3, r0, #15
   88a0e:	2b05      	cmp	r3, #5
   88a10:	d87a      	bhi.n	88b08 <udd_ep_set_halt+0x100>
   88a12:	f24c 12c0 	movw	r2, #49600	; 0xc1c0
   88a16:	f2c4 020a 	movt	r2, #16394	; 0x400a
   88a1a:	f852 1023 	ldr.w	r1, [r2, r3, lsl #2]
   88a1e:	f411 2f00 	tst.w	r1, #524288	; 0x80000
   88a22:	d174      	bne.n	88b0e <udd_ep_set_halt+0x106>
   88a24:	f103 34ff 	add.w	r4, r3, #4294967295
   88a28:	eb04 0244 	add.w	r2, r4, r4, lsl #1
   88a2c:	f241 5194 	movw	r1, #5524	; 0x1594
   88a30:	f2c2 0107 	movt	r1, #8199	; 0x2007
   88a34:	eb01 02c2 	add.w	r2, r1, r2, lsl #3
   88a38:	7d11      	ldrb	r1, [r2, #20]
   88a3a:	f001 0404 	and.w	r4, r1, #4
   88a3e:	b2e4      	uxtb	r4, r4
   88a40:	2c00      	cmp	r4, #0
   88a42:	d167      	bne.n	88b14 <udd_ep_set_halt+0x10c>
   88a44:	f011 0f01 	tst.w	r1, #1
   88a48:	d167      	bne.n	88b1a <udd_ep_set_halt+0x112>
   88a4a:	f3ef 8510 	mrs	r5, PRIMASK
   88a4e:	f1d5 0501 	rsbs	r5, r5, #1
   88a52:	bf38      	it	cc
   88a54:	2500      	movcc	r5, #0
   88a56:	b672      	cpsid	i
   88a58:	f3bf 8f5f 	dmb	sy
   88a5c:	f240 2198 	movw	r1, #664	; 0x298
   88a60:	f2c2 0107 	movt	r1, #8199	; 0x2007
   88a64:	700c      	strb	r4, [r1, #0]
   88a66:	f010 0f80 	tst.w	r0, #128	; 0x80
   88a6a:	d027      	beq.n	88abc <udd_ep_set_halt+0xb4>
   88a6c:	f24c 1030 	movw	r0, #49456	; 0xc130
   88a70:	f2c4 000a 	movt	r0, #16394	; 0x400a
   88a74:	f850 1023 	ldr.w	r1, [r0, r3, lsl #2]
   88a78:	f411 5f40 	tst.w	r1, #12288	; 0x3000
   88a7c:	d01e      	beq.n	88abc <udd_ep_set_halt+0xb4>
   88a7e:	7d10      	ldrb	r0, [r2, #20]
   88a80:	f040 0104 	orr.w	r1, r0, #4
   88a84:	7511      	strb	r1, [r2, #20]
   88a86:	f24c 10f0 	movw	r0, #49648	; 0xc1f0
   88a8a:	f2c4 000a 	movt	r0, #16394	; 0x400a
   88a8e:	f44f 5280 	mov.w	r2, #4096	; 0x1000
   88a92:	f840 2023 	str.w	r2, [r0, r3, lsl #2]
   88a96:	fa02 f303 	lsl.w	r3, r2, r3
   88a9a:	f44f 4140 	mov.w	r1, #49152	; 0xc000
   88a9e:	f2c4 010a 	movt	r1, #16394	; 0x400a
   88aa2:	618b      	str	r3, [r1, #24]
   88aa4:	b3e5      	cbz	r5, 88b20 <udd_ep_set_halt+0x118>
   88aa6:	f04f 0001 	mov.w	r0, #1
   88aaa:	f240 2298 	movw	r2, #664	; 0x298
   88aae:	f2c2 0207 	movt	r2, #8199	; 0x2007
   88ab2:	7010      	strb	r0, [r2, #0]
   88ab4:	f3bf 8f5f 	dmb	sy
   88ab8:	b662      	cpsie	i
   88aba:	e036      	b.n	88b2a <udd_ep_set_halt+0x122>
   88abc:	f44f 4241 	mov.w	r2, #49408	; 0xc100
   88ac0:	f2c4 020a 	movt	r2, #16394	; 0x400a
   88ac4:	f852 0023 	ldr.w	r0, [r2, r3, lsl #2]
   88ac8:	f420 7100 	bic.w	r1, r0, #512	; 0x200
   88acc:	f842 1023 	str.w	r1, [r2, r3, lsl #2]
   88ad0:	f24c 1260 	movw	r2, #49504	; 0xc160
   88ad4:	f2c4 020a 	movt	r2, #16394	; 0x400a
   88ad8:	f04f 0040 	mov.w	r0, #64	; 0x40
   88adc:	f842 0023 	str.w	r0, [r2, r3, lsl #2]
   88ae0:	f24c 12f0 	movw	r2, #49648	; 0xc1f0
   88ae4:	f2c4 020a 	movt	r2, #16394	; 0x400a
   88ae8:	f44f 2100 	mov.w	r1, #524288	; 0x80000
   88aec:	f842 1023 	str.w	r1, [r2, r3, lsl #2]
   88af0:	b1cd      	cbz	r5, 88b26 <udd_ep_set_halt+0x11e>
   88af2:	f04f 0001 	mov.w	r0, #1
   88af6:	f240 2398 	movw	r3, #664	; 0x298
   88afa:	f2c2 0307 	movt	r3, #8199	; 0x2007
   88afe:	7018      	strb	r0, [r3, #0]
   88b00:	f3bf 8f5f 	dmb	sy
   88b04:	b662      	cpsie	i
   88b06:	e010      	b.n	88b2a <udd_ep_set_halt+0x122>
   88b08:	f04f 0000 	mov.w	r0, #0
   88b0c:	e00d      	b.n	88b2a <udd_ep_set_halt+0x122>
   88b0e:	f04f 0001 	mov.w	r0, #1
   88b12:	e00a      	b.n	88b2a <udd_ep_set_halt+0x122>
   88b14:	f04f 0001 	mov.w	r0, #1
   88b18:	e007      	b.n	88b2a <udd_ep_set_halt+0x122>
   88b1a:	f04f 0000 	mov.w	r0, #0
   88b1e:	e004      	b.n	88b2a <udd_ep_set_halt+0x122>
   88b20:	f04f 0001 	mov.w	r0, #1
   88b24:	e001      	b.n	88b2a <udd_ep_set_halt+0x122>
   88b26:	f04f 0001 	mov.w	r0, #1
   88b2a:	bc30      	pop	{r4, r5}
   88b2c:	4770      	bx	lr
   88b2e:	bf00      	nop

00088b30 <udd_ep_clear_halt>:
   88b30:	b508      	push	{r3, lr}
   88b32:	f000 000f 	and.w	r0, r0, #15
   88b36:	2805      	cmp	r0, #5
   88b38:	d85f      	bhi.n	88bfa <udd_ep_clear_halt+0xca>
   88b3a:	f100 33ff 	add.w	r3, r0, #4294967295
   88b3e:	eb03 0143 	add.w	r1, r3, r3, lsl #1
   88b42:	f241 5294 	movw	r2, #5524	; 0x1594
   88b46:	f2c2 0207 	movt	r2, #8199	; 0x2007
   88b4a:	eb02 03c1 	add.w	r3, r2, r1, lsl #3
   88b4e:	7d19      	ldrb	r1, [r3, #20]
   88b50:	f001 0204 	and.w	r2, r1, #4
   88b54:	b2d1      	uxtb	r1, r2
   88b56:	2900      	cmp	r1, #0
   88b58:	d055      	beq.n	88c06 <udd_ep_clear_halt+0xd6>
   88b5a:	7d1a      	ldrb	r2, [r3, #20]
   88b5c:	f36f 0282 	bfc	r2, #2, #1
   88b60:	751a      	strb	r2, [r3, #20]
   88b62:	f24c 2120 	movw	r1, #49696	; 0xc220
   88b66:	f2c4 010a 	movt	r1, #16394	; 0x400a
   88b6a:	f44f 5280 	mov.w	r2, #4096	; 0x1000
   88b6e:	f841 2020 	str.w	r2, [r1, r0, lsl #2]
   88b72:	fa02 f100 	lsl.w	r1, r2, r0
   88b76:	f44f 4240 	mov.w	r2, #49152	; 0xc000
   88b7a:	f2c4 020a 	movt	r2, #16394	; 0x400a
   88b7e:	6151      	str	r1, [r2, #20]
   88b80:	ea4f 0280 	mov.w	r2, r0, lsl #2
   88b84:	f24c 11c0 	movw	r1, #49600	; 0xc1c0
   88b88:	f2c4 010a 	movt	r1, #16394	; 0x400a
   88b8c:	f851 0020 	ldr.w	r0, [r1, r0, lsl #2]
   88b90:	f410 2f00 	tst.w	r0, #524288	; 0x80000
   88b94:	d024      	beq.n	88be0 <udd_ep_clear_halt+0xb0>
   88b96:	f24c 1130 	movw	r1, #49456	; 0xc130
   88b9a:	f2c4 010a 	movt	r1, #16394	; 0x400a
   88b9e:	5850      	ldr	r0, [r2, r1]
   88ba0:	f010 0f40 	tst.w	r0, #64	; 0x40
   88ba4:	d00d      	beq.n	88bc2 <udd_ep_clear_halt+0x92>
   88ba6:	f24c 1160 	movw	r1, #49504	; 0xc160
   88baa:	f2c4 010a 	movt	r1, #16394	; 0x400a
   88bae:	f04f 0040 	mov.w	r0, #64	; 0x40
   88bb2:	5050      	str	r0, [r2, r1]
   88bb4:	f24c 11f0 	movw	r1, #49648	; 0xc1f0
   88bb8:	f2c4 010a 	movt	r1, #16394	; 0x400a
   88bbc:	f44f 2080 	mov.w	r0, #262144	; 0x40000
   88bc0:	5050      	str	r0, [r2, r1]
   88bc2:	f24c 2120 	movw	r1, #49696	; 0xc220
   88bc6:	f2c4 010a 	movt	r1, #16394	; 0x400a
   88bca:	f44f 2000 	mov.w	r0, #524288	; 0x80000
   88bce:	5050      	str	r0, [r2, r1]
   88bd0:	f44f 4141 	mov.w	r1, #49408	; 0xc100
   88bd4:	f2c4 010a 	movt	r1, #16394	; 0x400a
   88bd8:	5850      	ldr	r0, [r2, r1]
   88bda:	f440 7000 	orr.w	r0, r0, #512	; 0x200
   88bde:	5050      	str	r0, [r2, r1]
   88be0:	7d1a      	ldrb	r2, [r3, #20]
   88be2:	f012 0f01 	tst.w	r2, #1
   88be6:	d00b      	beq.n	88c00 <udd_ep_clear_halt+0xd0>
   88be8:	7d19      	ldrb	r1, [r3, #20]
   88bea:	f36f 0100 	bfc	r1, #0, #1
   88bee:	7519      	strb	r1, [r3, #20]
   88bf0:	681b      	ldr	r3, [r3, #0]
   88bf2:	4798      	blx	r3
   88bf4:	f04f 0001 	mov.w	r0, #1
   88bf8:	bd08      	pop	{r3, pc}
   88bfa:	f04f 0000 	mov.w	r0, #0
   88bfe:	bd08      	pop	{r3, pc}
   88c00:	f04f 0001 	mov.w	r0, #1
   88c04:	bd08      	pop	{r3, pc}
   88c06:	ea4f 0280 	mov.w	r2, r0, lsl #2
   88c0a:	f24c 11c0 	movw	r1, #49600	; 0xc1c0
   88c0e:	f2c4 010a 	movt	r1, #16394	; 0x400a
   88c12:	f851 0020 	ldr.w	r0, [r1, r0, lsl #2]
   88c16:	f410 2f00 	tst.w	r0, #524288	; 0x80000
   88c1a:	d1bc      	bne.n	88b96 <udd_ep_clear_halt+0x66>
   88c1c:	f04f 0001 	mov.w	r0, #1
   88c20:	bd08      	pop	{r3, pc}
   88c22:	bf00      	nop

00088c24 <udd_ep_run>:
   88c24:	b5f8      	push	{r3, r4, r5, r6, r7, lr}
   88c26:	f000 000f 	and.w	r0, r0, #15
   88c2a:	2805      	cmp	r0, #5
   88c2c:	d86c      	bhi.n	88d08 <udd_ep_run+0xe4>
   88c2e:	f44f 4440 	mov.w	r4, #49152	; 0xc000
   88c32:	f2c4 040a 	movt	r4, #16394	; 0x400a
   88c36:	69e4      	ldr	r4, [r4, #28]
   88c38:	f04f 0501 	mov.w	r5, #1
   88c3c:	fa05 f500 	lsl.w	r5, r5, r0
   88c40:	4225      	tst	r5, r4
   88c42:	d064      	beq.n	88d0e <udd_ep_run+0xea>
   88c44:	f24c 14c0 	movw	r4, #49600	; 0xc1c0
   88c48:	f2c4 040a 	movt	r4, #16394	; 0x400a
   88c4c:	f854 4020 	ldr.w	r4, [r4, r0, lsl #2]
   88c50:	f414 2f00 	tst.w	r4, #524288	; 0x80000
   88c54:	d15e      	bne.n	88d14 <udd_ep_run+0xf0>
   88c56:	f100 35ff 	add.w	r5, r0, #4294967295
   88c5a:	eb05 0645 	add.w	r6, r5, r5, lsl #1
   88c5e:	f241 5494 	movw	r4, #5524	; 0x1594
   88c62:	f2c2 0407 	movt	r4, #8199	; 0x2007
   88c66:	eb04 04c6 	add.w	r4, r4, r6, lsl #3
   88c6a:	7d25      	ldrb	r5, [r4, #20]
   88c6c:	f005 0604 	and.w	r6, r5, #4
   88c70:	b2f6      	uxtb	r6, r6
   88c72:	2e00      	cmp	r6, #0
   88c74:	d151      	bne.n	88d1a <udd_ep_run+0xf6>
   88c76:	f3ef 8710 	mrs	r7, PRIMASK
   88c7a:	f1d7 0601 	rsbs	r6, r7, #1
   88c7e:	bf38      	it	cc
   88c80:	2600      	movcc	r6, #0
   88c82:	b672      	cpsid	i
   88c84:	f3bf 8f5f 	dmb	sy
   88c88:	f240 2798 	movw	r7, #664	; 0x298
   88c8c:	f2c2 0707 	movt	r7, #8199	; 0x2007
   88c90:	f04f 0c00 	mov.w	ip, #0
   88c94:	f887 c000 	strb.w	ip, [r7]
   88c98:	f015 0f01 	tst.w	r5, #1
   88c9c:	d009      	beq.n	88cb2 <udd_ep_run+0x8e>
   88c9e:	2e00      	cmp	r6, #0
   88ca0:	d03e      	beq.n	88d20 <udd_ep_run+0xfc>
   88ca2:	f04f 0301 	mov.w	r3, #1
   88ca6:	703b      	strb	r3, [r7, #0]
   88ca8:	f3bf 8f5f 	dmb	sy
   88cac:	b662      	cpsie	i
   88cae:	4660      	mov	r0, ip
   88cb0:	bdf8      	pop	{r3, r4, r5, r6, r7, pc}
   88cb2:	7d25      	ldrb	r5, [r4, #20]
   88cb4:	f045 0501 	orr.w	r5, r5, #1
   88cb8:	7525      	strb	r5, [r4, #20]
   88cba:	b14e      	cbz	r6, 88cd0 <udd_ep_run+0xac>
   88cbc:	f240 2598 	movw	r5, #664	; 0x298
   88cc0:	f2c2 0507 	movt	r5, #8199	; 0x2007
   88cc4:	f04f 0601 	mov.w	r6, #1
   88cc8:	702e      	strb	r6, [r5, #0]
   88cca:	f3bf 8f5f 	dmb	sy
   88cce:	b662      	cpsie	i
   88cd0:	6062      	str	r2, [r4, #4]
   88cd2:	60a3      	str	r3, [r4, #8]
   88cd4:	f04f 0200 	mov.w	r2, #0
   88cd8:	60e2      	str	r2, [r4, #12]
   88cda:	6122      	str	r2, [r4, #16]
   88cdc:	9a06      	ldr	r2, [sp, #24]
   88cde:	6022      	str	r2, [r4, #0]
   88ce0:	b921      	cbnz	r1, 88cec <udd_ep_run+0xc8>
   88ce2:	f1d3 0301 	rsbs	r3, r3, #1
   88ce6:	bf38      	it	cc
   88ce8:	2300      	movcc	r3, #0
   88cea:	e001      	b.n	88cf0 <udd_ep_run+0xcc>
   88cec:	f04f 0301 	mov.w	r3, #1
   88cf0:	7d21      	ldrb	r1, [r4, #20]
   88cf2:	f363 0141 	bfi	r1, r3, #1, #1
   88cf6:	7521      	strb	r1, [r4, #20]
   88cf8:	f647 1215 	movw	r2, #30997	; 0x7915
   88cfc:	f2c0 0208 	movt	r2, #8
   88d00:	4790      	blx	r2
   88d02:	f04f 0001 	mov.w	r0, #1
   88d06:	bdf8      	pop	{r3, r4, r5, r6, r7, pc}
   88d08:	f04f 0000 	mov.w	r0, #0
   88d0c:	bdf8      	pop	{r3, r4, r5, r6, r7, pc}
   88d0e:	f04f 0000 	mov.w	r0, #0
   88d12:	bdf8      	pop	{r3, r4, r5, r6, r7, pc}
   88d14:	f04f 0000 	mov.w	r0, #0
   88d18:	bdf8      	pop	{r3, r4, r5, r6, r7, pc}
   88d1a:	f04f 0000 	mov.w	r0, #0
   88d1e:	bdf8      	pop	{r3, r4, r5, r6, r7, pc}
   88d20:	f04f 0000 	mov.w	r0, #0
   88d24:	bdf8      	pop	{r3, r4, r5, r6, r7, pc}
   88d26:	bf00      	nop

00088d28 <udd_ep_alloc>:
   88d28:	e92d 4ff0 	stmdb	sp!, {r4, r5, r6, r7, r8, r9, sl, fp, lr}
   88d2c:	b085      	sub	sp, #20
   88d2e:	f000 040f 	and.w	r4, r0, #15
   88d32:	2c05      	cmp	r4, #5
   88d34:	f200 8101 	bhi.w	88f3a <udd_ep_alloc+0x212>
   88d38:	f44f 4340 	mov.w	r3, #49152	; 0xc000
   88d3c:	f2c4 030a 	movt	r3, #16394	; 0x400a
   88d40:	69db      	ldr	r3, [r3, #28]
   88d42:	f04f 0501 	mov.w	r5, #1
   88d46:	fa05 f504 	lsl.w	r5, r5, r4
   88d4a:	421d      	tst	r5, r3
   88d4c:	f040 80f8 	bne.w	88f40 <udd_ep_alloc+0x218>
   88d50:	f001 0303 	and.w	r3, r1, #3
   88d54:	2b02      	cmp	r3, #2
   88d56:	d006      	beq.n	88d66 <udd_ep_alloc+0x3e>
   88d58:	2b03      	cmp	r3, #3
   88d5a:	f000 80fd 	beq.w	88f58 <udd_ep_alloc+0x230>
   88d5e:	2b01      	cmp	r3, #1
   88d60:	f040 80f1 	bne.w	88f46 <udd_ep_alloc+0x21e>
   88d64:	e007      	b.n	88d76 <udd_ep_alloc+0x4e>
   88d66:	f1a4 0604 	sub.w	r6, r4, #4
   88d6a:	b2f5      	uxtb	r5, r6
   88d6c:	2d01      	cmp	r5, #1
   88d6e:	bf94      	ite	ls
   88d70:	2500      	movls	r5, #0
   88d72:	2501      	movhi	r5, #1
   88d74:	e001      	b.n	88d7a <udd_ep_alloc+0x52>
   88d76:	f04f 0501 	mov.w	r5, #1
   88d7a:	f44f 4741 	mov.w	r7, #49408	; 0xc100
   88d7e:	f2c4 070a 	movt	r7, #16394	; 0x400a
   88d82:	eb07 0684 	add.w	r6, r7, r4, lsl #2
   88d86:	f857 3024 	ldr.w	r3, [r7, r4, lsl #2]
   88d8a:	f423 57cb 	bic.w	r7, r3, #6496	; 0x1960
   88d8e:	f027 071c 	bic.w	r7, r7, #28
   88d92:	ea4f 21c1 	mov.w	r1, r1, lsl #11
   88d96:	f401 51c0 	and.w	r1, r1, #6144	; 0x1800
   88d9a:	f000 0080 	and.w	r0, r0, #128	; 0x80
   88d9e:	2800      	cmp	r0, #0
   88da0:	bf14      	ite	ne
   88da2:	f44f 7080 	movne.w	r0, #256	; 0x100
   88da6:	2000      	moveq	r0, #0
   88da8:	f5a2 6380 	sub.w	r3, r2, #1024	; 0x400
   88dac:	b29b      	uxth	r3, r3
   88dae:	f5b3 4f7c 	cmp.w	r3, #64512	; 0xfc00
   88db2:	d306      	bcc.n	88dc2 <udd_ep_alloc+0x9a>
   88db4:	2a08      	cmp	r2, #8
   88db6:	d907      	bls.n	88dc8 <udd_ep_alloc+0xa0>
   88db8:	ea4f 0342 	mov.w	r3, r2, lsl #1
   88dbc:	f103 32ff 	add.w	r2, r3, #4294967295
   88dc0:	e004      	b.n	88dcc <udd_ep_alloc+0xa4>
   88dc2:	f240 72ff 	movw	r2, #2047	; 0x7ff
   88dc6:	e001      	b.n	88dcc <udd_ep_alloc+0xa4>
   88dc8:	f04f 020f 	mov.w	r2, #15
   88dcc:	fab2 f282 	clz	r2, r2
   88dd0:	ea41 0585 	orr.w	r5, r1, r5, lsl #2
   88dd4:	4305      	orrs	r5, r0
   88dd6:	f1c2 011c 	rsb	r1, r2, #28
   88dda:	ea45 1001 	orr.w	r0, r5, r1, lsl #4
   88dde:	f641 1374 	movw	r3, #6516	; 0x1974
   88de2:	4003      	ands	r3, r0
   88de4:	433b      	orrs	r3, r7
   88de6:	6033      	str	r3, [r6, #0]
   88de8:	f04f 0601 	mov.w	r6, #1
   88dec:	fa06 f604 	lsl.w	r6, r6, r4
   88df0:	b2b7      	uxth	r7, r6
   88df2:	2c04      	cmp	r4, #4
   88df4:	f200 80b3 	bhi.w	88f5e <udd_ep_alloc+0x236>
   88df8:	f24c 1114 	movw	r1, #49428	; 0xc114
   88dfc:	f2c4 010a 	movt	r1, #16394	; 0x400a
   88e00:	f04f 0305 	mov.w	r3, #5
   88e04:	f44f 4240 	mov.w	r2, #49152	; 0xc000
   88e08:	f2c4 020a 	movt	r2, #16394	; 0x400a
   88e0c:	f04f 0001 	mov.w	r0, #1
   88e10:	ea6f 0504 	mvn.w	r5, r4
   88e14:	18ee      	adds	r6, r5, r3
   88e16:	ea06 0c00 	and.w	ip, r6, r0
   88e1a:	69d6      	ldr	r6, [r2, #28]
   88e1c:	fa00 f503 	lsl.w	r5, r0, r3
   88e20:	4235      	tst	r5, r6
   88e22:	f000 81c3 	beq.w	891ac <udd_ep_alloc+0x484>
   88e26:	e1b5      	b.n	89194 <udd_ep_alloc+0x46c>
   88e28:	46a0      	mov	r8, r4
   88e2a:	e7ff      	b.n	88e2c <udd_ep_alloc+0x104>
   88e2c:	69d4      	ldr	r4, [r2, #28]
   88e2e:	fa00 f603 	lsl.w	r6, r0, r3
   88e32:	4226      	tst	r6, r4
   88e34:	d009      	beq.n	88e4a <udd_ep_alloc+0x122>
   88e36:	4337      	orrs	r7, r6
   88e38:	b2bf      	uxth	r7, r7
   88e3a:	69d4      	ldr	r4, [r2, #28]
   88e3c:	ea24 0606 	bic.w	r6, r4, r6
   88e40:	61d6      	str	r6, [r2, #28]
   88e42:	680d      	ldr	r5, [r1, #0]
   88e44:	f025 0402 	bic.w	r4, r5, #2
   88e48:	600c      	str	r4, [r1, #0]
   88e4a:	f103 33ff 	add.w	r3, r3, #4294967295
   88e4e:	f1a1 0904 	sub.w	r9, r1, #4
   88e52:	69d4      	ldr	r4, [r2, #28]
   88e54:	fa00 f503 	lsl.w	r5, r0, r3
   88e58:	4225      	tst	r5, r4
   88e5a:	f000 81dc 	beq.w	89216 <udd_ep_alloc+0x4ee>
   88e5e:	e1cc      	b.n	891fa <udd_ep_alloc+0x4d2>
   88e60:	fa47 f004 	asr.w	r0, r7, r4
   88e64:	f010 0f01 	tst.w	r0, #1
   88e68:	d05a      	beq.n	88f20 <udd_ep_alloc+0x1f8>
   88e6a:	f104 33ff 	add.w	r3, r4, #4294967295
   88e6e:	eb03 0c43 	add.w	ip, r3, r3, lsl #1
   88e72:	eb09 05cc 	add.w	r5, r9, ip, lsl #3
   88e76:	7d29      	ldrb	r1, [r5, #20]
   88e78:	f001 0201 	and.w	r2, r1, #1
   88e7c:	9203      	str	r2, [sp, #12]
   88e7e:	f36f 0100 	bfc	r1, #0, #1
   88e82:	7529      	strb	r1, [r5, #20]
   88e84:	ea4f 0184 	mov.w	r1, r4, lsl #2
   88e88:	198a      	adds	r2, r1, r6
   88e8a:	f856 0024 	ldr.w	r0, [r6, r4, lsl #2]
   88e8e:	f040 0302 	orr.w	r3, r0, #2
   88e92:	f846 3024 	str.w	r3, [r6, r4, lsl #2]
   88e96:	f8d8 301c 	ldr.w	r3, [r8, #28]
   88e9a:	f04f 0001 	mov.w	r0, #1
   88e9e:	fa00 fb04 	lsl.w	fp, r0, r4
   88ea2:	ea4b 0303 	orr.w	r3, fp, r3
   88ea6:	f8c8 301c 	str.w	r3, [r8, #28]
   88eaa:	f85a 3024 	ldr.w	r3, [sl, r4, lsl #2]
   88eae:	f413 2f80 	tst.w	r3, #262144	; 0x40000
   88eb2:	d110      	bne.n	88ed6 <udd_ep_alloc+0x1ae>
   88eb4:	682b      	ldr	r3, [r5, #0]
   88eb6:	2b00      	cmp	r3, #0
   88eb8:	d048      	beq.n	88f4c <udd_ep_alloc+0x224>
   88eba:	6811      	ldr	r1, [r2, #0]
   88ebc:	f411 7f80 	tst.w	r1, #256	; 0x100
   88ec0:	bf18      	it	ne
   88ec2:	f044 0480 	orrne.w	r4, r4, #128	; 0x80
   88ec6:	f04f 0001 	mov.w	r0, #1
   88eca:	68e9      	ldr	r1, [r5, #12]
   88ecc:	4622      	mov	r2, r4
   88ece:	4798      	blx	r3
   88ed0:	f04f 0000 	mov.w	r0, #0
   88ed4:	e05d      	b.n	88f92 <udd_ep_alloc+0x26a>
   88ed6:	f856 2024 	ldr.w	r2, [r6, r4, lsl #2]
   88eda:	f442 7300 	orr.w	r3, r2, #512	; 0x200
   88ede:	f846 3024 	str.w	r3, [r6, r4, lsl #2]
   88ee2:	9a03      	ldr	r2, [sp, #12]
   88ee4:	b1e2      	cbz	r2, 88f20 <udd_ep_alloc+0x1f8>
   88ee6:	68ea      	ldr	r2, [r5, #12]
   88ee8:	692b      	ldr	r3, [r5, #16]
   88eea:	1ad3      	subs	r3, r2, r3
   88eec:	60eb      	str	r3, [r5, #12]
   88eee:	5989      	ldr	r1, [r1, r6]
   88ef0:	f411 7f80 	tst.w	r1, #256	; 0x100
   88ef4:	bf14      	ite	ne
   88ef6:	f044 0080 	orrne.w	r0, r4, #128	; 0x80
   88efa:	4620      	moveq	r0, r4
   88efc:	7d29      	ldrb	r1, [r5, #20]
   88efe:	f8d5 e004 	ldr.w	lr, [r5, #4]
   88f02:	68ad      	ldr	r5, [r5, #8]
   88f04:	f859 203c 	ldr.w	r2, [r9, ip, lsl #3]
   88f08:	9200      	str	r2, [sp, #0]
   88f0a:	f3c1 0140 	ubfx	r1, r1, #1, #1
   88f0e:	eb0e 0203 	add.w	r2, lr, r3
   88f12:	1aeb      	subs	r3, r5, r3
   88f14:	f648 4525 	movw	r5, #35877	; 0x8c25
   88f18:	f2c0 0508 	movt	r5, #8
   88f1c:	47a8      	blx	r5
   88f1e:	b1c0      	cbz	r0, 88f52 <udd_ep_alloc+0x22a>
   88f20:	f104 0401 	add.w	r4, r4, #1
   88f24:	b2e4      	uxtb	r4, r4
   88f26:	fa47 f004 	asr.w	r0, r7, r4
   88f2a:	f010 0f01 	tst.w	r0, #1
   88f2e:	f000 812a 	beq.w	89186 <udd_ep_alloc+0x45e>
   88f32:	e0d9      	b.n	890e8 <udd_ep_alloc+0x3c0>
   88f34:	f04f 0001 	mov.w	r0, #1
   88f38:	e02b      	b.n	88f92 <udd_ep_alloc+0x26a>
   88f3a:	f04f 0000 	mov.w	r0, #0
   88f3e:	e028      	b.n	88f92 <udd_ep_alloc+0x26a>
   88f40:	f04f 0000 	mov.w	r0, #0
   88f44:	e025      	b.n	88f92 <udd_ep_alloc+0x26a>
   88f46:	f04f 0000 	mov.w	r0, #0
   88f4a:	e022      	b.n	88f92 <udd_ep_alloc+0x26a>
   88f4c:	f04f 0000 	mov.w	r0, #0
   88f50:	e01f      	b.n	88f92 <udd_ep_alloc+0x26a>
   88f52:	f04f 0000 	mov.w	r0, #0
   88f56:	e01c      	b.n	88f92 <udd_ep_alloc+0x26a>
   88f58:	f04f 0500 	mov.w	r5, #0
   88f5c:	e70d      	b.n	88d7a <udd_ep_alloc+0x52>
   88f5e:	f241 5994 	movw	r9, #5524	; 0x1594
   88f62:	f2c2 0907 	movt	r9, #8199	; 0x2007
   88f66:	f44f 4641 	mov.w	r6, #49408	; 0xc100
   88f6a:	f2c4 060a 	movt	r6, #16394	; 0x400a
   88f6e:	f44f 4840 	mov.w	r8, #49152	; 0xc000
   88f72:	f2c4 080a 	movt	r8, #16394	; 0x400a
   88f76:	f24c 1a30 	movw	sl, #49456	; 0xc130
   88f7a:	f2c4 0a0a 	movt	sl, #16394	; 0x400a
   88f7e:	f1c4 0b05 	rsb	fp, r4, #5
   88f82:	f00b 0b01 	and.w	fp, fp, #1
   88f86:	fa47 f204 	asr.w	r2, r7, r4
   88f8a:	f012 0f01 	tst.w	r2, #1
   88f8e:	d04c      	beq.n	8902a <udd_ep_alloc+0x302>
   88f90:	e002      	b.n	88f98 <udd_ep_alloc+0x270>
   88f92:	b005      	add	sp, #20
   88f94:	e8bd 8ff0 	ldmia.w	sp!, {r4, r5, r6, r7, r8, r9, sl, fp, pc}
   88f98:	f104 30ff 	add.w	r0, r4, #4294967295
   88f9c:	eb00 0540 	add.w	r5, r0, r0, lsl #1
   88fa0:	eb09 05c5 	add.w	r5, r9, r5, lsl #3
   88fa4:	7d2b      	ldrb	r3, [r5, #20]
   88fa6:	f003 0c01 	and.w	ip, r3, #1
   88faa:	f36f 0300 	bfc	r3, #0, #1
   88fae:	752b      	strb	r3, [r5, #20]
   88fb0:	ea4f 0384 	mov.w	r3, r4, lsl #2
   88fb4:	199a      	adds	r2, r3, r6
   88fb6:	6811      	ldr	r1, [r2, #0]
   88fb8:	f041 0002 	orr.w	r0, r1, #2
   88fbc:	6010      	str	r0, [r2, #0]
   88fbe:	f8d8 101c 	ldr.w	r1, [r8, #28]
   88fc2:	f04f 0001 	mov.w	r0, #1
   88fc6:	fa00 f004 	lsl.w	r0, r0, r4
   88fca:	4301      	orrs	r1, r0
   88fcc:	f8c8 101c 	str.w	r1, [r8, #28]
   88fd0:	4453      	add	r3, sl
   88fd2:	6818      	ldr	r0, [r3, #0]
   88fd4:	f410 2f80 	tst.w	r0, #262144	; 0x40000
   88fd8:	f43f af6c 	beq.w	88eb4 <udd_ep_alloc+0x18c>
   88fdc:	6811      	ldr	r1, [r2, #0]
   88fde:	f441 7300 	orr.w	r3, r1, #512	; 0x200
   88fe2:	6013      	str	r3, [r2, #0]
   88fe4:	f1bc 0f00 	cmp.w	ip, #0
   88fe8:	d01f      	beq.n	8902a <udd_ep_alloc+0x302>
   88fea:	68e8      	ldr	r0, [r5, #12]
   88fec:	6929      	ldr	r1, [r5, #16]
   88fee:	1a43      	subs	r3, r0, r1
   88ff0:	60eb      	str	r3, [r5, #12]
   88ff2:	6812      	ldr	r2, [r2, #0]
   88ff4:	f412 7f80 	tst.w	r2, #256	; 0x100
   88ff8:	d012      	beq.n	89020 <udd_ep_alloc+0x2f8>
   88ffa:	e013      	b.n	89024 <udd_ep_alloc+0x2fc>
   88ffc:	7d29      	ldrb	r1, [r5, #20]
   88ffe:	686a      	ldr	r2, [r5, #4]
   89000:	f8d5 e008 	ldr.w	lr, [r5, #8]
   89004:	682d      	ldr	r5, [r5, #0]
   89006:	9500      	str	r5, [sp, #0]
   89008:	f3c1 0140 	ubfx	r1, r1, #1, #1
   8900c:	18d2      	adds	r2, r2, r3
   8900e:	ebc3 030e 	rsb	r3, r3, lr
   89012:	f648 4525 	movw	r5, #35877	; 0x8c25
   89016:	f2c0 0508 	movt	r5, #8
   8901a:	47a8      	blx	r5
   8901c:	b928      	cbnz	r0, 8902a <udd_ep_alloc+0x302>
   8901e:	e798      	b.n	88f52 <udd_ep_alloc+0x22a>
   89020:	4620      	mov	r0, r4
   89022:	e7eb      	b.n	88ffc <udd_ep_alloc+0x2d4>
   89024:	f044 0080 	orr.w	r0, r4, #128	; 0x80
   89028:	e7e8      	b.n	88ffc <udd_ep_alloc+0x2d4>
   8902a:	f104 0401 	add.w	r4, r4, #1
   8902e:	b2e4      	uxtb	r4, r4
   89030:	2c06      	cmp	r4, #6
   89032:	f43f af7f 	beq.w	88f34 <udd_ep_alloc+0x20c>
   89036:	fa4f f08b 	sxtb.w	r0, fp
   8903a:	2800      	cmp	r0, #0
   8903c:	f43f af10 	beq.w	88e60 <udd_ep_alloc+0x138>
   89040:	fa47 f304 	asr.w	r3, r7, r4
   89044:	f013 0f01 	tst.w	r3, #1
   89048:	d047      	beq.n	890da <udd_ep_alloc+0x3b2>
   8904a:	f104 31ff 	add.w	r1, r4, #4294967295
   8904e:	eb01 0241 	add.w	r2, r1, r1, lsl #1
   89052:	eb09 05c2 	add.w	r5, r9, r2, lsl #3
   89056:	7d28      	ldrb	r0, [r5, #20]
   89058:	f000 0101 	and.w	r1, r0, #1
   8905c:	f36f 0000 	bfc	r0, #0, #1
   89060:	7528      	strb	r0, [r5, #20]
   89062:	ea4f 0384 	mov.w	r3, r4, lsl #2
   89066:	199a      	adds	r2, r3, r6
   89068:	6810      	ldr	r0, [r2, #0]
   8906a:	f040 0002 	orr.w	r0, r0, #2
   8906e:	6010      	str	r0, [r2, #0]
   89070:	f8d8 001c 	ldr.w	r0, [r8, #28]
   89074:	f04f 0b01 	mov.w	fp, #1
   89078:	fa0b fc04 	lsl.w	ip, fp, r4
   8907c:	ea4c 0000 	orr.w	r0, ip, r0
   89080:	f8c8 001c 	str.w	r0, [r8, #28]
   89084:	4453      	add	r3, sl
   89086:	6818      	ldr	r0, [r3, #0]
   89088:	f410 2f80 	tst.w	r0, #262144	; 0x40000
   8908c:	f43f af12 	beq.w	88eb4 <udd_ep_alloc+0x18c>
   89090:	6813      	ldr	r3, [r2, #0]
   89092:	f443 7000 	orr.w	r0, r3, #512	; 0x200
   89096:	6010      	str	r0, [r2, #0]
   89098:	b1f9      	cbz	r1, 890da <udd_ep_alloc+0x3b2>
   8909a:	68e9      	ldr	r1, [r5, #12]
   8909c:	692b      	ldr	r3, [r5, #16]
   8909e:	1acb      	subs	r3, r1, r3
   890a0:	60eb      	str	r3, [r5, #12]
   890a2:	6812      	ldr	r2, [r2, #0]
   890a4:	f412 7f80 	tst.w	r2, #256	; 0x100
   890a8:	d012      	beq.n	890d0 <udd_ep_alloc+0x3a8>
   890aa:	e013      	b.n	890d4 <udd_ep_alloc+0x3ac>
   890ac:	7d29      	ldrb	r1, [r5, #20]
   890ae:	686a      	ldr	r2, [r5, #4]
   890b0:	f8d5 e008 	ldr.w	lr, [r5, #8]
   890b4:	682d      	ldr	r5, [r5, #0]
   890b6:	9500      	str	r5, [sp, #0]
   890b8:	f3c1 0140 	ubfx	r1, r1, #1, #1
   890bc:	18d2      	adds	r2, r2, r3
   890be:	ebc3 030e 	rsb	r3, r3, lr
   890c2:	f648 4525 	movw	r5, #35877	; 0x8c25
   890c6:	f2c0 0508 	movt	r5, #8
   890ca:	47a8      	blx	r5
   890cc:	b928      	cbnz	r0, 890da <udd_ep_alloc+0x3b2>
   890ce:	e740      	b.n	88f52 <udd_ep_alloc+0x22a>
   890d0:	4620      	mov	r0, r4
   890d2:	e7eb      	b.n	890ac <udd_ep_alloc+0x384>
   890d4:	f044 0080 	orr.w	r0, r4, #128	; 0x80
   890d8:	e7e8      	b.n	890ac <udd_ep_alloc+0x384>
   890da:	f104 0401 	add.w	r4, r4, #1
   890de:	b2e4      	uxtb	r4, r4
   890e0:	2c06      	cmp	r4, #6
   890e2:	f47f aebd 	bne.w	88e60 <udd_ep_alloc+0x138>
   890e6:	e725      	b.n	88f34 <udd_ep_alloc+0x20c>
   890e8:	f104 33ff 	add.w	r3, r4, #4294967295
   890ec:	eb03 0c43 	add.w	ip, r3, r3, lsl #1
   890f0:	eb09 05cc 	add.w	r5, r9, ip, lsl #3
   890f4:	7d29      	ldrb	r1, [r5, #20]
   890f6:	f001 0201 	and.w	r2, r1, #1
   890fa:	9203      	str	r2, [sp, #12]
   890fc:	f36f 0100 	bfc	r1, #0, #1
   89100:	7529      	strb	r1, [r5, #20]
   89102:	ea4f 0184 	mov.w	r1, r4, lsl #2
   89106:	198a      	adds	r2, r1, r6
   89108:	f856 0024 	ldr.w	r0, [r6, r4, lsl #2]
   8910c:	f040 0302 	orr.w	r3, r0, #2
   89110:	f846 3024 	str.w	r3, [r6, r4, lsl #2]
   89114:	f8d8 301c 	ldr.w	r3, [r8, #28]
   89118:	f04f 0001 	mov.w	r0, #1
   8911c:	fa00 fb04 	lsl.w	fp, r0, r4
   89120:	ea4b 0303 	orr.w	r3, fp, r3
   89124:	f8c8 301c 	str.w	r3, [r8, #28]
   89128:	f85a 0024 	ldr.w	r0, [sl, r4, lsl #2]
   8912c:	f410 2f80 	tst.w	r0, #262144	; 0x40000
   89130:	f43f aec0 	beq.w	88eb4 <udd_ep_alloc+0x18c>
   89134:	f856 2024 	ldr.w	r2, [r6, r4, lsl #2]
   89138:	f442 7300 	orr.w	r3, r2, #512	; 0x200
   8913c:	f846 3024 	str.w	r3, [r6, r4, lsl #2]
   89140:	9803      	ldr	r0, [sp, #12]
   89142:	b300      	cbz	r0, 89186 <udd_ep_alloc+0x45e>
   89144:	68ea      	ldr	r2, [r5, #12]
   89146:	692b      	ldr	r3, [r5, #16]
   89148:	1ad3      	subs	r3, r2, r3
   8914a:	60eb      	str	r3, [r5, #12]
   8914c:	5989      	ldr	r1, [r1, r6]
   8914e:	f411 7f80 	tst.w	r1, #256	; 0x100
   89152:	d013      	beq.n	8917c <udd_ep_alloc+0x454>
   89154:	e014      	b.n	89180 <udd_ep_alloc+0x458>
   89156:	7d29      	ldrb	r1, [r5, #20]
   89158:	f8d5 e004 	ldr.w	lr, [r5, #4]
   8915c:	68ad      	ldr	r5, [r5, #8]
   8915e:	f859 203c 	ldr.w	r2, [r9, ip, lsl #3]
   89162:	9200      	str	r2, [sp, #0]
   89164:	f3c1 0140 	ubfx	r1, r1, #1, #1
   89168:	eb0e 0203 	add.w	r2, lr, r3
   8916c:	1aeb      	subs	r3, r5, r3
   8916e:	f648 4525 	movw	r5, #35877	; 0x8c25
   89172:	f2c0 0508 	movt	r5, #8
   89176:	47a8      	blx	r5
   89178:	b928      	cbnz	r0, 89186 <udd_ep_alloc+0x45e>
   8917a:	e6ea      	b.n	88f52 <udd_ep_alloc+0x22a>
   8917c:	4620      	mov	r0, r4
   8917e:	e7ea      	b.n	89156 <udd_ep_alloc+0x42e>
   89180:	f044 0080 	orr.w	r0, r4, #128	; 0x80
   89184:	e7e7      	b.n	89156 <udd_ep_alloc+0x42e>
   89186:	f104 0401 	add.w	r4, r4, #1
   8918a:	b2e4      	uxtb	r4, r4
   8918c:	2c06      	cmp	r4, #6
   8918e:	f47f ae67 	bne.w	88e60 <udd_ep_alloc+0x138>
   89192:	e6cf      	b.n	88f34 <udd_ep_alloc+0x20c>
   89194:	fa00 f603 	lsl.w	r6, r0, r3
   89198:	4337      	orrs	r7, r6
   8919a:	b2bf      	uxth	r7, r7
   8919c:	69d6      	ldr	r6, [r2, #28]
   8919e:	ea26 0505 	bic.w	r5, r6, r5
   891a2:	61d5      	str	r5, [r2, #28]
   891a4:	680e      	ldr	r6, [r1, #0]
   891a6:	f026 0502 	bic.w	r5, r6, #2
   891aa:	600d      	str	r5, [r1, #0]
   891ac:	f103 33ff 	add.w	r3, r3, #4294967295
   891b0:	f1a1 0104 	sub.w	r1, r1, #4
   891b4:	b2dd      	uxtb	r5, r3
   891b6:	42a5      	cmp	r5, r4
   891b8:	f67f aed1 	bls.w	88f5e <udd_ep_alloc+0x236>
   891bc:	fa4f f68c 	sxtb.w	r6, ip
   891c0:	2e00      	cmp	r6, #0
   891c2:	f43f ae31 	beq.w	88e28 <udd_ep_alloc+0x100>
   891c6:	69d6      	ldr	r6, [r2, #28]
   891c8:	fa00 f503 	lsl.w	r5, r0, r3
   891cc:	4235      	tst	r5, r6
   891ce:	d009      	beq.n	891e4 <udd_ep_alloc+0x4bc>
   891d0:	432f      	orrs	r7, r5
   891d2:	b2bf      	uxth	r7, r7
   891d4:	69d6      	ldr	r6, [r2, #28]
   891d6:	ea26 0505 	bic.w	r5, r6, r5
   891da:	61d5      	str	r5, [r2, #28]
   891dc:	680e      	ldr	r6, [r1, #0]
   891de:	f026 0502 	bic.w	r5, r6, #2
   891e2:	600d      	str	r5, [r1, #0]
   891e4:	f103 33ff 	add.w	r3, r3, #4294967295
   891e8:	f1a1 0104 	sub.w	r1, r1, #4
   891ec:	b2dd      	uxtb	r5, r3
   891ee:	42a5      	cmp	r5, r4
   891f0:	bf88      	it	hi
   891f2:	46a0      	movhi	r8, r4
   891f4:	f63f ae1a 	bhi.w	88e2c <udd_ep_alloc+0x104>
   891f8:	e6b1      	b.n	88f5e <udd_ep_alloc+0x236>
   891fa:	fa00 f603 	lsl.w	r6, r0, r3
   891fe:	4337      	orrs	r7, r6
   89200:	b2bf      	uxth	r7, r7
   89202:	69d4      	ldr	r4, [r2, #28]
   89204:	ea24 0505 	bic.w	r5, r4, r5
   89208:	61d5      	str	r5, [r2, #28]
   8920a:	f851 6c04 	ldr.w	r6, [r1, #-4]
   8920e:	f026 0402 	bic.w	r4, r6, #2
   89212:	f841 4c04 	str.w	r4, [r1, #-4]
   89216:	f103 33ff 	add.w	r3, r3, #4294967295
   8921a:	f1a9 0104 	sub.w	r1, r9, #4
   8921e:	b2dd      	uxtb	r5, r3
   89220:	4545      	cmp	r5, r8
   89222:	f63f ae03 	bhi.w	88e2c <udd_ep_alloc+0x104>
   89226:	4644      	mov	r4, r8
   89228:	e699      	b.n	88f5e <udd_ep_alloc+0x236>
   8922a:	bf00      	nop

0008922c <udd_ep_abort>:
   8922c:	b538      	push	{r3, r4, r5, lr}
   8922e:	f000 030f 	and.w	r3, r0, #15
   89232:	f103 32ff 	add.w	r2, r3, #4294967295
   89236:	f04f 7100 	mov.w	r1, #33554432	; 0x2000000
   8923a:	fa01 f102 	lsl.w	r1, r1, r2
   8923e:	f44f 4240 	mov.w	r2, #49152	; 0xc000
   89242:	f2c4 020a 	movt	r2, #16394	; 0x400a
   89246:	6151      	str	r1, [r2, #20]
   89248:	f44f 4443 	mov.w	r4, #49920	; 0xc300
   8924c:	f2c4 040a 	movt	r4, #16394	; 0x400a
   89250:	eb04 1103 	add.w	r1, r4, r3, lsl #4
   89254:	f04f 0400 	mov.w	r4, #0
   89258:	608c      	str	r4, [r1, #8]
   8925a:	f44f 5180 	mov.w	r1, #4096	; 0x1000
   8925e:	fa01 f103 	lsl.w	r1, r1, r3
   89262:	6151      	str	r1, [r2, #20]
   89264:	f010 0f80 	tst.w	r0, #128	; 0x80
   89268:	d01c      	beq.n	892a4 <udd_ep_abort+0x78>
   8926a:	ea4f 0383 	mov.w	r3, r3, lsl #2
   8926e:	f24c 1530 	movw	r5, #49456	; 0xc130
   89272:	f2c4 050a 	movt	r5, #16394	; 0x400a
   89276:	1959      	adds	r1, r3, r5
   89278:	f24c 12f0 	movw	r2, #49648	; 0xc1f0
   8927c:	f2c4 020a 	movt	r2, #16394	; 0x400a
   89280:	189c      	adds	r4, r3, r2
   89282:	f44f 5500 	mov.w	r5, #8192	; 0x2000
   89286:	f24c 12c0 	movw	r2, #49600	; 0xc1c0
   8928a:	f2c4 020a 	movt	r2, #16394	; 0x400a
   8928e:	189a      	adds	r2, r3, r2
   89290:	e004      	b.n	8929c <udd_ep_abort+0x70>
   89292:	6025      	str	r5, [r4, #0]
   89294:	6813      	ldr	r3, [r2, #0]
   89296:	f413 5f00 	tst.w	r3, #8192	; 0x2000
   8929a:	d1fb      	bne.n	89294 <udd_ep_abort+0x68>
   8929c:	680b      	ldr	r3, [r1, #0]
   8929e:	f413 5f40 	tst.w	r3, #12288	; 0x3000
   892a2:	d1f6      	bne.n	89292 <udd_ep_abort+0x66>
   892a4:	f647 01e9 	movw	r1, #30953	; 0x78e9
   892a8:	f2c0 0108 	movt	r1, #8
   892ac:	4788      	blx	r1
   892ae:	bd38      	pop	{r3, r4, r5, pc}

000892b0 <udd_ep_wait_stall_clear>:
   892b0:	b510      	push	{r4, lr}
   892b2:	f000 000f 	and.w	r0, r0, #15
   892b6:	2805      	cmp	r0, #5
   892b8:	d831      	bhi.n	8931e <udd_ep_wait_stall_clear+0x6e>
   892ba:	f44f 4340 	mov.w	r3, #49152	; 0xc000
   892be:	f2c4 030a 	movt	r3, #16394	; 0x400a
   892c2:	69db      	ldr	r3, [r3, #28]
   892c4:	f04f 0201 	mov.w	r2, #1
   892c8:	fa02 f200 	lsl.w	r2, r2, r0
   892cc:	421a      	tst	r2, r3
   892ce:	d029      	beq.n	89324 <udd_ep_wait_stall_clear+0x74>
   892d0:	f100 33ff 	add.w	r3, r0, #4294967295
   892d4:	eb03 0343 	add.w	r3, r3, r3, lsl #1
   892d8:	f241 5294 	movw	r2, #5524	; 0x1594
   892dc:	f2c2 0207 	movt	r2, #8199	; 0x2007
   892e0:	eb02 03c3 	add.w	r3, r2, r3, lsl #3
   892e4:	7d1a      	ldrb	r2, [r3, #20]
   892e6:	f012 0f01 	tst.w	r2, #1
   892ea:	d11e      	bne.n	8932a <udd_ep_wait_stall_clear+0x7a>
   892ec:	f24c 14c0 	movw	r4, #49600	; 0xc1c0
   892f0:	f2c4 040a 	movt	r4, #16394	; 0x400a
   892f4:	f854 0020 	ldr.w	r0, [r4, r0, lsl #2]
   892f8:	f410 2f00 	tst.w	r0, #524288	; 0x80000
   892fc:	d103      	bne.n	89306 <udd_ep_wait_stall_clear+0x56>
   892fe:	f002 0204 	and.w	r2, r2, #4
   89302:	b2d0      	uxtb	r0, r2
   89304:	b138      	cbz	r0, 89316 <udd_ep_wait_stall_clear+0x66>
   89306:	7d1a      	ldrb	r2, [r3, #20]
   89308:	f042 0001 	orr.w	r0, r2, #1
   8930c:	7518      	strb	r0, [r3, #20]
   8930e:	6019      	str	r1, [r3, #0]
   89310:	f04f 0001 	mov.w	r0, #1
   89314:	bd10      	pop	{r4, pc}
   89316:	4788      	blx	r1
   89318:	f04f 0001 	mov.w	r0, #1
   8931c:	bd10      	pop	{r4, pc}
   8931e:	f04f 0000 	mov.w	r0, #0
   89322:	bd10      	pop	{r4, pc}
   89324:	f04f 0000 	mov.w	r0, #0
   89328:	bd10      	pop	{r4, pc}
   8932a:	f04f 0000 	mov.w	r0, #0
   8932e:	bd10      	pop	{r4, pc}

00089330 <udd_test_mode_j>:
   89330:	f44f 4340 	mov.w	r3, #49152	; 0xc000
   89334:	f2c4 030a 	movt	r3, #16394	; 0x400a
   89338:	681a      	ldr	r2, [r3, #0]
   8933a:	f422 6040 	bic.w	r0, r2, #3072	; 0xc00
   8933e:	f440 6100 	orr.w	r1, r0, #2048	; 0x800
   89342:	6019      	str	r1, [r3, #0]
   89344:	681a      	ldr	r2, [r3, #0]
   89346:	f442 5000 	orr.w	r0, r2, #8192	; 0x2000
   8934a:	6018      	str	r0, [r3, #0]
   8934c:	4770      	bx	lr
   8934e:	bf00      	nop

00089350 <udd_test_mode_k>:
   89350:	f44f 4340 	mov.w	r3, #49152	; 0xc000
   89354:	f2c4 030a 	movt	r3, #16394	; 0x400a
   89358:	681a      	ldr	r2, [r3, #0]
   8935a:	f422 6040 	bic.w	r0, r2, #3072	; 0xc00
   8935e:	f440 6100 	orr.w	r1, r0, #2048	; 0x800
   89362:	6019      	str	r1, [r3, #0]
   89364:	681a      	ldr	r2, [r3, #0]
   89366:	f442 4080 	orr.w	r0, r2, #16384	; 0x4000
   8936a:	6018      	str	r0, [r3, #0]
   8936c:	4770      	bx	lr
   8936e:	bf00      	nop

00089370 <udd_test_mode_se0_nak>:
   89370:	f44f 4340 	mov.w	r3, #49152	; 0xc000
   89374:	f2c4 030a 	movt	r3, #16394	; 0x400a
   89378:	681a      	ldr	r2, [r3, #0]
   8937a:	f422 6040 	bic.w	r0, r2, #3072	; 0xc00
   8937e:	f440 6100 	orr.w	r1, r0, #2048	; 0x800
   89382:	6019      	str	r1, [r3, #0]
   89384:	4770      	bx	lr
   89386:	bf00      	nop

00089388 <udd_test_mode_packet>:
   89388:	b470      	push	{r4, r5, r6}
   8938a:	b08f      	sub	sp, #60	; 0x3c
   8938c:	f64c 4598 	movw	r5, #52376	; 0xcc98
   89390:	f2c0 0508 	movt	r5, #8
   89394:	ac00      	add	r4, sp, #0
   89396:	6828      	ldr	r0, [r5, #0]
   89398:	6869      	ldr	r1, [r5, #4]
   8939a:	68aa      	ldr	r2, [r5, #8]
   8939c:	68eb      	ldr	r3, [r5, #12]
   8939e:	c40f      	stmia	r4!, {r0, r1, r2, r3}
   893a0:	f105 0510 	add.w	r5, r5, #16
   893a4:	4626      	mov	r6, r4
   893a6:	6828      	ldr	r0, [r5, #0]
   893a8:	6869      	ldr	r1, [r5, #4]
   893aa:	68aa      	ldr	r2, [r5, #8]
   893ac:	68eb      	ldr	r3, [r5, #12]
   893ae:	c40f      	stmia	r4!, {r0, r1, r2, r3}
   893b0:	6928      	ldr	r0, [r5, #16]
   893b2:	6969      	ldr	r1, [r5, #20]
   893b4:	69aa      	ldr	r2, [r5, #24]
   893b6:	69eb      	ldr	r3, [r5, #28]
   893b8:	c40f      	stmia	r4!, {r0, r1, r2, r3}
   893ba:	6a28      	ldr	r0, [r5, #32]
   893bc:	f846 0f20 	str.w	r0, [r6, #32]!
   893c0:	f895 1024 	ldrb.w	r1, [r5, #36]	; 0x24
   893c4:	f105 0520 	add.w	r5, r5, #32
   893c8:	7131      	strb	r1, [r6, #4]
   893ca:	f44f 4440 	mov.w	r4, #49152	; 0xc000
   893ce:	f2c4 040a 	movt	r4, #16394	; 0x400a
   893d2:	69e2      	ldr	r2, [r4, #28]
   893d4:	f022 0301 	bic.w	r3, r2, #1
   893d8:	61e3      	str	r3, [r4, #28]
   893da:	f44f 4041 	mov.w	r0, #49408	; 0xc100
   893de:	f2c4 000a 	movt	r0, #16394	; 0x400a
   893e2:	6801      	ldr	r1, [r0, #0]
   893e4:	f421 52cb 	bic.w	r2, r1, #6496	; 0x1960
   893e8:	f022 031c 	bic.w	r3, r2, #28
   893ec:	f443 5189 	orr.w	r1, r3, #4384	; 0x1120
   893f0:	f041 0210 	orr.w	r2, r1, #16
   893f4:	6002      	str	r2, [r0, #0]
   893f6:	6803      	ldr	r3, [r0, #0]
   893f8:	f043 0102 	orr.w	r1, r3, #2
   893fc:	6001      	str	r1, [r0, #0]
   893fe:	69e0      	ldr	r0, [r4, #28]
   89400:	f040 0201 	orr.w	r2, r0, #1
   89404:	61e2      	str	r2, [r4, #28]
   89406:	6823      	ldr	r3, [r4, #0]
   89408:	f423 6140 	bic.w	r1, r3, #3072	; 0xc00
   8940c:	f441 6000 	orr.w	r0, r1, #2048	; 0x800
   89410:	6020      	str	r0, [r4, #0]
   89412:	6822      	ldr	r2, [r4, #0]
   89414:	f442 4300 	orr.w	r3, r2, #32768	; 0x8000
   89418:	6023      	str	r3, [r4, #0]
   8941a:	f04f 0435 	mov.w	r4, #53	; 0x35
   8941e:	f2c2 0418 	movt	r4, #8216	; 0x2018
   89422:	f10d 31ff 	add.w	r1, sp, #4294967295
   89426:	f811 0f01 	ldrb.w	r0, [r1, #1]!
   8942a:	f04f 0300 	mov.w	r3, #0
   8942e:	f2c2 0318 	movt	r3, #8216	; 0x2018
   89432:	f803 0b01 	strb.w	r0, [r3], #1
   89436:	f101 0001 	add.w	r0, r1, #1
   8943a:	7849      	ldrb	r1, [r1, #1]
   8943c:	461a      	mov	r2, r3
   8943e:	f802 1b01 	strb.w	r1, [r2], #1
   89442:	f100 0101 	add.w	r1, r0, #1
   89446:	7840      	ldrb	r0, [r0, #1]
   89448:	7058      	strb	r0, [r3, #1]
   8944a:	f102 0301 	add.w	r3, r2, #1
   8944e:	42a3      	cmp	r3, r4
   89450:	d1f1      	bne.n	89436 <udd_test_mode_packet+0xae>
   89452:	f24c 2120 	movw	r1, #49696	; 0xc220
   89456:	f2c4 010a 	movt	r1, #16394	; 0x400a
   8945a:	f44f 4280 	mov.w	r2, #16384	; 0x4000
   8945e:	600a      	str	r2, [r1, #0]
   89460:	b00f      	add	sp, #60	; 0x3c
   89462:	bc70      	pop	{r4, r5, r6}
   89464:	4770      	bx	lr
   89466:	bf00      	nop

00089468 <Dummy_Handler>:
   89468:	e7fe      	b.n	89468 <Dummy_Handler>
   8946a:	bf00      	nop

0008946c <Reset_Handler>:
   8946c:	b538      	push	{r3, r4, r5, lr}
   8946e:	f240 0300 	movw	r3, #0
   89472:	f2c2 0307 	movt	r3, #8199	; 0x2007
   89476:	f64c 6268 	movw	r2, #52840	; 0xce68
   8947a:	f2c0 0208 	movt	r2, #8
   8947e:	429a      	cmp	r2, r3
   89480:	d003      	beq.n	8948a <Reset_Handler+0x1e>
   89482:	4840      	ldr	r0, [pc, #256]	; (89584 <Reset_Handler+0x118>)
   89484:	4940      	ldr	r1, [pc, #256]	; (89588 <Reset_Handler+0x11c>)
   89486:	4281      	cmp	r1, r0
   89488:	d304      	bcc.n	89494 <Reset_Handler+0x28>
   8948a:	4b40      	ldr	r3, [pc, #256]	; (8958c <Reset_Handler+0x120>)
   8948c:	4a40      	ldr	r2, [pc, #256]	; (89590 <Reset_Handler+0x124>)
   8948e:	429a      	cmp	r2, r3
   89490:	d325      	bcc.n	894de <Reset_Handler+0x72>
   89492:	e042      	b.n	8951a <Reset_Handler+0xae>
   89494:	4d3f      	ldr	r5, [pc, #252]	; (89594 <Reset_Handler+0x128>)
   89496:	4c40      	ldr	r4, [pc, #256]	; (89598 <Reset_Handler+0x12c>)
   89498:	1b63      	subs	r3, r4, r5
   8949a:	f023 0503 	bic.w	r5, r3, #3
   8949e:	f04f 0300 	mov.w	r3, #0
   894a2:	f240 0200 	movw	r2, #0
   894a6:	f2c2 0207 	movt	r2, #8199	; 0x2007
   894aa:	f64c 6168 	movw	r1, #52840	; 0xce68
   894ae:	f2c0 0108 	movt	r1, #8
   894b2:	f105 0004 	add.w	r0, r5, #4
   894b6:	f3c5 0480 	ubfx	r4, r5, #2, #1
   894ba:	585d      	ldr	r5, [r3, r1]
   894bc:	509d      	str	r5, [r3, r2]
   894be:	f103 0304 	add.w	r3, r3, #4
   894c2:	4283      	cmp	r3, r0
   894c4:	d155      	bne.n	89572 <Reset_Handler+0x106>
   894c6:	e7e0      	b.n	8948a <Reset_Handler+0x1e>
   894c8:	585d      	ldr	r5, [r3, r1]
   894ca:	509d      	str	r5, [r3, r2]
   894cc:	f103 0304 	add.w	r3, r3, #4
   894d0:	585c      	ldr	r4, [r3, r1]
   894d2:	509c      	str	r4, [r3, r2]
   894d4:	f103 0304 	add.w	r3, r3, #4
   894d8:	4283      	cmp	r3, r0
   894da:	d1f5      	bne.n	894c8 <Reset_Handler+0x5c>
   894dc:	e7d5      	b.n	8948a <Reset_Handler+0x1e>
   894de:	4d2f      	ldr	r5, [pc, #188]	; (8959c <Reset_Handler+0x130>)
   894e0:	492f      	ldr	r1, [pc, #188]	; (895a0 <Reset_Handler+0x134>)
   894e2:	1b48      	subs	r0, r1, r5
   894e4:	f020 0403 	bic.w	r4, r0, #3
   894e8:	f640 23e8 	movw	r3, #2792	; 0xae8
   894ec:	f2c2 0307 	movt	r3, #8199	; 0x2007
   894f0:	18e2      	adds	r2, r4, r3
   894f2:	f04f 0100 	mov.w	r1, #0
   894f6:	1b50      	subs	r0, r2, r5
   894f8:	f1a0 0004 	sub.w	r0, r0, #4
   894fc:	f3c0 0480 	ubfx	r4, r0, #2, #1
   89500:	f845 1f04 	str.w	r1, [r5, #4]!
   89504:	4295      	cmp	r5, r2
   89506:	d12d      	bne.n	89564 <Reset_Handler+0xf8>
   89508:	e007      	b.n	8951a <Reset_Handler+0xae>
   8950a:	f105 0304 	add.w	r3, r5, #4
   8950e:	6069      	str	r1, [r5, #4]
   89510:	f105 0508 	add.w	r5, r5, #8
   89514:	6059      	str	r1, [r3, #4]
   89516:	4295      	cmp	r5, r2
   89518:	d1f7      	bne.n	8950a <Reset_Handler+0x9e>
   8951a:	f240 0500 	movw	r5, #0
   8951e:	f2c0 0508 	movt	r5, #8
   89522:	f025 4260 	bic.w	r2, r5, #3758096384	; 0xe0000000
   89526:	f022 017f 	bic.w	r1, r2, #127	; 0x7f
   8952a:	f44f 406d 	mov.w	r0, #60672	; 0xed00
   8952e:	f2ce 0000 	movt	r0, #57344	; 0xe000
   89532:	6081      	str	r1, [r0, #8]
   89534:	f105 4460 	add.w	r4, r5, #3758096384	; 0xe0000000
   89538:	f5b4 1f80 	cmp.w	r4, #1048576	; 0x100000
   8953c:	d207      	bcs.n	8954e <Reset_Handler+0xe2>
   8953e:	f44f 436d 	mov.w	r3, #60672	; 0xed00
   89542:	f2ce 0300 	movt	r3, #57344	; 0xe000
   89546:	689d      	ldr	r5, [r3, #8]
   89548:	f045 5200 	orr.w	r2, r5, #536870912	; 0x20000000
   8954c:	609a      	str	r2, [r3, #8]
   8954e:	f649 61d5 	movw	r1, #40661	; 0x9ed5
   89552:	f2c0 0108 	movt	r1, #8
   89556:	4788      	blx	r1
   89558:	f649 00a1 	movw	r0, #39073	; 0x98a1
   8955c:	f2c0 0008 	movt	r0, #8
   89560:	4780      	blx	r0
   89562:	e7fe      	b.n	89562 <Reset_Handler+0xf6>
   89564:	2c00      	cmp	r4, #0
   89566:	d0d0      	beq.n	8950a <Reset_Handler+0x9e>
   89568:	f845 1f04 	str.w	r1, [r5, #4]!
   8956c:	4295      	cmp	r5, r2
   8956e:	d1cc      	bne.n	8950a <Reset_Handler+0x9e>
   89570:	e7d3      	b.n	8951a <Reset_Handler+0xae>
   89572:	2c00      	cmp	r4, #0
   89574:	d0a8      	beq.n	894c8 <Reset_Handler+0x5c>
   89576:	585c      	ldr	r4, [r3, r1]
   89578:	509c      	str	r4, [r3, r2]
   8957a:	f103 0304 	add.w	r3, r3, #4
   8957e:	4283      	cmp	r3, r0
   89580:	d1a2      	bne.n	894c8 <Reset_Handler+0x5c>
   89582:	e782      	b.n	8948a <Reset_Handler+0x1e>
   89584:	20070ae8 	.word	0x20070ae8
   89588:	20070000 	.word	0x20070000
   8958c:	20071c34 	.word	0x20071c34
   89590:	20070ae8 	.word	0x20070ae8
   89594:	20070004 	.word	0x20070004
   89598:	20070aeb 	.word	0x20070aeb
   8959c:	20070ae4 	.word	0x20070ae4
   895a0:	20071c2f 	.word	0x20071c2f

000895a4 <SystemCoreClockUpdate>:
   895a4:	f44f 63c0 	mov.w	r3, #1536	; 0x600
   895a8:	f2c4 030e 	movt	r3, #16398	; 0x400e
   895ac:	6b18      	ldr	r0, [r3, #48]	; 0x30
   895ae:	f000 0103 	and.w	r1, r0, #3
   895b2:	2903      	cmp	r1, #3
   895b4:	f200 80b1 	bhi.w	8971a <SystemCoreClockUpdate+0x176>
   895b8:	e8df f001 	tbb	[pc, r1]
   895bc:	4f4f1402 	.word	0x4f4f1402
   895c0:	f641 2010 	movw	r0, #6672	; 0x1a10
   895c4:	f2c4 000e 	movt	r0, #16398	; 0x400e
   895c8:	6941      	ldr	r1, [r0, #20]
   895ca:	f011 0f80 	tst.w	r1, #128	; 0x80
   895ce:	f240 239c 	movw	r3, #668	; 0x29c
   895d2:	f2c2 0307 	movt	r3, #8199	; 0x2007
   895d6:	bf14      	ite	ne
   895d8:	f44f 4200 	movne.w	r2, #32768	; 0x8000
   895dc:	f44f 42fa 	moveq.w	r2, #32000	; 0x7d00
   895e0:	601a      	str	r2, [r3, #0]
   895e2:	e09a      	b.n	8971a <SystemCoreClockUpdate+0x176>
   895e4:	f44f 63c0 	mov.w	r3, #1536	; 0x600
   895e8:	f2c4 030e 	movt	r3, #16398	; 0x400e
   895ec:	6a18      	ldr	r0, [r3, #32]
   895ee:	f010 7f80 	tst.w	r0, #16777216	; 0x1000000
   895f2:	d009      	beq.n	89608 <SystemCoreClockUpdate+0x64>
   895f4:	f44f 53d8 	mov.w	r3, #6912	; 0x1b00
   895f8:	f2c0 03b7 	movt	r3, #183	; 0xb7
   895fc:	f240 229c 	movw	r2, #668	; 0x29c
   89600:	f2c2 0207 	movt	r2, #8199	; 0x2007
   89604:	6013      	str	r3, [r2, #0]
   89606:	e088      	b.n	8971a <SystemCoreClockUpdate+0x176>
   89608:	f44f 6110 	mov.w	r1, #2304	; 0x900
   8960c:	f2c0 013d 	movt	r1, #61	; 0x3d
   89610:	f240 229c 	movw	r2, #668	; 0x29c
   89614:	f2c2 0207 	movt	r2, #8199	; 0x2007
   89618:	6011      	str	r1, [r2, #0]
   8961a:	f44f 63c0 	mov.w	r3, #1536	; 0x600
   8961e:	f2c4 030e 	movt	r3, #16398	; 0x400e
   89622:	6a18      	ldr	r0, [r3, #32]
   89624:	f000 0170 	and.w	r1, r0, #112	; 0x70
   89628:	2910      	cmp	r1, #16
   8962a:	d002      	beq.n	89632 <SystemCoreClockUpdate+0x8e>
   8962c:	2920      	cmp	r1, #32
   8962e:	d174      	bne.n	8971a <SystemCoreClockUpdate+0x176>
   89630:	e009      	b.n	89646 <SystemCoreClockUpdate+0xa2>
   89632:	f44f 5090 	mov.w	r0, #4608	; 0x1200
   89636:	f2c0 007a 	movt	r0, #122	; 0x7a
   8963a:	f240 219c 	movw	r1, #668	; 0x29c
   8963e:	f2c2 0107 	movt	r1, #8199	; 0x2007
   89642:	6008      	str	r0, [r1, #0]
   89644:	e069      	b.n	8971a <SystemCoreClockUpdate+0x176>
   89646:	f44f 53d8 	mov.w	r3, #6912	; 0x1b00
   8964a:	f2c0 03b7 	movt	r3, #183	; 0xb7
   8964e:	f240 229c 	movw	r2, #668	; 0x29c
   89652:	f2c2 0207 	movt	r2, #8199	; 0x2007
   89656:	6013      	str	r3, [r2, #0]
   89658:	e05f      	b.n	8971a <SystemCoreClockUpdate+0x176>
   8965a:	f44f 62c0 	mov.w	r2, #1536	; 0x600
   8965e:	f2c4 020e 	movt	r2, #16398	; 0x400e
   89662:	6a13      	ldr	r3, [r2, #32]
   89664:	f013 7f80 	tst.w	r3, #16777216	; 0x1000000
   89668:	d009      	beq.n	8967e <SystemCoreClockUpdate+0xda>
   8966a:	f44f 51d8 	mov.w	r1, #6912	; 0x1b00
   8966e:	f2c0 01b7 	movt	r1, #183	; 0xb7
   89672:	f240 229c 	movw	r2, #668	; 0x29c
   89676:	f2c2 0207 	movt	r2, #8199	; 0x2007
   8967a:	6011      	str	r1, [r2, #0]
   8967c:	e027      	b.n	896ce <SystemCoreClockUpdate+0x12a>
   8967e:	f44f 6010 	mov.w	r0, #2304	; 0x900
   89682:	f2c0 003d 	movt	r0, #61	; 0x3d
   89686:	f240 219c 	movw	r1, #668	; 0x29c
   8968a:	f2c2 0107 	movt	r1, #8199	; 0x2007
   8968e:	6008      	str	r0, [r1, #0]
   89690:	f44f 62c0 	mov.w	r2, #1536	; 0x600
   89694:	f2c4 020e 	movt	r2, #16398	; 0x400e
   89698:	6a13      	ldr	r3, [r2, #32]
   8969a:	f003 0070 	and.w	r0, r3, #112	; 0x70
   8969e:	2810      	cmp	r0, #16
   896a0:	d002      	beq.n	896a8 <SystemCoreClockUpdate+0x104>
   896a2:	2820      	cmp	r0, #32
   896a4:	d113      	bne.n	896ce <SystemCoreClockUpdate+0x12a>
   896a6:	e009      	b.n	896bc <SystemCoreClockUpdate+0x118>
   896a8:	f44f 5390 	mov.w	r3, #4608	; 0x1200
   896ac:	f2c0 037a 	movt	r3, #122	; 0x7a
   896b0:	f240 209c 	movw	r0, #668	; 0x29c
   896b4:	f2c2 0007 	movt	r0, #8199	; 0x2007
   896b8:	6003      	str	r3, [r0, #0]
   896ba:	e008      	b.n	896ce <SystemCoreClockUpdate+0x12a>
   896bc:	f44f 51d8 	mov.w	r1, #6912	; 0x1b00
   896c0:	f2c0 01b7 	movt	r1, #183	; 0xb7
   896c4:	f240 229c 	movw	r2, #668	; 0x29c
   896c8:	f2c2 0207 	movt	r2, #8199	; 0x2007
   896cc:	6011      	str	r1, [r2, #0]
   896ce:	f44f 63c0 	mov.w	r3, #1536	; 0x600
   896d2:	f2c4 030e 	movt	r3, #16398	; 0x400e
   896d6:	6b18      	ldr	r0, [r3, #48]	; 0x30
   896d8:	f000 0103 	and.w	r1, r0, #3
   896dc:	2902      	cmp	r1, #2
   896de:	d113      	bne.n	89708 <SystemCoreClockUpdate+0x164>
   896e0:	f44f 61c0 	mov.w	r1, #1536	; 0x600
   896e4:	f2c4 010e 	movt	r1, #16398	; 0x400e
   896e8:	6a88      	ldr	r0, [r1, #40]	; 0x28
   896ea:	6a89      	ldr	r1, [r1, #40]	; 0x28
   896ec:	f240 239c 	movw	r3, #668	; 0x29c
   896f0:	f2c2 0307 	movt	r3, #8199	; 0x2007
   896f4:	f3c0 400a 	ubfx	r0, r0, #16, #11
   896f8:	681a      	ldr	r2, [r3, #0]
   896fa:	fb00 2002 	mla	r0, r0, r2, r2
   896fe:	b2c9      	uxtb	r1, r1
   89700:	fbb0 f2f1 	udiv	r2, r0, r1
   89704:	601a      	str	r2, [r3, #0]
   89706:	e008      	b.n	8971a <SystemCoreClockUpdate+0x176>
   89708:	f44f 53e0 	mov.w	r3, #7168	; 0x1c00
   8970c:	f6c0 634e 	movt	r3, #3662	; 0xe4e
   89710:	f240 229c 	movw	r2, #668	; 0x29c
   89714:	f2c2 0207 	movt	r2, #8199	; 0x2007
   89718:	6013      	str	r3, [r2, #0]
   8971a:	f44f 62c0 	mov.w	r2, #1536	; 0x600
   8971e:	f2c4 020e 	movt	r2, #16398	; 0x400e
   89722:	6b10      	ldr	r0, [r2, #48]	; 0x30
   89724:	f000 0170 	and.w	r1, r0, #112	; 0x70
   89728:	2970      	cmp	r1, #112	; 0x70
   8972a:	d10e      	bne.n	8974a <SystemCoreClockUpdate+0x1a6>
   8972c:	f240 239c 	movw	r3, #668	; 0x29c
   89730:	f2c2 0307 	movt	r3, #8199	; 0x2007
   89734:	6818      	ldr	r0, [r3, #0]
   89736:	f64a 22ab 	movw	r2, #43691	; 0xaaab
   8973a:	f6ca 22aa 	movt	r2, #43690	; 0xaaaa
   8973e:	fba2 0100 	umull	r0, r1, r2, r0
   89742:	ea4f 0051 	mov.w	r0, r1, lsr #1
   89746:	6018      	str	r0, [r3, #0]
   89748:	4770      	bx	lr
   8974a:	f44f 63c0 	mov.w	r3, #1536	; 0x600
   8974e:	f2c4 030e 	movt	r3, #16398	; 0x400e
   89752:	6b1a      	ldr	r2, [r3, #48]	; 0x30
   89754:	f240 209c 	movw	r0, #668	; 0x29c
   89758:	f2c2 0007 	movt	r0, #8199	; 0x2007
   8975c:	f3c2 1102 	ubfx	r1, r2, #4, #3
   89760:	6803      	ldr	r3, [r0, #0]
   89762:	fa23 f301 	lsr.w	r3, r3, r1
   89766:	6003      	str	r3, [r0, #0]
   89768:	4770      	bx	lr
   8976a:	bf00      	nop

0008976c <system_init_flash>:
   8976c:	f64e 23bf 	movw	r3, #60095	; 0xeabf
   89770:	f2c0 1321 	movt	r3, #289	; 0x121
   89774:	4298      	cmp	r0, r3
   89776:	d80c      	bhi.n	89792 <system_init_flash+0x26>
   89778:	f44f 6320 	mov.w	r3, #2560	; 0xa00
   8977c:	f2c4 030e 	movt	r3, #16398	; 0x400e
   89780:	f04f 0000 	mov.w	r0, #0
   89784:	6018      	str	r0, [r3, #0]
   89786:	f44f 6140 	mov.w	r1, #3072	; 0xc00
   8978a:	f2c4 010e 	movt	r1, #16398	; 0x400e
   8978e:	6008      	str	r0, [r1, #0]
   89790:	4770      	bx	lr
   89792:	f24f 017f 	movw	r1, #61567	; 0xf07f
   89796:	f2c0 21fa 	movt	r1, #762	; 0x2fa
   8979a:	4288      	cmp	r0, r1
   8979c:	d80c      	bhi.n	897b8 <system_init_flash+0x4c>
   8979e:	f44f 6020 	mov.w	r0, #2560	; 0xa00
   897a2:	f2c4 000e 	movt	r0, #16398	; 0x400e
   897a6:	f44f 7180 	mov.w	r1, #256	; 0x100
   897aa:	6001      	str	r1, [r0, #0]
   897ac:	f44f 6240 	mov.w	r2, #3072	; 0xc00
   897b0:	f2c4 020e 	movt	r2, #16398	; 0x400e
   897b4:	6011      	str	r1, [r2, #0]
   897b6:	4770      	bx	lr
   897b8:	f648 73ff 	movw	r3, #36863	; 0x8fff
   897bc:	f2c0 33d0 	movt	r3, #976	; 0x3d0
   897c0:	4298      	cmp	r0, r3
   897c2:	d80c      	bhi.n	897de <system_init_flash+0x72>
   897c4:	f44f 6120 	mov.w	r1, #2560	; 0xa00
   897c8:	f2c4 010e 	movt	r1, #16398	; 0x400e
   897cc:	f44f 7200 	mov.w	r2, #512	; 0x200
   897d0:	600a      	str	r2, [r1, #0]
   897d2:	f44f 6340 	mov.w	r3, #3072	; 0xc00
   897d6:	f2c4 030e 	movt	r3, #16398	; 0x400e
   897da:	601a      	str	r2, [r3, #0]
   897dc:	4770      	bx	lr
   897de:	f24b 31ff 	movw	r1, #46079	; 0xb3ff
   897e2:	f2c0 41c4 	movt	r1, #1220	; 0x4c4
   897e6:	4288      	cmp	r0, r1
   897e8:	d80c      	bhi.n	89804 <system_init_flash+0x98>
   897ea:	f44f 6320 	mov.w	r3, #2560	; 0xa00
   897ee:	f2c4 030e 	movt	r3, #16398	; 0x400e
   897f2:	f44f 7240 	mov.w	r2, #768	; 0x300
   897f6:	601a      	str	r2, [r3, #0]
   897f8:	f44f 6040 	mov.w	r0, #3072	; 0xc00
   897fc:	f2c4 000e 	movt	r0, #16398	; 0x400e
   89800:	6002      	str	r2, [r0, #0]
   89802:	4770      	bx	lr
   89804:	f644 237f 	movw	r3, #19071	; 0x4a7f
   89808:	f2c0 535d 	movt	r3, #1373	; 0x55d
   8980c:	4298      	cmp	r0, r3
   8980e:	f44f 6020 	mov.w	r0, #2560	; 0xa00
   89812:	f2c4 000e 	movt	r0, #16398	; 0x400e
   89816:	bf94      	ite	ls
   89818:	f44f 6280 	movls.w	r2, #1024	; 0x400
   8981c:	f44f 62a0 	movhi.w	r2, #1280	; 0x500
   89820:	6002      	str	r2, [r0, #0]
   89822:	f44f 6140 	mov.w	r1, #3072	; 0xc00
   89826:	f2c4 010e 	movt	r1, #16398	; 0x400e
   8982a:	600a      	str	r2, [r1, #0]
   8982c:	4770      	bx	lr
   8982e:	bf00      	nop

00089830 <_sbrk>:
   89830:	f241 6310 	movw	r3, #5648	; 0x1610
   89834:	f2c2 0307 	movt	r3, #8199	; 0x2007
   89838:	6819      	ldr	r1, [r3, #0]
   8983a:	b941      	cbnz	r1, 8984e <_sbrk+0x1e>
   8983c:	f241 6310 	movw	r3, #5648	; 0x1610
   89840:	f2c2 0307 	movt	r3, #8199	; 0x2007
   89844:	f643 4238 	movw	r2, #15416	; 0x3c38
   89848:	f2c2 0207 	movt	r2, #8199	; 0x2007
   8984c:	601a      	str	r2, [r3, #0]
   8984e:	f241 6110 	movw	r1, #5648	; 0x1610
   89852:	f2c2 0107 	movt	r1, #8199	; 0x2007
   89856:	680b      	ldr	r3, [r1, #0]
   89858:	1818      	adds	r0, r3, r0
   8985a:	6008      	str	r0, [r1, #0]
   8985c:	4618      	mov	r0, r3
   8985e:	4770      	bx	lr

00089860 <main_msc_enable>:
uint16_t last_ok_12v_state = FALSE;


bool main_msc_enable(void)
{
	main_b_msc_enable = true;
   89860:	f04f 0001 	mov.w	r0, #1
   89864:	f241 6316 	movw	r3, #5654	; 0x1616
   89868:	f2c2 0307 	movt	r3, #8199	; 0x2007
   8986c:	7018      	strb	r0, [r3, #0]
	return true;
}
   8986e:	4770      	bx	lr

00089870 <main_msc_disable>:
void main_msc_disable(void)
{
	main_b_msc_enable = false;
   89870:	f241 6316 	movw	r3, #5654	; 0x1616
   89874:	f2c2 0307 	movt	r3, #8199	; 0x2007
   89878:	f04f 0200 	mov.w	r2, #0
   8987c:	701a      	strb	r2, [r3, #0]
   8987e:	4770      	bx	lr

00089880 <main_cdc_enable>:
}
bool main_cdc_enable(uint8_t port)
{
	main_b_cdc_enable = true;
   89880:	f04f 0001 	mov.w	r0, #1
   89884:	f241 6317 	movw	r3, #5655	; 0x1617
   89888:	f2c2 0307 	movt	r3, #8199	; 0x2007
   8988c:	7018      	strb	r0, [r3, #0]
	return true;
}
   8988e:	4770      	bx	lr

00089890 <main_cdc_disable>:
void main_cdc_disable(uint8_t port)
{
	main_b_cdc_enable = false;
   89890:	f241 6317 	movw	r3, #5655	; 0x1617
   89894:	f2c2 0307 	movt	r3, #8199	; 0x2007
   89898:	f04f 0200 	mov.w	r2, #0
   8989c:	701a      	strb	r2, [r3, #0]
   8989e:	4770      	bx	lr

000898a0 <main>:
}

/*! \brief Main function. Execution starts here.
 */
int main(void)
{
   898a0:	b5f8      	push	{r3, r4, r5, r6, r7, lr}
	irq_initialize_vectors();
	cpu_irq_enable();
   898a2:	f04f 0401 	mov.w	r4, #1
   898a6:	f240 2398 	movw	r3, #664	; 0x298
   898aa:	f2c2 0307 	movt	r3, #8199	; 0x2007
   898ae:	701c      	strb	r4, [r3, #0]
    This function ensures the apparent order of the explicit memory operations before
    and after the instruction, without ensuring their completion.
 */
__attribute__( ( always_inline ) ) __STATIC_INLINE void __DMB(void)
{
  __ASM volatile ("dmb");
   898b0:	f3bf 8f5f 	dmb	sy
  This function enables IRQ interrupts by clearing the I-bit in the CPSR.
  Can only be executed in Privileged modes.
 */
__attribute__( ( always_inline ) ) __STATIC_INLINE void __enable_irq(void)
{
  __ASM volatile ("cpsie i");
   898b4:	b662      	cpsie	i
	wdt_disable(WDT);
   898b6:	f641 2050 	movw	r0, #6736	; 0x1a50
   898ba:	f2c4 000e 	movt	r0, #16398	; 0x400e
   898be:	f641 21dd 	movw	r1, #6877	; 0x1add
   898c2:	f2c0 0108 	movt	r1, #8
   898c6:	4788      	blx	r1
{
#ifdef CONFIG_SLEEPMGR_ENABLE
	uint8_t i;

	for (i = 0; i < SLEEPMGR_NR_OF_MODES - 1; i++) {
		sleepmgr_locks[i] = 0;
   898c8:	f641 4010 	movw	r0, #7184	; 0x1c10
   898cc:	f2c2 0007 	movt	r0, #8199	; 0x2007
   898d0:	f04f 0200 	mov.w	r2, #0
   898d4:	7002      	strb	r2, [r0, #0]
   898d6:	7042      	strb	r2, [r0, #1]
   898d8:	7082      	strb	r2, [r0, #2]
   898da:	70c2      	strb	r2, [r0, #3]
	}
	sleepmgr_locks[SLEEPMGR_NR_OF_MODES - 1] = 1;
   898dc:	7104      	strb	r4, [r0, #4]

	// Initialize the sleep manager
	sleepmgr_init();

	// Board initialization
	sysclk_init();
   898de:	f644 551d 	movw	r5, #19741	; 0x4d1d
   898e2:	f2c0 0508 	movt	r5, #8
   898e6:	47a8      	blx	r5
	init_board();
   898e8:	f641 26e5 	movw	r6, #6885	; 0x1ae5
   898ec:	f2c0 0608 	movt	r6, #8
   898f0:	47b0      	blx	r6
	init_pwm();
   898f2:	f242 472d 	movw	r7, #9261	; 0x242d
   898f6:	f2c0 0708 	movt	r7, #8
   898fa:	47b8      	blx	r7
	init_i2c();
   898fc:	f242 33dd 	movw	r3, #9181	; 0x23dd
   89900:	f2c0 0308 	movt	r3, #8
   89904:	4798      	blx	r3

	// Module initialization	
	init_module_peripherals_bp();
   89906:	f641 7115 	movw	r1, #7957	; 0x1f15
   8990a:	f2c0 0108 	movt	r1, #8
   8990e:	4788      	blx	r1

	/* Initialize SD MMC stack */
	delay_ms(200);
   89910:	f44f 409f 	mov.w	r0, #20352	; 0x4f80
   89914:	f2c0 0012 	movt	r0, #18
   89918:	f240 0201 	movw	r2, #1
   8991c:	f2c2 0207 	movt	r2, #8199	; 0x2007
   89920:	4790      	blx	r2
	sd_mmc_init();
   89922:	f240 4069 	movw	r0, #1129	; 0x469
   89926:	f2c0 0008 	movt	r0, #8
   8992a:	4780      	blx	r0

	// Start USB stack to authorize VBus monitoring
	udc_start();
   8992c:	f246 7509 	movw	r5, #26377	; 0x6709
   89930:	f2c0 0508 	movt	r5, #8
   89934:	47a8      	blx	r5
	
	// Init SCPI parser
    console_init();	
   89936:	f644 265d 	movw	r6, #19037	; 0x4a5d
   8993a:	f2c0 0608 	movt	r6, #8
   8993e:	47b0      	blx	r6
	
	if(get_12v_status() == RETURN_OK)
   89940:	f242 579d 	movw	r7, #9629	; 0x259d
   89944:	f2c0 0708 	movt	r7, #8
   89948:	47b8      	blx	r7
   8994a:	42a0      	cmp	r0, r4
   8994c:	d104      	bne.n	89958 <main+0xb8>
	{
		enable_12v();
   8994e:	f242 54bd 	movw	r4, #9661	; 0x25bd
   89952:	f2c0 0408 	movt	r4, #8
   89956:	47a0      	blx	r4
	}
	
	while (true) 
	{
		console_process();	
   89958:	f644 2675 	movw	r6, #19061	; 0x4a75
   8995c:	f2c0 0608 	movt	r6, #8
			
		if((get_ok_12v_status() == RETURN_OK) && (last_ok_12v_state == FALSE))
   89960:	f242 54ad 	movw	r4, #9645	; 0x25ad
   89964:	f2c0 0408 	movt	r4, #8
			#else
				set_user_led_colour(0, 100, 0);
			#endif
			last_ok_12v_state = true;
		}
		else if((get_ok_12v_status() == RETURN_NOK) && (last_ok_12v_state == TRUE))
   89968:	f241 6514 	movw	r5, #5652	; 0x1614
   8996c:	f2c2 0507 	movt	r5, #8199	; 0x2007
		{
			set_user_led_colour(0, 0, 0);
   89970:	f242 5745 	movw	r7, #9541	; 0x2545
   89974:	f2c0 0708 	movt	r7, #8
		enable_12v();
	}
	
	while (true) 
	{
		console_process();	
   89978:	47b0      	blx	r6
			
		if((get_ok_12v_status() == RETURN_OK) && (last_ok_12v_state == FALSE))
   8997a:	47a0      	blx	r4
   8997c:	2801      	cmp	r0, #1
   8997e:	d10b      	bne.n	89998 <main+0xf8>
   89980:	882b      	ldrh	r3, [r5, #0]
   89982:	b94b      	cbnz	r3, 89998 <main+0xf8>
		{
			#ifdef TEST_FW
				set_user_led_colour(300, 300, 300);
			#else
				set_user_led_colour(0, 100, 0);
   89984:	f04f 0000 	mov.w	r0, #0
   89988:	f04f 0164 	mov.w	r1, #100	; 0x64
   8998c:	4602      	mov	r2, r0
   8998e:	47b8      	blx	r7
			#endif
			last_ok_12v_state = true;
   89990:	f04f 0001 	mov.w	r0, #1
   89994:	8028      	strh	r0, [r5, #0]
   89996:	e00a      	b.n	899ae <main+0x10e>
		}
		else if((get_ok_12v_status() == RETURN_NOK) && (last_ok_12v_state == TRUE))
   89998:	47a0      	blx	r4
   8999a:	b940      	cbnz	r0, 899ae <main+0x10e>
   8999c:	8829      	ldrh	r1, [r5, #0]
   8999e:	2901      	cmp	r1, #1
   899a0:	d105      	bne.n	899ae <main+0x10e>
		{
			set_user_led_colour(0, 0, 0);
   899a2:	4601      	mov	r1, r0
   899a4:	4602      	mov	r2, r0
   899a6:	47b8      	blx	r7
			last_ok_12v_state = false;
   899a8:	f04f 0200 	mov.w	r2, #0
   899ac:	802a      	strh	r2, [r5, #0]
		}

		if (main_b_msc_enable) 
   899ae:	f241 6316 	movw	r3, #5654	; 0x1616
   899b2:	f2c2 0307 	movt	r3, #8199	; 0x2007
   899b6:	7819      	ldrb	r1, [r3, #0]
   899b8:	2900      	cmp	r1, #0
   899ba:	d0dd      	beq.n	89978 <main+0xd8>
		{
			if (!udi_msc_process_trans()) 
   899bc:	f246 3265 	movw	r2, #25445	; 0x6365
   899c0:	f2c0 0208 	movt	r2, #8
   899c4:	4790      	blx	r2
   899c6:	e7d7      	b.n	89978 <main+0xd8>

000899c8 <round>:
   899c8:	b5f8      	push	{r3, r4, r5, r6, r7, lr}
   899ca:	f3c1 570a 	ubfx	r7, r1, #20, #11
   899ce:	f2a7 36ff 	subw	r6, r7, #1023	; 0x3ff
   899d2:	2e13      	cmp	r6, #19
   899d4:	4602      	mov	r2, r0
   899d6:	460b      	mov	r3, r1
   899d8:	4604      	mov	r4, r0
   899da:	460d      	mov	r5, r1
   899dc:	dc18      	bgt.n	89a10 <round+0x48>
   899de:	2e00      	cmp	r6, #0
   899e0:	da08      	bge.n	899f4 <round+0x2c>
   899e2:	1c73      	adds	r3, r6, #1
   899e4:	f001 4500 	and.w	r5, r1, #2147483648	; 0x80000000
   899e8:	d130      	bne.n	89a4c <round+0x84>
   899ea:	f045 557f 	orr.w	r5, r5, #1069547520	; 0x3fc00000
   899ee:	f445 1540 	orr.w	r5, r5, #3145728	; 0x300000
   899f2:	e02b      	b.n	89a4c <round+0x84>
   899f4:	4818      	ldr	r0, [pc, #96]	; (89a58 <round+0x90>)
   899f6:	fa40 f006 	asr.w	r0, r0, r6
   899fa:	4208      	tst	r0, r1
   899fc:	d100      	bne.n	89a00 <round+0x38>
   899fe:	b342      	cbz	r2, 89a52 <round+0x8a>
   89a00:	f44f 2400 	mov.w	r4, #524288	; 0x80000
   89a04:	fa44 f606 	asr.w	r6, r4, r6
   89a08:	19ad      	adds	r5, r5, r6
   89a0a:	ea25 0500 	bic.w	r5, r5, r0
   89a0e:	e01d      	b.n	89a4c <round+0x84>
   89a10:	2e33      	cmp	r6, #51	; 0x33
   89a12:	dd07      	ble.n	89a24 <round+0x5c>
   89a14:	f5b6 6f80 	cmp.w	r6, #1024	; 0x400
   89a18:	d11b      	bne.n	89a52 <round+0x8a>
   89a1a:	f000 f825 	bl	89a68 <__adddf3>
   89a1e:	4602      	mov	r2, r0
   89a20:	460b      	mov	r3, r1
   89a22:	e016      	b.n	89a52 <round+0x8a>
   89a24:	f2a7 4113 	subw	r1, r7, #1043	; 0x413
   89a28:	f04f 30ff 	mov.w	r0, #4294967295
   89a2c:	fa20 f101 	lsr.w	r1, r0, r1
   89a30:	4211      	tst	r1, r2
   89a32:	d00e      	beq.n	89a52 <round+0x8a>
   89a34:	f5c7 6786 	rsb	r7, r7, #1072	; 0x430
   89a38:	2301      	movs	r3, #1
   89a3a:	1cba      	adds	r2, r7, #2
   89a3c:	fa03 f702 	lsl.w	r7, r3, r2
   89a40:	193c      	adds	r4, r7, r4
   89a42:	bf28      	it	cs
   89a44:	18ed      	addcs	r5, r5, r3
   89a46:	ea24 0401 	bic.w	r4, r4, r1
   89a4a:	e000      	b.n	89a4e <round+0x86>
   89a4c:	2400      	movs	r4, #0
   89a4e:	462b      	mov	r3, r5
   89a50:	4622      	mov	r2, r4
   89a52:	4610      	mov	r0, r2
   89a54:	4619      	mov	r1, r3
   89a56:	bdf8      	pop	{r3, r4, r5, r6, r7, pc}
   89a58:	000fffff 	.word	0x000fffff

00089a5c <__aeabi_drsub>:
   89a5c:	f081 4100 	eor.w	r1, r1, #2147483648	; 0x80000000
   89a60:	e002      	b.n	89a68 <__adddf3>
   89a62:	bf00      	nop

00089a64 <__aeabi_dsub>:
   89a64:	f083 4300 	eor.w	r3, r3, #2147483648	; 0x80000000

00089a68 <__adddf3>:
   89a68:	b530      	push	{r4, r5, lr}
   89a6a:	ea4f 0441 	mov.w	r4, r1, lsl #1
   89a6e:	ea4f 0543 	mov.w	r5, r3, lsl #1
   89a72:	ea94 0f05 	teq	r4, r5
   89a76:	bf08      	it	eq
   89a78:	ea90 0f02 	teqeq	r0, r2
   89a7c:	bf1f      	itttt	ne
   89a7e:	ea54 0c00 	orrsne.w	ip, r4, r0
   89a82:	ea55 0c02 	orrsne.w	ip, r5, r2
   89a86:	ea7f 5c64 	mvnsne.w	ip, r4, asr #21
   89a8a:	ea7f 5c65 	mvnsne.w	ip, r5, asr #21
   89a8e:	f000 80e2 	beq.w	89c56 <__adddf3+0x1ee>
   89a92:	ea4f 5454 	mov.w	r4, r4, lsr #21
   89a96:	ebd4 5555 	rsbs	r5, r4, r5, lsr #21
   89a9a:	bfb8      	it	lt
   89a9c:	426d      	neglt	r5, r5
   89a9e:	dd0c      	ble.n	89aba <__adddf3+0x52>
   89aa0:	442c      	add	r4, r5
   89aa2:	ea80 0202 	eor.w	r2, r0, r2
   89aa6:	ea81 0303 	eor.w	r3, r1, r3
   89aaa:	ea82 0000 	eor.w	r0, r2, r0
   89aae:	ea83 0101 	eor.w	r1, r3, r1
   89ab2:	ea80 0202 	eor.w	r2, r0, r2
   89ab6:	ea81 0303 	eor.w	r3, r1, r3
   89aba:	2d36      	cmp	r5, #54	; 0x36
   89abc:	bf88      	it	hi
   89abe:	bd30      	pophi	{r4, r5, pc}
   89ac0:	f011 4f00 	tst.w	r1, #2147483648	; 0x80000000
   89ac4:	ea4f 3101 	mov.w	r1, r1, lsl #12
   89ac8:	f44f 1c80 	mov.w	ip, #1048576	; 0x100000
   89acc:	ea4c 3111 	orr.w	r1, ip, r1, lsr #12
   89ad0:	d002      	beq.n	89ad8 <__adddf3+0x70>
   89ad2:	4240      	negs	r0, r0
   89ad4:	eb61 0141 	sbc.w	r1, r1, r1, lsl #1
   89ad8:	f013 4f00 	tst.w	r3, #2147483648	; 0x80000000
   89adc:	ea4f 3303 	mov.w	r3, r3, lsl #12
   89ae0:	ea4c 3313 	orr.w	r3, ip, r3, lsr #12
   89ae4:	d002      	beq.n	89aec <__adddf3+0x84>
   89ae6:	4252      	negs	r2, r2
   89ae8:	eb63 0343 	sbc.w	r3, r3, r3, lsl #1
   89aec:	ea94 0f05 	teq	r4, r5
   89af0:	f000 80a7 	beq.w	89c42 <__adddf3+0x1da>
   89af4:	f1a4 0401 	sub.w	r4, r4, #1
   89af8:	f1d5 0e20 	rsbs	lr, r5, #32
   89afc:	db0d      	blt.n	89b1a <__adddf3+0xb2>
   89afe:	fa02 fc0e 	lsl.w	ip, r2, lr
   89b02:	fa22 f205 	lsr.w	r2, r2, r5
   89b06:	1880      	adds	r0, r0, r2
   89b08:	f141 0100 	adc.w	r1, r1, #0
   89b0c:	fa03 f20e 	lsl.w	r2, r3, lr
   89b10:	1880      	adds	r0, r0, r2
   89b12:	fa43 f305 	asr.w	r3, r3, r5
   89b16:	4159      	adcs	r1, r3
   89b18:	e00e      	b.n	89b38 <__adddf3+0xd0>
   89b1a:	f1a5 0520 	sub.w	r5, r5, #32
   89b1e:	f10e 0e20 	add.w	lr, lr, #32
   89b22:	2a01      	cmp	r2, #1
   89b24:	fa03 fc0e 	lsl.w	ip, r3, lr
   89b28:	bf28      	it	cs
   89b2a:	f04c 0c02 	orrcs.w	ip, ip, #2
   89b2e:	fa43 f305 	asr.w	r3, r3, r5
   89b32:	18c0      	adds	r0, r0, r3
   89b34:	eb51 71e3 	adcs.w	r1, r1, r3, asr #31
   89b38:	f001 4500 	and.w	r5, r1, #2147483648	; 0x80000000
   89b3c:	d507      	bpl.n	89b4e <__adddf3+0xe6>
   89b3e:	f04f 0e00 	mov.w	lr, #0
   89b42:	f1dc 0c00 	rsbs	ip, ip, #0
   89b46:	eb7e 0000 	sbcs.w	r0, lr, r0
   89b4a:	eb6e 0101 	sbc.w	r1, lr, r1
   89b4e:	f5b1 1f80 	cmp.w	r1, #1048576	; 0x100000
   89b52:	d31b      	bcc.n	89b8c <__adddf3+0x124>
   89b54:	f5b1 1f00 	cmp.w	r1, #2097152	; 0x200000
   89b58:	d30c      	bcc.n	89b74 <__adddf3+0x10c>
   89b5a:	0849      	lsrs	r1, r1, #1
   89b5c:	ea5f 0030 	movs.w	r0, r0, rrx
   89b60:	ea4f 0c3c 	mov.w	ip, ip, rrx
   89b64:	f104 0401 	add.w	r4, r4, #1
   89b68:	ea4f 5244 	mov.w	r2, r4, lsl #21
   89b6c:	f512 0f80 	cmn.w	r2, #4194304	; 0x400000
   89b70:	f080 809a 	bcs.w	89ca8 <__adddf3+0x240>
   89b74:	f1bc 4f00 	cmp.w	ip, #2147483648	; 0x80000000
   89b78:	bf08      	it	eq
   89b7a:	ea5f 0c50 	movseq.w	ip, r0, lsr #1
   89b7e:	f150 0000 	adcs.w	r0, r0, #0
   89b82:	eb41 5104 	adc.w	r1, r1, r4, lsl #20
   89b86:	ea41 0105 	orr.w	r1, r1, r5
   89b8a:	bd30      	pop	{r4, r5, pc}
   89b8c:	ea5f 0c4c 	movs.w	ip, ip, lsl #1
   89b90:	4140      	adcs	r0, r0
   89b92:	eb41 0101 	adc.w	r1, r1, r1
   89b96:	f411 1f80 	tst.w	r1, #1048576	; 0x100000
   89b9a:	f1a4 0401 	sub.w	r4, r4, #1
   89b9e:	d1e9      	bne.n	89b74 <__adddf3+0x10c>
   89ba0:	f091 0f00 	teq	r1, #0
   89ba4:	bf04      	itt	eq
   89ba6:	4601      	moveq	r1, r0
   89ba8:	2000      	moveq	r0, #0
   89baa:	fab1 f381 	clz	r3, r1
   89bae:	bf08      	it	eq
   89bb0:	3320      	addeq	r3, #32
   89bb2:	f1a3 030b 	sub.w	r3, r3, #11
   89bb6:	f1b3 0220 	subs.w	r2, r3, #32
   89bba:	da0c      	bge.n	89bd6 <__adddf3+0x16e>
   89bbc:	320c      	adds	r2, #12
   89bbe:	dd08      	ble.n	89bd2 <__adddf3+0x16a>
   89bc0:	f102 0c14 	add.w	ip, r2, #20
   89bc4:	f1c2 020c 	rsb	r2, r2, #12
   89bc8:	fa01 f00c 	lsl.w	r0, r1, ip
   89bcc:	fa21 f102 	lsr.w	r1, r1, r2
   89bd0:	e00c      	b.n	89bec <__adddf3+0x184>
   89bd2:	f102 0214 	add.w	r2, r2, #20
   89bd6:	bfd8      	it	le
   89bd8:	f1c2 0c20 	rsble	ip, r2, #32
   89bdc:	fa01 f102 	lsl.w	r1, r1, r2
   89be0:	fa20 fc0c 	lsr.w	ip, r0, ip
   89be4:	bfdc      	itt	le
   89be6:	ea41 010c 	orrle.w	r1, r1, ip
   89bea:	4090      	lslle	r0, r2
   89bec:	1ae4      	subs	r4, r4, r3
   89bee:	bfa2      	ittt	ge
   89bf0:	eb01 5104 	addge.w	r1, r1, r4, lsl #20
   89bf4:	4329      	orrge	r1, r5
   89bf6:	bd30      	popge	{r4, r5, pc}
   89bf8:	ea6f 0404 	mvn.w	r4, r4
   89bfc:	3c1f      	subs	r4, #31
   89bfe:	da1c      	bge.n	89c3a <__adddf3+0x1d2>
   89c00:	340c      	adds	r4, #12
   89c02:	dc0e      	bgt.n	89c22 <__adddf3+0x1ba>
   89c04:	f104 0414 	add.w	r4, r4, #20
   89c08:	f1c4 0220 	rsb	r2, r4, #32
   89c0c:	fa20 f004 	lsr.w	r0, r0, r4
   89c10:	fa01 f302 	lsl.w	r3, r1, r2
   89c14:	ea40 0003 	orr.w	r0, r0, r3
   89c18:	fa21 f304 	lsr.w	r3, r1, r4
   89c1c:	ea45 0103 	orr.w	r1, r5, r3
   89c20:	bd30      	pop	{r4, r5, pc}
   89c22:	f1c4 040c 	rsb	r4, r4, #12
   89c26:	f1c4 0220 	rsb	r2, r4, #32
   89c2a:	fa20 f002 	lsr.w	r0, r0, r2
   89c2e:	fa01 f304 	lsl.w	r3, r1, r4
   89c32:	ea40 0003 	orr.w	r0, r0, r3
   89c36:	4629      	mov	r1, r5
   89c38:	bd30      	pop	{r4, r5, pc}
   89c3a:	fa21 f004 	lsr.w	r0, r1, r4
   89c3e:	4629      	mov	r1, r5
   89c40:	bd30      	pop	{r4, r5, pc}
   89c42:	f094 0f00 	teq	r4, #0
   89c46:	f483 1380 	eor.w	r3, r3, #1048576	; 0x100000
   89c4a:	bf06      	itte	eq
   89c4c:	f481 1180 	eoreq.w	r1, r1, #1048576	; 0x100000
   89c50:	3401      	addeq	r4, #1
   89c52:	3d01      	subne	r5, #1
   89c54:	e74e      	b.n	89af4 <__adddf3+0x8c>
   89c56:	ea7f 5c64 	mvns.w	ip, r4, asr #21
   89c5a:	bf18      	it	ne
   89c5c:	ea7f 5c65 	mvnsne.w	ip, r5, asr #21
   89c60:	d029      	beq.n	89cb6 <__adddf3+0x24e>
   89c62:	ea94 0f05 	teq	r4, r5
   89c66:	bf08      	it	eq
   89c68:	ea90 0f02 	teqeq	r0, r2
   89c6c:	d005      	beq.n	89c7a <__adddf3+0x212>
   89c6e:	ea54 0c00 	orrs.w	ip, r4, r0
   89c72:	bf04      	itt	eq
   89c74:	4619      	moveq	r1, r3
   89c76:	4610      	moveq	r0, r2
   89c78:	bd30      	pop	{r4, r5, pc}
   89c7a:	ea91 0f03 	teq	r1, r3
   89c7e:	bf1e      	ittt	ne
   89c80:	2100      	movne	r1, #0
   89c82:	2000      	movne	r0, #0
   89c84:	bd30      	popne	{r4, r5, pc}
   89c86:	ea5f 5c54 	movs.w	ip, r4, lsr #21
   89c8a:	d105      	bne.n	89c98 <__adddf3+0x230>
   89c8c:	0040      	lsls	r0, r0, #1
   89c8e:	4149      	adcs	r1, r1
   89c90:	bf28      	it	cs
   89c92:	f041 4100 	orrcs.w	r1, r1, #2147483648	; 0x80000000
   89c96:	bd30      	pop	{r4, r5, pc}
   89c98:	f514 0480 	adds.w	r4, r4, #4194304	; 0x400000
   89c9c:	bf3c      	itt	cc
   89c9e:	f501 1180 	addcc.w	r1, r1, #1048576	; 0x100000
   89ca2:	bd30      	popcc	{r4, r5, pc}
   89ca4:	f001 4500 	and.w	r5, r1, #2147483648	; 0x80000000
   89ca8:	f045 41fe 	orr.w	r1, r5, #2130706432	; 0x7f000000
   89cac:	f441 0170 	orr.w	r1, r1, #15728640	; 0xf00000
   89cb0:	f04f 0000 	mov.w	r0, #0
   89cb4:	bd30      	pop	{r4, r5, pc}
   89cb6:	ea7f 5c64 	mvns.w	ip, r4, asr #21
   89cba:	bf1a      	itte	ne
   89cbc:	4619      	movne	r1, r3
   89cbe:	4610      	movne	r0, r2
   89cc0:	ea7f 5c65 	mvnseq.w	ip, r5, asr #21
   89cc4:	bf1c      	itt	ne
   89cc6:	460b      	movne	r3, r1
   89cc8:	4602      	movne	r2, r0
   89cca:	ea50 3401 	orrs.w	r4, r0, r1, lsl #12
   89cce:	bf06      	itte	eq
   89cd0:	ea52 3503 	orrseq.w	r5, r2, r3, lsl #12
   89cd4:	ea91 0f03 	teqeq	r1, r3
   89cd8:	f441 2100 	orrne.w	r1, r1, #524288	; 0x80000
   89cdc:	bd30      	pop	{r4, r5, pc}
   89cde:	bf00      	nop

00089ce0 <__aeabi_ui2d>:
   89ce0:	f090 0f00 	teq	r0, #0
   89ce4:	bf04      	itt	eq
   89ce6:	2100      	moveq	r1, #0
   89ce8:	4770      	bxeq	lr
   89cea:	b530      	push	{r4, r5, lr}
   89cec:	f44f 6480 	mov.w	r4, #1024	; 0x400
   89cf0:	f104 0432 	add.w	r4, r4, #50	; 0x32
   89cf4:	f04f 0500 	mov.w	r5, #0
   89cf8:	f04f 0100 	mov.w	r1, #0
   89cfc:	e750      	b.n	89ba0 <__adddf3+0x138>
   89cfe:	bf00      	nop

00089d00 <__aeabi_i2d>:
   89d00:	f090 0f00 	teq	r0, #0
   89d04:	bf04      	itt	eq
   89d06:	2100      	moveq	r1, #0
   89d08:	4770      	bxeq	lr
   89d0a:	b530      	push	{r4, r5, lr}
   89d0c:	f44f 6480 	mov.w	r4, #1024	; 0x400
   89d10:	f104 0432 	add.w	r4, r4, #50	; 0x32
   89d14:	f010 4500 	ands.w	r5, r0, #2147483648	; 0x80000000
   89d18:	bf48      	it	mi
   89d1a:	4240      	negmi	r0, r0
   89d1c:	f04f 0100 	mov.w	r1, #0
   89d20:	e73e      	b.n	89ba0 <__adddf3+0x138>
   89d22:	bf00      	nop

00089d24 <__aeabi_f2d>:
   89d24:	0042      	lsls	r2, r0, #1
   89d26:	ea4f 01e2 	mov.w	r1, r2, asr #3
   89d2a:	ea4f 0131 	mov.w	r1, r1, rrx
   89d2e:	ea4f 7002 	mov.w	r0, r2, lsl #28
   89d32:	bf1f      	itttt	ne
   89d34:	f012 437f 	andsne.w	r3, r2, #4278190080	; 0xff000000
   89d38:	f093 4f7f 	teqne	r3, #4278190080	; 0xff000000
   89d3c:	f081 5160 	eorne.w	r1, r1, #939524096	; 0x38000000
   89d40:	4770      	bxne	lr
   89d42:	f092 0f00 	teq	r2, #0
   89d46:	bf14      	ite	ne
   89d48:	f093 4f7f 	teqne	r3, #4278190080	; 0xff000000
   89d4c:	4770      	bxeq	lr
   89d4e:	b530      	push	{r4, r5, lr}
   89d50:	f44f 7460 	mov.w	r4, #896	; 0x380
   89d54:	f001 4500 	and.w	r5, r1, #2147483648	; 0x80000000
   89d58:	f021 4100 	bic.w	r1, r1, #2147483648	; 0x80000000
   89d5c:	e720      	b.n	89ba0 <__adddf3+0x138>
   89d5e:	bf00      	nop

00089d60 <__aeabi_ul2d>:
   89d60:	ea50 0201 	orrs.w	r2, r0, r1
   89d64:	bf08      	it	eq
   89d66:	4770      	bxeq	lr
   89d68:	b530      	push	{r4, r5, lr}
   89d6a:	f04f 0500 	mov.w	r5, #0
   89d6e:	e00a      	b.n	89d86 <__aeabi_l2d+0x16>

00089d70 <__aeabi_l2d>:
   89d70:	ea50 0201 	orrs.w	r2, r0, r1
   89d74:	bf08      	it	eq
   89d76:	4770      	bxeq	lr
   89d78:	b530      	push	{r4, r5, lr}
   89d7a:	f011 4500 	ands.w	r5, r1, #2147483648	; 0x80000000
   89d7e:	d502      	bpl.n	89d86 <__aeabi_l2d+0x16>
   89d80:	4240      	negs	r0, r0
   89d82:	eb61 0141 	sbc.w	r1, r1, r1, lsl #1
   89d86:	f44f 6480 	mov.w	r4, #1024	; 0x400
   89d8a:	f104 0432 	add.w	r4, r4, #50	; 0x32
   89d8e:	ea5f 5c91 	movs.w	ip, r1, lsr #22
   89d92:	f43f aedc 	beq.w	89b4e <__adddf3+0xe6>
   89d96:	f04f 0203 	mov.w	r2, #3
   89d9a:	ea5f 0cdc 	movs.w	ip, ip, lsr #3
   89d9e:	bf18      	it	ne
   89da0:	3203      	addne	r2, #3
   89da2:	ea5f 0cdc 	movs.w	ip, ip, lsr #3
   89da6:	bf18      	it	ne
   89da8:	3203      	addne	r2, #3
   89daa:	eb02 02dc 	add.w	r2, r2, ip, lsr #3
   89dae:	f1c2 0320 	rsb	r3, r2, #32
   89db2:	fa00 fc03 	lsl.w	ip, r0, r3
   89db6:	fa20 f002 	lsr.w	r0, r0, r2
   89dba:	fa01 fe03 	lsl.w	lr, r1, r3
   89dbe:	ea40 000e 	orr.w	r0, r0, lr
   89dc2:	fa21 f102 	lsr.w	r1, r1, r2
   89dc6:	4414      	add	r4, r2
   89dc8:	e6c1      	b.n	89b4e <__adddf3+0xe6>
   89dca:	bf00      	nop

00089dcc <__aeabi_d2uiz>:
   89dcc:	004a      	lsls	r2, r1, #1
   89dce:	d211      	bcs.n	89df4 <__aeabi_d2uiz+0x28>
   89dd0:	f512 1200 	adds.w	r2, r2, #2097152	; 0x200000
   89dd4:	d211      	bcs.n	89dfa <__aeabi_d2uiz+0x2e>
   89dd6:	d50d      	bpl.n	89df4 <__aeabi_d2uiz+0x28>
   89dd8:	f46f 7378 	mvn.w	r3, #992	; 0x3e0
   89ddc:	ebb3 5262 	subs.w	r2, r3, r2, asr #21
   89de0:	d40e      	bmi.n	89e00 <__aeabi_d2uiz+0x34>
   89de2:	ea4f 23c1 	mov.w	r3, r1, lsl #11
   89de6:	f043 4300 	orr.w	r3, r3, #2147483648	; 0x80000000
   89dea:	ea43 5350 	orr.w	r3, r3, r0, lsr #21
   89dee:	fa23 f002 	lsr.w	r0, r3, r2
   89df2:	4770      	bx	lr
   89df4:	f04f 0000 	mov.w	r0, #0
   89df8:	4770      	bx	lr
   89dfa:	ea50 3001 	orrs.w	r0, r0, r1, lsl #12
   89dfe:	d102      	bne.n	89e06 <__aeabi_d2uiz+0x3a>
   89e00:	f04f 30ff 	mov.w	r0, #4294967295
   89e04:	4770      	bx	lr
   89e06:	f04f 0000 	mov.w	r0, #0
   89e0a:	4770      	bx	lr

00089e0c <__register_exitproc>:
   89e0c:	e92d 43f8 	stmdb	sp!, {r3, r4, r5, r6, r7, r8, r9, lr}
   89e10:	4698      	mov	r8, r3
   89e12:	4b23      	ldr	r3, [pc, #140]	; (89ea0 <__register_exitproc+0x94>)
   89e14:	4606      	mov	r6, r0
   89e16:	681c      	ldr	r4, [r3, #0]
   89e18:	460f      	mov	r7, r1
   89e1a:	f8d4 0148 	ldr.w	r0, [r4, #328]	; 0x148
   89e1e:	4691      	mov	r9, r2
   89e20:	b918      	cbnz	r0, 89e2a <__register_exitproc+0x1e>
   89e22:	f504 70a6 	add.w	r0, r4, #332	; 0x14c
   89e26:	f8c4 0148 	str.w	r0, [r4, #328]	; 0x148
   89e2a:	6841      	ldr	r1, [r0, #4]
   89e2c:	291f      	cmp	r1, #31
   89e2e:	dd16      	ble.n	89e5e <__register_exitproc+0x52>
   89e30:	481c      	ldr	r0, [pc, #112]	; (89ea4 <__register_exitproc+0x98>)
   89e32:	b918      	cbnz	r0, 89e3c <__register_exitproc+0x30>
   89e34:	f04f 30ff 	mov.w	r0, #4294967295
   89e38:	e8bd 83f8 	ldmia.w	sp!, {r3, r4, r5, r6, r7, r8, r9, pc}
   89e3c:	f44f 70c8 	mov.w	r0, #400	; 0x190
   89e40:	f3af 8000 	nop.w
   89e44:	2800      	cmp	r0, #0
   89e46:	d0f5      	beq.n	89e34 <__register_exitproc+0x28>
   89e48:	f8d4 2148 	ldr.w	r2, [r4, #328]	; 0x148
   89e4c:	2500      	movs	r5, #0
   89e4e:	6045      	str	r5, [r0, #4]
   89e50:	6002      	str	r2, [r0, #0]
   89e52:	f8c4 0148 	str.w	r0, [r4, #328]	; 0x148
   89e56:	f8c0 5188 	str.w	r5, [r0, #392]	; 0x188
   89e5a:	f8c0 518c 	str.w	r5, [r0, #396]	; 0x18c
   89e5e:	b1b6      	cbz	r6, 89e8e <__register_exitproc+0x82>
   89e60:	6844      	ldr	r4, [r0, #4]
   89e62:	2201      	movs	r2, #1
   89e64:	fa02 f204 	lsl.w	r2, r2, r4
   89e68:	f8d0 1188 	ldr.w	r1, [r0, #392]	; 0x188
   89e6c:	eb00 0384 	add.w	r3, r0, r4, lsl #2
   89e70:	4311      	orrs	r1, r2
   89e72:	2e02      	cmp	r6, #2
   89e74:	f8c3 9088 	str.w	r9, [r3, #136]	; 0x88
   89e78:	f8c0 1188 	str.w	r1, [r0, #392]	; 0x188
   89e7c:	461c      	mov	r4, r3
   89e7e:	f8c3 8108 	str.w	r8, [r3, #264]	; 0x108
   89e82:	d104      	bne.n	89e8e <__register_exitproc+0x82>
   89e84:	f8d0 318c 	ldr.w	r3, [r0, #396]	; 0x18c
   89e88:	431a      	orrs	r2, r3
   89e8a:	f8c0 218c 	str.w	r2, [r0, #396]	; 0x18c
   89e8e:	6841      	ldr	r1, [r0, #4]
   89e90:	1c8b      	adds	r3, r1, #2
   89e92:	1c4a      	adds	r2, r1, #1
   89e94:	f840 7023 	str.w	r7, [r0, r3, lsl #2]
   89e98:	6042      	str	r2, [r0, #4]
   89e9a:	2000      	movs	r0, #0
   89e9c:	e8bd 83f8 	ldmia.w	sp!, {r3, r4, r5, r6, r7, r8, r9, pc}
   89ea0:	0008cdd4 	.word	0x0008cdd4
   89ea4:	00000000 	.word	0x00000000

00089ea8 <__libc_fini_array>:
   89ea8:	b570      	push	{r4, r5, r6, lr}
   89eaa:	4b08      	ldr	r3, [pc, #32]	; (89ecc <__libc_fini_array+0x24>)
   89eac:	4c08      	ldr	r4, [pc, #32]	; (89ed0 <__libc_fini_array+0x28>)
   89eae:	2500      	movs	r5, #0
   89eb0:	1ae0      	subs	r0, r4, r3
   89eb2:	1084      	asrs	r4, r0, #2
   89eb4:	eb03 0684 	add.w	r6, r3, r4, lsl #2
   89eb8:	3d04      	subs	r5, #4
   89eba:	b11c      	cbz	r4, 89ec4 <__libc_fini_array+0x1c>
   89ebc:	5972      	ldr	r2, [r6, r5]
   89ebe:	4790      	blx	r2
   89ec0:	3c01      	subs	r4, #1
   89ec2:	e7f9      	b.n	89eb8 <__libc_fini_array+0x10>
   89ec4:	e8bd 4070 	ldmia.w	sp!, {r4, r5, r6, lr}
   89ec8:	f002 bfc2 	b.w	8ce50 <_fini>
   89ecc:	0008ce5c 	.word	0x0008ce5c
   89ed0:	0008ce60 	.word	0x0008ce60

00089ed4 <__libc_init_array>:
   89ed4:	b538      	push	{r3, r4, r5, lr}
   89ed6:	4d0e      	ldr	r5, [pc, #56]	; (89f10 <__libc_init_array+0x3c>)
   89ed8:	4b0e      	ldr	r3, [pc, #56]	; (89f14 <__libc_init_array+0x40>)
   89eda:	2400      	movs	r4, #0
   89edc:	1ae8      	subs	r0, r5, r3
   89ede:	1085      	asrs	r5, r0, #2
   89ee0:	42ac      	cmp	r4, r5
   89ee2:	d005      	beq.n	89ef0 <__libc_init_array+0x1c>
   89ee4:	490b      	ldr	r1, [pc, #44]	; (89f14 <__libc_init_array+0x40>)
   89ee6:	f851 2024 	ldr.w	r2, [r1, r4, lsl #2]
   89eea:	4790      	blx	r2
   89eec:	3401      	adds	r4, #1
   89eee:	e7f7      	b.n	89ee0 <__libc_init_array+0xc>
   89ef0:	f002 ffa4 	bl	8ce3c <_init>
   89ef4:	4908      	ldr	r1, [pc, #32]	; (89f18 <__libc_init_array+0x44>)
   89ef6:	4a09      	ldr	r2, [pc, #36]	; (89f1c <__libc_init_array+0x48>)
   89ef8:	1a54      	subs	r4, r2, r1
   89efa:	10a5      	asrs	r5, r4, #2
   89efc:	2400      	movs	r4, #0
   89efe:	42ac      	cmp	r4, r5
   89f00:	d005      	beq.n	89f0e <__libc_init_array+0x3a>
   89f02:	4b05      	ldr	r3, [pc, #20]	; (89f18 <__libc_init_array+0x44>)
   89f04:	f853 0024 	ldr.w	r0, [r3, r4, lsl #2]
   89f08:	4780      	blx	r0
   89f0a:	3401      	adds	r4, #1
   89f0c:	e7f7      	b.n	89efe <__libc_init_array+0x2a>
   89f0e:	bd38      	pop	{r3, r4, r5, pc}
   89f10:	0008ce48 	.word	0x0008ce48
   89f14:	0008ce48 	.word	0x0008ce48
   89f18:	0008ce48 	.word	0x0008ce48
   89f1c:	0008ce50 	.word	0x0008ce50

00089f20 <memcpy>:
   89f20:	b510      	push	{r4, lr}
   89f22:	2300      	movs	r3, #0
   89f24:	4293      	cmp	r3, r2
   89f26:	d003      	beq.n	89f30 <memcpy+0x10>
   89f28:	5ccc      	ldrb	r4, [r1, r3]
   89f2a:	54c4      	strb	r4, [r0, r3]
   89f2c:	3301      	adds	r3, #1
   89f2e:	e7f9      	b.n	89f24 <memcpy+0x4>
   89f30:	bd10      	pop	{r4, pc}

00089f32 <memmove>:
   89f32:	4281      	cmp	r1, r0
   89f34:	b570      	push	{r4, r5, r6, lr}
   89f36:	d20e      	bcs.n	89f56 <memmove+0x24>
   89f38:	188c      	adds	r4, r1, r2
   89f3a:	42a0      	cmp	r0, r4
   89f3c:	d20b      	bcs.n	89f56 <memmove+0x24>
   89f3e:	1885      	adds	r5, r0, r2
   89f40:	4613      	mov	r3, r2
   89f42:	f113 33ff 	adds.w	r3, r3, #4294967295
   89f46:	d305      	bcc.n	89f54 <memmove+0x22>
   89f48:	4251      	negs	r1, r2
   89f4a:	1866      	adds	r6, r4, r1
   89f4c:	5cf6      	ldrb	r6, [r6, r3]
   89f4e:	1869      	adds	r1, r5, r1
   89f50:	54ce      	strb	r6, [r1, r3]
   89f52:	e7f6      	b.n	89f42 <memmove+0x10>
   89f54:	bd70      	pop	{r4, r5, r6, pc}
   89f56:	2300      	movs	r3, #0
   89f58:	4293      	cmp	r3, r2
   89f5a:	d003      	beq.n	89f64 <memmove+0x32>
   89f5c:	5ccc      	ldrb	r4, [r1, r3]
   89f5e:	54c4      	strb	r4, [r0, r3]
   89f60:	3301      	adds	r3, #1
   89f62:	e7f9      	b.n	89f58 <memmove+0x26>
   89f64:	bd70      	pop	{r4, r5, r6, pc}
	...

00089f68 <_snprintf_r>:
   89f68:	b408      	push	{r3}
   89f6a:	b530      	push	{r4, r5, lr}
   89f6c:	1e14      	subs	r4, r2, #0
   89f6e:	b09c      	sub	sp, #112	; 0x70
   89f70:	4605      	mov	r5, r0
   89f72:	da04      	bge.n	89f7e <_snprintf_r+0x16>
   89f74:	208b      	movs	r0, #139	; 0x8b
   89f76:	6028      	str	r0, [r5, #0]
   89f78:	f04f 30ff 	mov.w	r0, #4294967295
   89f7c:	e01e      	b.n	89fbc <_snprintf_r+0x54>
   89f7e:	f44f 7302 	mov.w	r3, #520	; 0x208
   89f82:	f8ad 3014 	strh.w	r3, [sp, #20]
   89f86:	9102      	str	r1, [sp, #8]
   89f88:	9106      	str	r1, [sp, #24]
   89f8a:	d001      	beq.n	89f90 <_snprintf_r+0x28>
   89f8c:	1e60      	subs	r0, r4, #1
   89f8e:	e000      	b.n	89f92 <_snprintf_r+0x2a>
   89f90:	4620      	mov	r0, r4
   89f92:	f64f 71ff 	movw	r1, #65535	; 0xffff
   89f96:	ab20      	add	r3, sp, #128	; 0x80
   89f98:	9004      	str	r0, [sp, #16]
   89f9a:	9007      	str	r0, [sp, #28]
   89f9c:	f8ad 1016 	strh.w	r1, [sp, #22]
   89fa0:	4628      	mov	r0, r5
   89fa2:	a902      	add	r1, sp, #8
   89fa4:	9a1f      	ldr	r2, [sp, #124]	; 0x7c
   89fa6:	9301      	str	r3, [sp, #4]
   89fa8:	f000 f922 	bl	8a1f0 <_svfprintf_r>
   89fac:	1c43      	adds	r3, r0, #1
   89fae:	da01      	bge.n	89fb4 <_snprintf_r+0x4c>
   89fb0:	228b      	movs	r2, #139	; 0x8b
   89fb2:	602a      	str	r2, [r5, #0]
   89fb4:	b114      	cbz	r4, 89fbc <_snprintf_r+0x54>
   89fb6:	9b02      	ldr	r3, [sp, #8]
   89fb8:	2100      	movs	r1, #0
   89fba:	7019      	strb	r1, [r3, #0]
   89fbc:	b01c      	add	sp, #112	; 0x70
   89fbe:	e8bd 4030 	ldmia.w	sp!, {r4, r5, lr}
   89fc2:	b001      	add	sp, #4
   89fc4:	4770      	bx	lr

00089fc6 <snprintf>:
   89fc6:	b40c      	push	{r2, r3}
   89fc8:	b530      	push	{r4, r5, lr}
   89fca:	4b17      	ldr	r3, [pc, #92]	; (8a028 <snprintf+0x62>)
   89fcc:	1e0c      	subs	r4, r1, #0
   89fce:	b09d      	sub	sp, #116	; 0x74
   89fd0:	681d      	ldr	r5, [r3, #0]
   89fd2:	da04      	bge.n	89fde <snprintf+0x18>
   89fd4:	208b      	movs	r0, #139	; 0x8b
   89fd6:	6028      	str	r0, [r5, #0]
   89fd8:	f04f 30ff 	mov.w	r0, #4294967295
   89fdc:	e01e      	b.n	8a01c <snprintf+0x56>
   89fde:	f44f 7102 	mov.w	r1, #520	; 0x208
   89fe2:	f8ad 1014 	strh.w	r1, [sp, #20]
   89fe6:	9002      	str	r0, [sp, #8]
   89fe8:	9006      	str	r0, [sp, #24]
   89fea:	d001      	beq.n	89ff0 <snprintf+0x2a>
   89fec:	1e60      	subs	r0, r4, #1
   89fee:	e000      	b.n	89ff2 <snprintf+0x2c>
   89ff0:	4620      	mov	r0, r4
   89ff2:	f64f 72ff 	movw	r2, #65535	; 0xffff
   89ff6:	9004      	str	r0, [sp, #16]
   89ff8:	9007      	str	r0, [sp, #28]
   89ffa:	f8ad 2016 	strh.w	r2, [sp, #22]
   89ffe:	ab21      	add	r3, sp, #132	; 0x84
   8a000:	9a20      	ldr	r2, [sp, #128]	; 0x80
   8a002:	4628      	mov	r0, r5
   8a004:	a902      	add	r1, sp, #8
   8a006:	9301      	str	r3, [sp, #4]
   8a008:	f000 f8f2 	bl	8a1f0 <_svfprintf_r>
   8a00c:	1c42      	adds	r2, r0, #1
   8a00e:	da01      	bge.n	8a014 <snprintf+0x4e>
   8a010:	238b      	movs	r3, #139	; 0x8b
   8a012:	602b      	str	r3, [r5, #0]
   8a014:	b114      	cbz	r4, 8a01c <snprintf+0x56>
   8a016:	9a02      	ldr	r2, [sp, #8]
   8a018:	2100      	movs	r1, #0
   8a01a:	7011      	strb	r1, [r2, #0]
   8a01c:	b01d      	add	sp, #116	; 0x74
   8a01e:	e8bd 4030 	ldmia.w	sp!, {r4, r5, lr}
   8a022:	b002      	add	sp, #8
   8a024:	4770      	bx	lr
   8a026:	bf00      	nop
   8a028:	200702a8 	.word	0x200702a8

0008a02c <strlen>:
   8a02c:	4603      	mov	r3, r0
   8a02e:	f813 2b01 	ldrb.w	r2, [r3], #1
   8a032:	2a00      	cmp	r2, #0
   8a034:	d1fb      	bne.n	8a02e <strlen+0x2>
   8a036:	1a18      	subs	r0, r3, r0
   8a038:	3801      	subs	r0, #1
   8a03a:	4770      	bx	lr

0008a03c <strncasecmp>:
   8a03c:	4b0f      	ldr	r3, [pc, #60]	; (8a07c <strncasecmp+0x40>)
   8a03e:	b5f0      	push	{r4, r5, r6, r7, lr}
   8a040:	681e      	ldr	r6, [r3, #0]
   8a042:	2300      	movs	r3, #0
   8a044:	4293      	cmp	r3, r2
   8a046:	d015      	beq.n	8a074 <strncasecmp+0x38>
   8a048:	5cc5      	ldrb	r5, [r0, r3]
   8a04a:	1974      	adds	r4, r6, r5
   8a04c:	7867      	ldrb	r7, [r4, #1]
   8a04e:	f007 0403 	and.w	r4, r7, #3
   8a052:	2c01      	cmp	r4, #1
   8a054:	5ccc      	ldrb	r4, [r1, r3]
   8a056:	bf08      	it	eq
   8a058:	3520      	addeq	r5, #32
   8a05a:	1937      	adds	r7, r6, r4
   8a05c:	787f      	ldrb	r7, [r7, #1]
   8a05e:	f007 0703 	and.w	r7, r7, #3
   8a062:	2f01      	cmp	r7, #1
   8a064:	bf08      	it	eq
   8a066:	3420      	addeq	r4, #32
   8a068:	1b2d      	subs	r5, r5, r4
   8a06a:	d104      	bne.n	8a076 <strncasecmp+0x3a>
   8a06c:	3301      	adds	r3, #1
   8a06e:	2c00      	cmp	r4, #0
   8a070:	d1e8      	bne.n	8a044 <strncasecmp+0x8>
   8a072:	e000      	b.n	8a076 <strncasecmp+0x3a>
   8a074:	2500      	movs	r5, #0
   8a076:	4628      	mov	r0, r5
   8a078:	bdf0      	pop	{r4, r5, r6, r7, pc}
   8a07a:	bf00      	nop
   8a07c:	200702a0 	.word	0x200702a0

0008a080 <strncmp>:
   8a080:	b570      	push	{r4, r5, r6, lr}
   8a082:	b192      	cbz	r2, 8a0aa <strncmp+0x2a>
   8a084:	460b      	mov	r3, r1
   8a086:	4605      	mov	r5, r0
   8a088:	b91a      	cbnz	r2, 8a092 <strncmp+0x12>
   8a08a:	7828      	ldrb	r0, [r5, #0]
   8a08c:	7819      	ldrb	r1, [r3, #0]
   8a08e:	1a40      	subs	r0, r0, r1
   8a090:	bd70      	pop	{r4, r5, r6, pc}
   8a092:	f810 6b01 	ldrb.w	r6, [r0], #1
   8a096:	781c      	ldrb	r4, [r3, #0]
   8a098:	3101      	adds	r1, #1
   8a09a:	42b4      	cmp	r4, r6
   8a09c:	d1f5      	bne.n	8a08a <strncmp+0xa>
   8a09e:	2a01      	cmp	r2, #1
   8a0a0:	d0f3      	beq.n	8a08a <strncmp+0xa>
   8a0a2:	3a01      	subs	r2, #1
   8a0a4:	2c00      	cmp	r4, #0
   8a0a6:	d1ed      	bne.n	8a084 <strncmp+0x4>
   8a0a8:	e7ef      	b.n	8a08a <strncmp+0xa>
   8a0aa:	4610      	mov	r0, r2
   8a0ac:	bd70      	pop	{r4, r5, r6, pc}

0008a0ae <strnlen>:
   8a0ae:	b510      	push	{r4, lr}
   8a0b0:	4603      	mov	r3, r0
   8a0b2:	1841      	adds	r1, r0, r1
   8a0b4:	428b      	cmp	r3, r1
   8a0b6:	461a      	mov	r2, r3
   8a0b8:	d101      	bne.n	8a0be <strnlen+0x10>
   8a0ba:	1a10      	subs	r0, r2, r0
   8a0bc:	bd10      	pop	{r4, pc}
   8a0be:	7814      	ldrb	r4, [r2, #0]
   8a0c0:	3301      	adds	r3, #1
   8a0c2:	2c00      	cmp	r4, #0
   8a0c4:	d1f6      	bne.n	8a0b4 <strnlen+0x6>
   8a0c6:	e7f8      	b.n	8a0ba <strnlen+0xc>

0008a0c8 <_strtol_r>:
   8a0c8:	e92d 4ff7 	stmdb	sp!, {r0, r1, r2, r4, r5, r6, r7, r8, r9, sl, fp, lr}
   8a0cc:	9001      	str	r0, [sp, #4]
   8a0ce:	4840      	ldr	r0, [pc, #256]	; (8a1d0 <_strtol_r+0x108>)
   8a0d0:	f8d0 9000 	ldr.w	r9, [r0]
   8a0d4:	4608      	mov	r0, r1
   8a0d6:	4604      	mov	r4, r0
   8a0d8:	f814 5b01 	ldrb.w	r5, [r4], #1
   8a0dc:	eb09 0605 	add.w	r6, r9, r5
   8a0e0:	7877      	ldrb	r7, [r6, #1]
   8a0e2:	4620      	mov	r0, r4
   8a0e4:	f007 0608 	and.w	r6, r7, #8
   8a0e8:	b2f7      	uxtb	r7, r6
   8a0ea:	2f00      	cmp	r7, #0
   8a0ec:	d1f3      	bne.n	8a0d6 <_strtol_r+0xe>
   8a0ee:	2d2d      	cmp	r5, #45	; 0x2d
   8a0f0:	d103      	bne.n	8a0fa <_strtol_r+0x32>
   8a0f2:	f814 5b01 	ldrb.w	r5, [r4], #1
   8a0f6:	2701      	movs	r7, #1
   8a0f8:	e004      	b.n	8a104 <_strtol_r+0x3c>
   8a0fa:	2d2b      	cmp	r5, #43	; 0x2b
   8a0fc:	bf04      	itt	eq
   8a0fe:	4624      	moveq	r4, r4
   8a100:	f814 5b01 	ldrbeq.w	r5, [r4], #1
   8a104:	2b00      	cmp	r3, #0
   8a106:	d05c      	beq.n	8a1c2 <_strtol_r+0xfa>
   8a108:	2b10      	cmp	r3, #16
   8a10a:	d107      	bne.n	8a11c <_strtol_r+0x54>
   8a10c:	2d30      	cmp	r5, #48	; 0x30
   8a10e:	d105      	bne.n	8a11c <_strtol_r+0x54>
   8a110:	7825      	ldrb	r5, [r4, #0]
   8a112:	2d78      	cmp	r5, #120	; 0x78
   8a114:	d14e      	bne.n	8a1b4 <_strtol_r+0xec>
   8a116:	7865      	ldrb	r5, [r4, #1]
   8a118:	2310      	movs	r3, #16
   8a11a:	3402      	adds	r4, #2
   8a11c:	2f00      	cmp	r7, #0
   8a11e:	bf0c      	ite	eq
   8a120:	f06f 4000 	mvneq.w	r0, #2147483648	; 0x80000000
   8a124:	f04f 4000 	movne.w	r0, #2147483648	; 0x80000000
   8a128:	fbb0 faf3 	udiv	sl, r0, r3
   8a12c:	2600      	movs	r6, #0
   8a12e:	fb03 081a 	mls	r8, r3, sl, r0
   8a132:	4630      	mov	r0, r6
   8a134:	eb09 0c05 	add.w	ip, r9, r5
   8a138:	f89c c001 	ldrb.w	ip, [ip, #1]
   8a13c:	f00c 0b04 	and.w	fp, ip, #4
   8a140:	fa5f fb8b 	uxtb.w	fp, fp
   8a144:	f1bb 0f00 	cmp.w	fp, #0
   8a148:	d001      	beq.n	8a14e <_strtol_r+0x86>
   8a14a:	3d30      	subs	r5, #48	; 0x30
   8a14c:	e00b      	b.n	8a166 <_strtol_r+0x9e>
   8a14e:	f01c 0c03 	ands.w	ip, ip, #3
   8a152:	d01b      	beq.n	8a18c <_strtol_r+0xc4>
   8a154:	f1bc 0f01 	cmp.w	ip, #1
   8a158:	bf14      	ite	ne
   8a15a:	f04f 0c57 	movne.w	ip, #87	; 0x57
   8a15e:	f04f 0c37 	moveq.w	ip, #55	; 0x37
   8a162:	ebcc 0505 	rsb	r5, ip, r5
   8a166:	429d      	cmp	r5, r3
   8a168:	da10      	bge.n	8a18c <_strtol_r+0xc4>
   8a16a:	f1b6 3fff 	cmp.w	r6, #4294967295
   8a16e:	d00a      	beq.n	8a186 <_strtol_r+0xbe>
   8a170:	4550      	cmp	r0, sl
   8a172:	d806      	bhi.n	8a182 <_strtol_r+0xba>
   8a174:	d101      	bne.n	8a17a <_strtol_r+0xb2>
   8a176:	4545      	cmp	r5, r8
   8a178:	dc03      	bgt.n	8a182 <_strtol_r+0xba>
   8a17a:	fb03 5000 	mla	r0, r3, r0, r5
   8a17e:	2601      	movs	r6, #1
   8a180:	e001      	b.n	8a186 <_strtol_r+0xbe>
   8a182:	f04f 36ff 	mov.w	r6, #4294967295
   8a186:	f814 5b01 	ldrb.w	r5, [r4], #1
   8a18a:	e7d3      	b.n	8a134 <_strtol_r+0x6c>
   8a18c:	1c73      	adds	r3, r6, #1
   8a18e:	d10a      	bne.n	8a1a6 <_strtol_r+0xde>
   8a190:	2f00      	cmp	r7, #0
   8a192:	9901      	ldr	r1, [sp, #4]
   8a194:	bf0c      	ite	eq
   8a196:	f06f 4000 	mvneq.w	r0, #2147483648	; 0x80000000
   8a19a:	f04f 4000 	movne.w	r0, #2147483648	; 0x80000000
   8a19e:	2322      	movs	r3, #34	; 0x22
   8a1a0:	600b      	str	r3, [r1, #0]
   8a1a2:	b922      	cbnz	r2, 8a1ae <_strtol_r+0xe6>
   8a1a4:	e011      	b.n	8a1ca <_strtol_r+0x102>
   8a1a6:	b107      	cbz	r7, 8a1aa <_strtol_r+0xe2>
   8a1a8:	4240      	negs	r0, r0
   8a1aa:	b172      	cbz	r2, 8a1ca <_strtol_r+0x102>
   8a1ac:	b106      	cbz	r6, 8a1b0 <_strtol_r+0xe8>
   8a1ae:	1e61      	subs	r1, r4, #1
   8a1b0:	6011      	str	r1, [r2, #0]
   8a1b2:	e00a      	b.n	8a1ca <_strtol_r+0x102>
   8a1b4:	2d58      	cmp	r5, #88	; 0x58
   8a1b6:	d0ae      	beq.n	8a116 <_strtol_r+0x4e>
   8a1b8:	2530      	movs	r5, #48	; 0x30
   8a1ba:	2b00      	cmp	r3, #0
   8a1bc:	d1ae      	bne.n	8a11c <_strtol_r+0x54>
   8a1be:	2308      	movs	r3, #8
   8a1c0:	e7ac      	b.n	8a11c <_strtol_r+0x54>
   8a1c2:	2d30      	cmp	r5, #48	; 0x30
   8a1c4:	d0a4      	beq.n	8a110 <_strtol_r+0x48>
   8a1c6:	230a      	movs	r3, #10
   8a1c8:	e7a8      	b.n	8a11c <_strtol_r+0x54>
   8a1ca:	e8bd 8ffe 	ldmia.w	sp!, {r1, r2, r3, r4, r5, r6, r7, r8, r9, sl, fp, pc}
   8a1ce:	bf00      	nop
   8a1d0:	200702a0 	.word	0x200702a0

0008a1d4 <strtol>:
   8a1d4:	b530      	push	{r4, r5, lr}
   8a1d6:	4613      	mov	r3, r2
   8a1d8:	4a04      	ldr	r2, [pc, #16]	; (8a1ec <strtol+0x18>)
   8a1da:	4605      	mov	r5, r0
   8a1dc:	460c      	mov	r4, r1
   8a1de:	6810      	ldr	r0, [r2, #0]
   8a1e0:	4629      	mov	r1, r5
   8a1e2:	4622      	mov	r2, r4
   8a1e4:	e8bd 4030 	ldmia.w	sp!, {r4, r5, lr}
   8a1e8:	f7ff bf6e 	b.w	8a0c8 <_strtol_r>
   8a1ec:	200702a8 	.word	0x200702a8

0008a1f0 <_svfprintf_r>:
   8a1f0:	e92d 4ff0 	stmdb	sp!, {r4, r5, r6, r7, r8, r9, sl, fp, lr}
   8a1f4:	461e      	mov	r6, r3
   8a1f6:	898b      	ldrh	r3, [r1, #12]
   8a1f8:	4689      	mov	r9, r1
   8a1fa:	f003 0180 	and.w	r1, r3, #128	; 0x80
   8a1fe:	4614      	mov	r4, r2
   8a200:	b20a      	sxth	r2, r1
   8a202:	b0a9      	sub	sp, #164	; 0xa4
   8a204:	4683      	mov	fp, r0
   8a206:	b19a      	cbz	r2, 8a230 <_svfprintf_r+0x40>
   8a208:	f8d9 3010 	ldr.w	r3, [r9, #16]
   8a20c:	b983      	cbnz	r3, 8a230 <_svfprintf_r+0x40>
   8a20e:	2140      	movs	r1, #64	; 0x40
   8a210:	f000 fcfe 	bl	8ac10 <_malloc_r>
   8a214:	f8c9 0000 	str.w	r0, [r9]
   8a218:	f8c9 0010 	str.w	r0, [r9, #16]
   8a21c:	b928      	cbnz	r0, 8a22a <_svfprintf_r+0x3a>
   8a21e:	220c      	movs	r2, #12
   8a220:	f8cb 2000 	str.w	r2, [fp]
   8a224:	f04f 30ff 	mov.w	r0, #4294967295
   8a228:	e3da      	b.n	8a9e0 <_svfprintf_r+0x7f0>
   8a22a:	2040      	movs	r0, #64	; 0x40
   8a22c:	f8c9 0014 	str.w	r0, [r9, #20]
   8a230:	2100      	movs	r1, #0
   8a232:	ad18      	add	r5, sp, #96	; 0x60
   8a234:	950b      	str	r5, [sp, #44]	; 0x2c
   8a236:	910d      	str	r1, [sp, #52]	; 0x34
   8a238:	910c      	str	r1, [sp, #48]	; 0x30
   8a23a:	9401      	str	r4, [sp, #4]
   8a23c:	9105      	str	r1, [sp, #20]
   8a23e:	9104      	str	r1, [sp, #16]
   8a240:	46a8      	mov	r8, r5
   8a242:	9b01      	ldr	r3, [sp, #4]
   8a244:	461c      	mov	r4, r3
   8a246:	f813 2b01 	ldrb.w	r2, [r3], #1
   8a24a:	b91a      	cbnz	r2, 8a254 <_svfprintf_r+0x64>
   8a24c:	9801      	ldr	r0, [sp, #4]
   8a24e:	1a25      	subs	r5, r4, r0
   8a250:	d103      	bne.n	8a25a <_svfprintf_r+0x6a>
   8a252:	e01d      	b.n	8a290 <_svfprintf_r+0xa0>
   8a254:	2a25      	cmp	r2, #37	; 0x25
   8a256:	d1f5      	bne.n	8a244 <_svfprintf_r+0x54>
   8a258:	e7f8      	b.n	8a24c <_svfprintf_r+0x5c>
   8a25a:	9a01      	ldr	r2, [sp, #4]
   8a25c:	990d      	ldr	r1, [sp, #52]	; 0x34
   8a25e:	e888 0024 	stmia.w	r8, {r2, r5}
   8a262:	9a0c      	ldr	r2, [sp, #48]	; 0x30
   8a264:	194b      	adds	r3, r1, r5
   8a266:	1c50      	adds	r0, r2, #1
   8a268:	2807      	cmp	r0, #7
   8a26a:	930d      	str	r3, [sp, #52]	; 0x34
   8a26c:	900c      	str	r0, [sp, #48]	; 0x30
   8a26e:	dc02      	bgt.n	8a276 <_svfprintf_r+0x86>
   8a270:	f108 0808 	add.w	r8, r8, #8
   8a274:	e009      	b.n	8a28a <_svfprintf_r+0x9a>
   8a276:	4658      	mov	r0, fp
   8a278:	4649      	mov	r1, r9
   8a27a:	aa0b      	add	r2, sp, #44	; 0x2c
   8a27c:	f001 f858 	bl	8b330 <__ssprint_r>
   8a280:	2800      	cmp	r0, #0
   8a282:	f040 83a2 	bne.w	8a9ca <_svfprintf_r+0x7da>
   8a286:	f10d 0860 	add.w	r8, sp, #96	; 0x60
   8a28a:	9904      	ldr	r1, [sp, #16]
   8a28c:	194b      	adds	r3, r1, r5
   8a28e:	9304      	str	r3, [sp, #16]
   8a290:	7822      	ldrb	r2, [r4, #0]
   8a292:	2a00      	cmp	r2, #0
   8a294:	f000 8392 	beq.w	8a9bc <_svfprintf_r+0x7cc>
   8a298:	2200      	movs	r2, #0
   8a29a:	3401      	adds	r4, #1
   8a29c:	9401      	str	r4, [sp, #4]
   8a29e:	f88d 2027 	strb.w	r2, [sp, #39]	; 0x27
   8a2a2:	f04f 3cff 	mov.w	ip, #4294967295
   8a2a6:	9203      	str	r2, [sp, #12]
   8a2a8:	4617      	mov	r7, r2
   8a2aa:	9801      	ldr	r0, [sp, #4]
   8a2ac:	f810 3b01 	ldrb.w	r3, [r0], #1
   8a2b0:	9001      	str	r0, [sp, #4]
   8a2b2:	2b63      	cmp	r3, #99	; 0x63
   8a2b4:	f000 80b3 	beq.w	8a41e <_svfprintf_r+0x22e>
   8a2b8:	dc33      	bgt.n	8a322 <_svfprintf_r+0x132>
   8a2ba:	2b39      	cmp	r3, #57	; 0x39
   8a2bc:	dc1a      	bgt.n	8a2f4 <_svfprintf_r+0x104>
   8a2be:	2b31      	cmp	r3, #49	; 0x31
   8a2c0:	f280 8091 	bge.w	8a3e6 <_svfprintf_r+0x1f6>
   8a2c4:	2b2b      	cmp	r3, #43	; 0x2b
   8a2c6:	d101      	bne.n	8a2cc <_svfprintf_r+0xdc>
   8a2c8:	461a      	mov	r2, r3
   8a2ca:	e7ee      	b.n	8a2aa <_svfprintf_r+0xba>
   8a2cc:	dc0a      	bgt.n	8a2e4 <_svfprintf_r+0xf4>
   8a2ce:	2b23      	cmp	r3, #35	; 0x23
   8a2d0:	d055      	beq.n	8a37e <_svfprintf_r+0x18e>
   8a2d2:	2b2a      	cmp	r3, #42	; 0x2a
   8a2d4:	d056      	beq.n	8a384 <_svfprintf_r+0x194>
   8a2d6:	2b20      	cmp	r3, #32
   8a2d8:	f040 81f5 	bne.w	8a6c6 <_svfprintf_r+0x4d6>
   8a2dc:	2a00      	cmp	r2, #0
   8a2de:	bf08      	it	eq
   8a2e0:	2220      	moveq	r2, #32
   8a2e2:	e7e2      	b.n	8a2aa <_svfprintf_r+0xba>
   8a2e4:	2b2e      	cmp	r3, #46	; 0x2e
   8a2e6:	d058      	beq.n	8a39a <_svfprintf_r+0x1aa>
   8a2e8:	2b30      	cmp	r3, #48	; 0x30
   8a2ea:	d079      	beq.n	8a3e0 <_svfprintf_r+0x1f0>
   8a2ec:	2b2d      	cmp	r3, #45	; 0x2d
   8a2ee:	f040 81ea 	bne.w	8a6c6 <_svfprintf_r+0x4d6>
   8a2f2:	e04f      	b.n	8a394 <_svfprintf_r+0x1a4>
   8a2f4:	2b4f      	cmp	r3, #79	; 0x4f
   8a2f6:	f000 80de 	beq.w	8a4b6 <_svfprintf_r+0x2c6>
   8a2fa:	dc07      	bgt.n	8a30c <_svfprintf_r+0x11c>
   8a2fc:	2b44      	cmp	r3, #68	; 0x44
   8a2fe:	f040 81e2 	bne.w	8a6c6 <_svfprintf_r+0x4d6>
   8a302:	f88d 2027 	strb.w	r2, [sp, #39]	; 0x27
   8a306:	f047 0710 	orr.w	r7, r7, #16
   8a30a:	e090      	b.n	8a42e <_svfprintf_r+0x23e>
   8a30c:	2b55      	cmp	r3, #85	; 0x55
   8a30e:	f000 811f 	beq.w	8a550 <_svfprintf_r+0x360>
   8a312:	2b58      	cmp	r3, #88	; 0x58
   8a314:	f040 81d7 	bne.w	8a6c6 <_svfprintf_r+0x4d6>
   8a318:	4dae      	ldr	r5, [pc, #696]	; (8a5d4 <_svfprintf_r+0x3e4>)
   8a31a:	f88d 2027 	strb.w	r2, [sp, #39]	; 0x27
   8a31e:	9505      	str	r5, [sp, #20]
   8a320:	e130      	b.n	8a584 <_svfprintf_r+0x394>
   8a322:	2b6f      	cmp	r3, #111	; 0x6f
   8a324:	f000 80c9 	beq.w	8a4ba <_svfprintf_r+0x2ca>
   8a328:	dc10      	bgt.n	8a34c <_svfprintf_r+0x15c>
   8a32a:	2b69      	cmp	r3, #105	; 0x69
   8a32c:	d024      	beq.n	8a378 <_svfprintf_r+0x188>
   8a32e:	dc07      	bgt.n	8a340 <_svfprintf_r+0x150>
   8a330:	2b64      	cmp	r3, #100	; 0x64
   8a332:	d021      	beq.n	8a378 <_svfprintf_r+0x188>
   8a334:	2b68      	cmp	r3, #104	; 0x68
   8a336:	f040 81c6 	bne.w	8a6c6 <_svfprintf_r+0x4d6>
   8a33a:	f047 0740 	orr.w	r7, r7, #64	; 0x40
   8a33e:	e7b4      	b.n	8a2aa <_svfprintf_r+0xba>
   8a340:	2b6c      	cmp	r3, #108	; 0x6c
   8a342:	d05f      	beq.n	8a404 <_svfprintf_r+0x214>
   8a344:	2b6e      	cmp	r3, #110	; 0x6e
   8a346:	f040 81be 	bne.w	8a6c6 <_svfprintf_r+0x4d6>
   8a34a:	e096      	b.n	8a47a <_svfprintf_r+0x28a>
   8a34c:	2b73      	cmp	r3, #115	; 0x73
   8a34e:	f000 80df 	beq.w	8a510 <_svfprintf_r+0x320>
   8a352:	dc06      	bgt.n	8a362 <_svfprintf_r+0x172>
   8a354:	2b70      	cmp	r3, #112	; 0x70
   8a356:	f000 80cd 	beq.w	8a4f4 <_svfprintf_r+0x304>
   8a35a:	2b71      	cmp	r3, #113	; 0x71
   8a35c:	f040 81b3 	bne.w	8a6c6 <_svfprintf_r+0x4d6>
   8a360:	e05a      	b.n	8a418 <_svfprintf_r+0x228>
   8a362:	2b75      	cmp	r3, #117	; 0x75
   8a364:	f000 80f6 	beq.w	8a554 <_svfprintf_r+0x364>
   8a368:	2b78      	cmp	r3, #120	; 0x78
   8a36a:	f040 81ac 	bne.w	8a6c6 <_svfprintf_r+0x4d6>
   8a36e:	4d9a      	ldr	r5, [pc, #616]	; (8a5d8 <_svfprintf_r+0x3e8>)
   8a370:	f88d 2027 	strb.w	r2, [sp, #39]	; 0x27
   8a374:	9505      	str	r5, [sp, #20]
   8a376:	e105      	b.n	8a584 <_svfprintf_r+0x394>
   8a378:	f88d 2027 	strb.w	r2, [sp, #39]	; 0x27
   8a37c:	e057      	b.n	8a42e <_svfprintf_r+0x23e>
   8a37e:	f047 0701 	orr.w	r7, r7, #1
   8a382:	e792      	b.n	8a2aa <_svfprintf_r+0xba>
   8a384:	1d33      	adds	r3, r6, #4
   8a386:	6836      	ldr	r6, [r6, #0]
   8a388:	2e00      	cmp	r6, #0
   8a38a:	9603      	str	r6, [sp, #12]
   8a38c:	da15      	bge.n	8a3ba <_svfprintf_r+0x1ca>
   8a38e:	4270      	negs	r0, r6
   8a390:	9003      	str	r0, [sp, #12]
   8a392:	461e      	mov	r6, r3
   8a394:	f047 0704 	orr.w	r7, r7, #4
   8a398:	e787      	b.n	8a2aa <_svfprintf_r+0xba>
   8a39a:	9901      	ldr	r1, [sp, #4]
   8a39c:	f811 3b01 	ldrb.w	r3, [r1], #1
   8a3a0:	2b2a      	cmp	r3, #42	; 0x2a
   8a3a2:	9101      	str	r1, [sp, #4]
   8a3a4:	d10b      	bne.n	8a3be <_svfprintf_r+0x1ce>
   8a3a6:	f8d6 c000 	ldr.w	ip, [r6]
   8a3aa:	1d33      	adds	r3, r6, #4
   8a3ac:	f1bc 0f00 	cmp.w	ip, #0
   8a3b0:	da03      	bge.n	8a3ba <_svfprintf_r+0x1ca>
   8a3b2:	461e      	mov	r6, r3
   8a3b4:	f04f 3cff 	mov.w	ip, #4294967295
   8a3b8:	e777      	b.n	8a2aa <_svfprintf_r+0xba>
   8a3ba:	461e      	mov	r6, r3
   8a3bc:	e775      	b.n	8a2aa <_svfprintf_r+0xba>
   8a3be:	f04f 0c00 	mov.w	ip, #0
   8a3c2:	f1a3 0030 	sub.w	r0, r3, #48	; 0x30
   8a3c6:	2809      	cmp	r0, #9
   8a3c8:	d807      	bhi.n	8a3da <_svfprintf_r+0x1ea>
   8a3ca:	9901      	ldr	r1, [sp, #4]
   8a3cc:	230a      	movs	r3, #10
   8a3ce:	fb03 0c0c 	mla	ip, r3, ip, r0
   8a3d2:	f811 3b01 	ldrb.w	r3, [r1], #1
   8a3d6:	9101      	str	r1, [sp, #4]
   8a3d8:	e7f3      	b.n	8a3c2 <_svfprintf_r+0x1d2>
   8a3da:	ea4c 7cec 	orr.w	ip, ip, ip, asr #31
   8a3de:	e768      	b.n	8a2b2 <_svfprintf_r+0xc2>
   8a3e0:	f047 0780 	orr.w	r7, r7, #128	; 0x80
   8a3e4:	e761      	b.n	8a2aa <_svfprintf_r+0xba>
   8a3e6:	9801      	ldr	r0, [sp, #4]
   8a3e8:	2100      	movs	r1, #0
   8a3ea:	3b30      	subs	r3, #48	; 0x30
   8a3ec:	240a      	movs	r4, #10
   8a3ee:	fb04 3101 	mla	r1, r4, r1, r3
   8a3f2:	f810 3b01 	ldrb.w	r3, [r0], #1
   8a3f6:	f1a3 0430 	sub.w	r4, r3, #48	; 0x30
   8a3fa:	2c09      	cmp	r4, #9
   8a3fc:	9001      	str	r0, [sp, #4]
   8a3fe:	d9f4      	bls.n	8a3ea <_svfprintf_r+0x1fa>
   8a400:	9103      	str	r1, [sp, #12]
   8a402:	e756      	b.n	8a2b2 <_svfprintf_r+0xc2>
   8a404:	9901      	ldr	r1, [sp, #4]
   8a406:	780b      	ldrb	r3, [r1, #0]
   8a408:	2b6c      	cmp	r3, #108	; 0x6c
   8a40a:	d102      	bne.n	8a412 <_svfprintf_r+0x222>
   8a40c:	1c48      	adds	r0, r1, #1
   8a40e:	9001      	str	r0, [sp, #4]
   8a410:	e002      	b.n	8a418 <_svfprintf_r+0x228>
   8a412:	f047 0710 	orr.w	r7, r7, #16
   8a416:	e748      	b.n	8a2aa <_svfprintf_r+0xba>
   8a418:	f047 0720 	orr.w	r7, r7, #32
   8a41c:	e745      	b.n	8a2aa <_svfprintf_r+0xba>
   8a41e:	6832      	ldr	r2, [r6, #0]
   8a420:	2500      	movs	r5, #0
   8a422:	f88d 2038 	strb.w	r2, [sp, #56]	; 0x38
   8a426:	f88d 5027 	strb.w	r5, [sp, #39]	; 0x27
   8a42a:	3604      	adds	r6, #4
   8a42c:	e155      	b.n	8a6da <_svfprintf_r+0x4ea>
   8a42e:	06ba      	lsls	r2, r7, #26
   8a430:	d507      	bpl.n	8a442 <_svfprintf_r+0x252>
   8a432:	3607      	adds	r6, #7
   8a434:	f026 0507 	bic.w	r5, r6, #7
   8a438:	f105 0608 	add.w	r6, r5, #8
   8a43c:	e9d5 4500 	ldrd	r4, r5, [r5]
   8a440:	e00f      	b.n	8a462 <_svfprintf_r+0x272>
   8a442:	f017 0f10 	tst.w	r7, #16
   8a446:	f106 0104 	add.w	r1, r6, #4
   8a44a:	d001      	beq.n	8a450 <_svfprintf_r+0x260>
   8a44c:	6832      	ldr	r2, [r6, #0]
   8a44e:	e005      	b.n	8a45c <_svfprintf_r+0x26c>
   8a450:	f017 0f40 	tst.w	r7, #64	; 0x40
   8a454:	6832      	ldr	r2, [r6, #0]
   8a456:	d001      	beq.n	8a45c <_svfprintf_r+0x26c>
   8a458:	b214      	sxth	r4, r2
   8a45a:	e000      	b.n	8a45e <_svfprintf_r+0x26e>
   8a45c:	4614      	mov	r4, r2
   8a45e:	17e5      	asrs	r5, r4, #31
   8a460:	460e      	mov	r6, r1
   8a462:	2c00      	cmp	r4, #0
   8a464:	f175 0200 	sbcs.w	r2, r5, #0
   8a468:	f280 80b8 	bge.w	8a5dc <_svfprintf_r+0x3ec>
   8a46c:	232d      	movs	r3, #45	; 0x2d
   8a46e:	4264      	negs	r4, r4
   8a470:	eb65 0545 	sbc.w	r5, r5, r5, lsl #1
   8a474:	f88d 3027 	strb.w	r3, [sp, #39]	; 0x27
   8a478:	e0b0      	b.n	8a5dc <_svfprintf_r+0x3ec>
   8a47a:	f017 0f20 	tst.w	r7, #32
   8a47e:	f88d 2027 	strb.w	r2, [sp, #39]	; 0x27
   8a482:	f106 0204 	add.w	r2, r6, #4
   8a486:	d005      	beq.n	8a494 <_svfprintf_r+0x2a4>
   8a488:	9c04      	ldr	r4, [sp, #16]
   8a48a:	6835      	ldr	r5, [r6, #0]
   8a48c:	17e0      	asrs	r0, r4, #31
   8a48e:	602c      	str	r4, [r5, #0]
   8a490:	6068      	str	r0, [r5, #4]
   8a492:	e004      	b.n	8a49e <_svfprintf_r+0x2ae>
   8a494:	06fb      	lsls	r3, r7, #27
   8a496:	d504      	bpl.n	8a4a2 <_svfprintf_r+0x2b2>
   8a498:	6833      	ldr	r3, [r6, #0]
   8a49a:	9904      	ldr	r1, [sp, #16]
   8a49c:	6019      	str	r1, [r3, #0]
   8a49e:	4616      	mov	r6, r2
   8a4a0:	e6cf      	b.n	8a242 <_svfprintf_r+0x52>
   8a4a2:	6830      	ldr	r0, [r6, #0]
   8a4a4:	9c04      	ldr	r4, [sp, #16]
   8a4a6:	f017 0f40 	tst.w	r7, #64	; 0x40
   8a4aa:	f106 0604 	add.w	r6, r6, #4
   8a4ae:	bf14      	ite	ne
   8a4b0:	8004      	strhne	r4, [r0, #0]
   8a4b2:	6004      	streq	r4, [r0, #0]
   8a4b4:	e6c5      	b.n	8a242 <_svfprintf_r+0x52>
   8a4b6:	f047 0710 	orr.w	r7, r7, #16
   8a4ba:	f017 0020 	ands.w	r0, r7, #32
   8a4be:	d008      	beq.n	8a4d2 <_svfprintf_r+0x2e2>
   8a4c0:	1df3      	adds	r3, r6, #7
   8a4c2:	f023 0507 	bic.w	r5, r3, #7
   8a4c6:	f105 0608 	add.w	r6, r5, #8
   8a4ca:	e9d5 4500 	ldrd	r4, r5, [r5]
   8a4ce:	2000      	movs	r0, #0
   8a4d0:	e07c      	b.n	8a5cc <_svfprintf_r+0x3dc>
   8a4d2:	f017 0110 	ands.w	r1, r7, #16
   8a4d6:	f106 0204 	add.w	r2, r6, #4
   8a4da:	d106      	bne.n	8a4ea <_svfprintf_r+0x2fa>
   8a4dc:	f017 0040 	ands.w	r0, r7, #64	; 0x40
   8a4e0:	d003      	beq.n	8a4ea <_svfprintf_r+0x2fa>
   8a4e2:	8834      	ldrh	r4, [r6, #0]
   8a4e4:	2500      	movs	r5, #0
   8a4e6:	4616      	mov	r6, r2
   8a4e8:	e7f1      	b.n	8a4ce <_svfprintf_r+0x2de>
   8a4ea:	6836      	ldr	r6, [r6, #0]
   8a4ec:	2500      	movs	r5, #0
   8a4ee:	4634      	mov	r4, r6
   8a4f0:	4616      	mov	r6, r2
   8a4f2:	e06b      	b.n	8a5cc <_svfprintf_r+0x3dc>
   8a4f4:	4b38      	ldr	r3, [pc, #224]	; (8a5d8 <_svfprintf_r+0x3e8>)
   8a4f6:	2130      	movs	r1, #48	; 0x30
   8a4f8:	2278      	movs	r2, #120	; 0x78
   8a4fa:	6834      	ldr	r4, [r6, #0]
   8a4fc:	2500      	movs	r5, #0
   8a4fe:	f047 0702 	orr.w	r7, r7, #2
   8a502:	f88d 1028 	strb.w	r1, [sp, #40]	; 0x28
   8a506:	f88d 2029 	strb.w	r2, [sp, #41]	; 0x29
   8a50a:	3604      	adds	r6, #4
   8a50c:	9305      	str	r3, [sp, #20]
   8a50e:	e05c      	b.n	8a5ca <_svfprintf_r+0x3da>
   8a510:	4631      	mov	r1, r6
   8a512:	2500      	movs	r5, #0
   8a514:	f8d1 a000 	ldr.w	sl, [r1]
   8a518:	3604      	adds	r6, #4
   8a51a:	45ac      	cmp	ip, r5
   8a51c:	f88d 5027 	strb.w	r5, [sp, #39]	; 0x27
   8a520:	4650      	mov	r0, sl
   8a522:	db11      	blt.n	8a548 <_svfprintf_r+0x358>
   8a524:	4662      	mov	r2, ip
   8a526:	4629      	mov	r1, r5
   8a528:	f8cd c000 	str.w	ip, [sp]
   8a52c:	f000 fd72 	bl	8b014 <memchr>
   8a530:	f8dd c000 	ldr.w	ip, [sp]
   8a534:	2800      	cmp	r0, #0
   8a536:	f000 80d4 	beq.w	8a6e2 <_svfprintf_r+0x4f2>
   8a53a:	ebca 0400 	rsb	r4, sl, r0
   8a53e:	4564      	cmp	r4, ip
   8a540:	f340 80d1 	ble.w	8a6e6 <_svfprintf_r+0x4f6>
   8a544:	4664      	mov	r4, ip
   8a546:	e0ce      	b.n	8a6e6 <_svfprintf_r+0x4f6>
   8a548:	f7ff fd70 	bl	8a02c <strlen>
   8a54c:	4604      	mov	r4, r0
   8a54e:	e0ca      	b.n	8a6e6 <_svfprintf_r+0x4f6>
   8a550:	f047 0710 	orr.w	r7, r7, #16
   8a554:	06bd      	lsls	r5, r7, #26
   8a556:	d506      	bpl.n	8a566 <_svfprintf_r+0x376>
   8a558:	1df0      	adds	r0, r6, #7
   8a55a:	f020 0407 	bic.w	r4, r0, #7
   8a55e:	f104 0608 	add.w	r6, r4, #8
   8a562:	cc30      	ldmia	r4, {r4, r5}
   8a564:	e00c      	b.n	8a580 <_svfprintf_r+0x390>
   8a566:	f017 0f10 	tst.w	r7, #16
   8a56a:	f106 0304 	add.w	r3, r6, #4
   8a56e:	d103      	bne.n	8a578 <_svfprintf_r+0x388>
   8a570:	067c      	lsls	r4, r7, #25
   8a572:	d501      	bpl.n	8a578 <_svfprintf_r+0x388>
   8a574:	8834      	ldrh	r4, [r6, #0]
   8a576:	e001      	b.n	8a57c <_svfprintf_r+0x38c>
   8a578:	6835      	ldr	r5, [r6, #0]
   8a57a:	462c      	mov	r4, r5
   8a57c:	2500      	movs	r5, #0
   8a57e:	461e      	mov	r6, r3
   8a580:	2001      	movs	r0, #1
   8a582:	e023      	b.n	8a5cc <_svfprintf_r+0x3dc>
   8a584:	06b8      	lsls	r0, r7, #26
   8a586:	d507      	bpl.n	8a598 <_svfprintf_r+0x3a8>
   8a588:	1df4      	adds	r4, r6, #7
   8a58a:	f024 0107 	bic.w	r1, r4, #7
   8a58e:	f101 0608 	add.w	r6, r1, #8
   8a592:	e9d1 4500 	ldrd	r4, r5, [r1]
   8a596:	e00c      	b.n	8a5b2 <_svfprintf_r+0x3c2>
   8a598:	f017 0f10 	tst.w	r7, #16
   8a59c:	f106 0004 	add.w	r0, r6, #4
   8a5a0:	d103      	bne.n	8a5aa <_svfprintf_r+0x3ba>
   8a5a2:	0679      	lsls	r1, r7, #25
   8a5a4:	d501      	bpl.n	8a5aa <_svfprintf_r+0x3ba>
   8a5a6:	8834      	ldrh	r4, [r6, #0]
   8a5a8:	e001      	b.n	8a5ae <_svfprintf_r+0x3be>
   8a5aa:	6836      	ldr	r6, [r6, #0]
   8a5ac:	4634      	mov	r4, r6
   8a5ae:	2500      	movs	r5, #0
   8a5b0:	4606      	mov	r6, r0
   8a5b2:	07fa      	lsls	r2, r7, #31
   8a5b4:	d509      	bpl.n	8a5ca <_svfprintf_r+0x3da>
   8a5b6:	ea54 0205 	orrs.w	r2, r4, r5
   8a5ba:	d006      	beq.n	8a5ca <_svfprintf_r+0x3da>
   8a5bc:	2230      	movs	r2, #48	; 0x30
   8a5be:	f88d 2028 	strb.w	r2, [sp, #40]	; 0x28
   8a5c2:	f88d 3029 	strb.w	r3, [sp, #41]	; 0x29
   8a5c6:	f047 0702 	orr.w	r7, r7, #2
   8a5ca:	2002      	movs	r0, #2
   8a5cc:	2100      	movs	r1, #0
   8a5ce:	f88d 1027 	strb.w	r1, [sp, #39]	; 0x27
   8a5d2:	e004      	b.n	8a5de <_svfprintf_r+0x3ee>
   8a5d4:	0008cdfa 	.word	0x0008cdfa
   8a5d8:	0008ce0b 	.word	0x0008ce0b
   8a5dc:	2001      	movs	r0, #1
   8a5de:	f1bc 0f00 	cmp.w	ip, #0
   8a5e2:	bfa8      	it	ge
   8a5e4:	f027 0780 	bicge.w	r7, r7, #128	; 0x80
   8a5e8:	ea54 0105 	orrs.w	r1, r4, r5
   8a5ec:	d102      	bne.n	8a5f4 <_svfprintf_r+0x404>
   8a5ee:	f1bc 0f00 	cmp.w	ip, #0
   8a5f2:	d058      	beq.n	8a6a6 <_svfprintf_r+0x4b6>
   8a5f4:	2801      	cmp	r0, #1
   8a5f6:	d01d      	beq.n	8a634 <_svfprintf_r+0x444>
   8a5f8:	2802      	cmp	r0, #2
   8a5fa:	f10d 035f 	add.w	r3, sp, #95	; 0x5f
   8a5fe:	d041      	beq.n	8a684 <_svfprintf_r+0x494>
   8a600:	f004 0207 	and.w	r2, r4, #7
   8a604:	08e4      	lsrs	r4, r4, #3
   8a606:	ea44 7045 	orr.w	r0, r4, r5, lsl #29
   8a60a:	08e9      	lsrs	r1, r5, #3
   8a60c:	4604      	mov	r4, r0
   8a60e:	460d      	mov	r5, r1
   8a610:	3230      	adds	r2, #48	; 0x30
   8a612:	ea54 0105 	orrs.w	r1, r4, r5
   8a616:	469a      	mov	sl, r3
   8a618:	701a      	strb	r2, [r3, #0]
   8a61a:	f103 33ff 	add.w	r3, r3, #4294967295
   8a61e:	d1ef      	bne.n	8a600 <_svfprintf_r+0x410>
   8a620:	07f8      	lsls	r0, r7, #31
   8a622:	4655      	mov	r5, sl
   8a624:	d54a      	bpl.n	8a6bc <_svfprintf_r+0x4cc>
   8a626:	2a30      	cmp	r2, #48	; 0x30
   8a628:	d048      	beq.n	8a6bc <_svfprintf_r+0x4cc>
   8a62a:	2230      	movs	r2, #48	; 0x30
   8a62c:	469a      	mov	sl, r3
   8a62e:	f805 2c01 	strb.w	r2, [r5, #-1]
   8a632:	e043      	b.n	8a6bc <_svfprintf_r+0x4cc>
   8a634:	2d00      	cmp	r5, #0
   8a636:	bf08      	it	eq
   8a638:	2c0a      	cmpeq	r4, #10
   8a63a:	d203      	bcs.n	8a644 <_svfprintf_r+0x454>
   8a63c:	3430      	adds	r4, #48	; 0x30
   8a63e:	f88d 405f 	strb.w	r4, [sp, #95]	; 0x5f
   8a642:	e036      	b.n	8a6b2 <_svfprintf_r+0x4c2>
   8a644:	f10d 035f 	add.w	r3, sp, #95	; 0x5f
   8a648:	9302      	str	r3, [sp, #8]
   8a64a:	4620      	mov	r0, r4
   8a64c:	4629      	mov	r1, r5
   8a64e:	220a      	movs	r2, #10
   8a650:	2300      	movs	r3, #0
   8a652:	f8cd c000 	str.w	ip, [sp]
   8a656:	f001 fae5 	bl	8bc24 <__aeabi_uldivmod>
   8a65a:	9802      	ldr	r0, [sp, #8]
   8a65c:	3230      	adds	r2, #48	; 0x30
   8a65e:	f800 2901 	strb.w	r2, [r0], #-1
   8a662:	4629      	mov	r1, r5
   8a664:	220a      	movs	r2, #10
   8a666:	2300      	movs	r3, #0
   8a668:	f8dd a008 	ldr.w	sl, [sp, #8]
   8a66c:	9002      	str	r0, [sp, #8]
   8a66e:	4620      	mov	r0, r4
   8a670:	f001 fad8 	bl	8bc24 <__aeabi_uldivmod>
   8a674:	4604      	mov	r4, r0
   8a676:	460d      	mov	r5, r1
   8a678:	ea54 0105 	orrs.w	r1, r4, r5
   8a67c:	f8dd c000 	ldr.w	ip, [sp]
   8a680:	d1e3      	bne.n	8a64a <_svfprintf_r+0x45a>
   8a682:	e01b      	b.n	8a6bc <_svfprintf_r+0x4cc>
   8a684:	9905      	ldr	r1, [sp, #20]
   8a686:	f004 000f 	and.w	r0, r4, #15
   8a68a:	0924      	lsrs	r4, r4, #4
   8a68c:	5c0a      	ldrb	r2, [r1, r0]
   8a68e:	ea44 7005 	orr.w	r0, r4, r5, lsl #28
   8a692:	0929      	lsrs	r1, r5, #4
   8a694:	4604      	mov	r4, r0
   8a696:	460d      	mov	r5, r1
   8a698:	469a      	mov	sl, r3
   8a69a:	f803 2901 	strb.w	r2, [r3], #-1
   8a69e:	ea54 0205 	orrs.w	r2, r4, r5
   8a6a2:	d1ef      	bne.n	8a684 <_svfprintf_r+0x494>
   8a6a4:	e00a      	b.n	8a6bc <_svfprintf_r+0x4cc>
   8a6a6:	b938      	cbnz	r0, 8a6b8 <_svfprintf_r+0x4c8>
   8a6a8:	07f9      	lsls	r1, r7, #31
   8a6aa:	d505      	bpl.n	8a6b8 <_svfprintf_r+0x4c8>
   8a6ac:	2030      	movs	r0, #48	; 0x30
   8a6ae:	f88d 005f 	strb.w	r0, [sp, #95]	; 0x5f
   8a6b2:	f10d 0a5f 	add.w	sl, sp, #95	; 0x5f
   8a6b6:	e001      	b.n	8a6bc <_svfprintf_r+0x4cc>
   8a6b8:	f10d 0a60 	add.w	sl, sp, #96	; 0x60
   8a6bc:	ad18      	add	r5, sp, #96	; 0x60
   8a6be:	ebca 0405 	rsb	r4, sl, r5
   8a6c2:	4665      	mov	r5, ip
   8a6c4:	e00f      	b.n	8a6e6 <_svfprintf_r+0x4f6>
   8a6c6:	f88d 2027 	strb.w	r2, [sp, #39]	; 0x27
   8a6ca:	2b00      	cmp	r3, #0
   8a6cc:	f000 8176 	beq.w	8a9bc <_svfprintf_r+0x7cc>
   8a6d0:	2500      	movs	r5, #0
   8a6d2:	f88d 3038 	strb.w	r3, [sp, #56]	; 0x38
   8a6d6:	f88d 5027 	strb.w	r5, [sp, #39]	; 0x27
   8a6da:	2401      	movs	r4, #1
   8a6dc:	f10d 0a38 	add.w	sl, sp, #56	; 0x38
   8a6e0:	e001      	b.n	8a6e6 <_svfprintf_r+0x4f6>
   8a6e2:	4664      	mov	r4, ip
   8a6e4:	4605      	mov	r5, r0
   8a6e6:	f89d 3027 	ldrb.w	r3, [sp, #39]	; 0x27
   8a6ea:	42ac      	cmp	r4, r5
   8a6ec:	bfac      	ite	ge
   8a6ee:	4621      	movge	r1, r4
   8a6f0:	4629      	movlt	r1, r5
   8a6f2:	9102      	str	r1, [sp, #8]
   8a6f4:	b113      	cbz	r3, 8a6fc <_svfprintf_r+0x50c>
   8a6f6:	9802      	ldr	r0, [sp, #8]
   8a6f8:	1c42      	adds	r2, r0, #1
   8a6fa:	9202      	str	r2, [sp, #8]
   8a6fc:	f017 0102 	ands.w	r1, r7, #2
   8a700:	9106      	str	r1, [sp, #24]
   8a702:	d002      	beq.n	8a70a <_svfprintf_r+0x51a>
   8a704:	9b02      	ldr	r3, [sp, #8]
   8a706:	1c98      	adds	r0, r3, #2
   8a708:	9002      	str	r0, [sp, #8]
   8a70a:	f017 0284 	ands.w	r2, r7, #132	; 0x84
   8a70e:	9207      	str	r2, [sp, #28]
   8a710:	d13c      	bne.n	8a78c <_svfprintf_r+0x59c>
   8a712:	9903      	ldr	r1, [sp, #12]
   8a714:	9b02      	ldr	r3, [sp, #8]
   8a716:	1acb      	subs	r3, r1, r3
   8a718:	2b00      	cmp	r3, #0
   8a71a:	dd37      	ble.n	8a78c <_svfprintf_r+0x59c>
   8a71c:	48a5      	ldr	r0, [pc, #660]	; (8a9b4 <_svfprintf_r+0x7c4>)
   8a71e:	2b10      	cmp	r3, #16
   8a720:	f8c8 0000 	str.w	r0, [r8]
   8a724:	dd1b      	ble.n	8a75e <_svfprintf_r+0x56e>
   8a726:	9a0c      	ldr	r2, [sp, #48]	; 0x30
   8a728:	2110      	movs	r1, #16
   8a72a:	980d      	ldr	r0, [sp, #52]	; 0x34
   8a72c:	f8c8 1004 	str.w	r1, [r8, #4]
   8a730:	1c51      	adds	r1, r2, #1
   8a732:	3010      	adds	r0, #16
   8a734:	2907      	cmp	r1, #7
   8a736:	900d      	str	r0, [sp, #52]	; 0x34
   8a738:	910c      	str	r1, [sp, #48]	; 0x30
   8a73a:	dc02      	bgt.n	8a742 <_svfprintf_r+0x552>
   8a73c:	f108 0808 	add.w	r8, r8, #8
   8a740:	e00b      	b.n	8a75a <_svfprintf_r+0x56a>
   8a742:	4658      	mov	r0, fp
   8a744:	4649      	mov	r1, r9
   8a746:	aa0b      	add	r2, sp, #44	; 0x2c
   8a748:	9300      	str	r3, [sp, #0]
   8a74a:	f000 fdf1 	bl	8b330 <__ssprint_r>
   8a74e:	9b00      	ldr	r3, [sp, #0]
   8a750:	2800      	cmp	r0, #0
   8a752:	f040 813a 	bne.w	8a9ca <_svfprintf_r+0x7da>
   8a756:	f10d 0860 	add.w	r8, sp, #96	; 0x60
   8a75a:	3b10      	subs	r3, #16
   8a75c:	e7de      	b.n	8a71c <_svfprintf_r+0x52c>
   8a75e:	9a0d      	ldr	r2, [sp, #52]	; 0x34
   8a760:	f8c8 3004 	str.w	r3, [r8, #4]
   8a764:	18d1      	adds	r1, r2, r3
   8a766:	9b0c      	ldr	r3, [sp, #48]	; 0x30
   8a768:	910d      	str	r1, [sp, #52]	; 0x34
   8a76a:	1c58      	adds	r0, r3, #1
   8a76c:	2807      	cmp	r0, #7
   8a76e:	900c      	str	r0, [sp, #48]	; 0x30
   8a770:	dc02      	bgt.n	8a778 <_svfprintf_r+0x588>
   8a772:	f108 0808 	add.w	r8, r8, #8
   8a776:	e009      	b.n	8a78c <_svfprintf_r+0x59c>
   8a778:	4658      	mov	r0, fp
   8a77a:	4649      	mov	r1, r9
   8a77c:	aa0b      	add	r2, sp, #44	; 0x2c
   8a77e:	f000 fdd7 	bl	8b330 <__ssprint_r>
   8a782:	2800      	cmp	r0, #0
   8a784:	f040 8121 	bne.w	8a9ca <_svfprintf_r+0x7da>
   8a788:	f10d 0860 	add.w	r8, sp, #96	; 0x60
   8a78c:	f89d 2027 	ldrb.w	r2, [sp, #39]	; 0x27
   8a790:	b1da      	cbz	r2, 8a7ca <_svfprintf_r+0x5da>
   8a792:	f10d 0127 	add.w	r1, sp, #39	; 0x27
   8a796:	f8c8 1000 	str.w	r1, [r8]
   8a79a:	990c      	ldr	r1, [sp, #48]	; 0x30
   8a79c:	2301      	movs	r3, #1
   8a79e:	980d      	ldr	r0, [sp, #52]	; 0x34
   8a7a0:	f8c8 3004 	str.w	r3, [r8, #4]
   8a7a4:	1c4b      	adds	r3, r1, #1
   8a7a6:	1c42      	adds	r2, r0, #1
   8a7a8:	2b07      	cmp	r3, #7
   8a7aa:	920d      	str	r2, [sp, #52]	; 0x34
   8a7ac:	930c      	str	r3, [sp, #48]	; 0x30
   8a7ae:	dc02      	bgt.n	8a7b6 <_svfprintf_r+0x5c6>
   8a7b0:	f108 0808 	add.w	r8, r8, #8
   8a7b4:	e009      	b.n	8a7ca <_svfprintf_r+0x5da>
   8a7b6:	4658      	mov	r0, fp
   8a7b8:	4649      	mov	r1, r9
   8a7ba:	aa0b      	add	r2, sp, #44	; 0x2c
   8a7bc:	f000 fdb8 	bl	8b330 <__ssprint_r>
   8a7c0:	2800      	cmp	r0, #0
   8a7c2:	f040 8102 	bne.w	8a9ca <_svfprintf_r+0x7da>
   8a7c6:	f10d 0860 	add.w	r8, sp, #96	; 0x60
   8a7ca:	9806      	ldr	r0, [sp, #24]
   8a7cc:	b1d0      	cbz	r0, 8a804 <_svfprintf_r+0x614>
   8a7ce:	aa0a      	add	r2, sp, #40	; 0x28
   8a7d0:	f8c8 2000 	str.w	r2, [r8]
   8a7d4:	9a0c      	ldr	r2, [sp, #48]	; 0x30
   8a7d6:	2102      	movs	r1, #2
   8a7d8:	9b0d      	ldr	r3, [sp, #52]	; 0x34
   8a7da:	f8c8 1004 	str.w	r1, [r8, #4]
   8a7de:	1c51      	adds	r1, r2, #1
   8a7e0:	1c98      	adds	r0, r3, #2
   8a7e2:	2907      	cmp	r1, #7
   8a7e4:	900d      	str	r0, [sp, #52]	; 0x34
   8a7e6:	910c      	str	r1, [sp, #48]	; 0x30
   8a7e8:	dc02      	bgt.n	8a7f0 <_svfprintf_r+0x600>
   8a7ea:	f108 0808 	add.w	r8, r8, #8
   8a7ee:	e009      	b.n	8a804 <_svfprintf_r+0x614>
   8a7f0:	4658      	mov	r0, fp
   8a7f2:	4649      	mov	r1, r9
   8a7f4:	aa0b      	add	r2, sp, #44	; 0x2c
   8a7f6:	f000 fd9b 	bl	8b330 <__ssprint_r>
   8a7fa:	2800      	cmp	r0, #0
   8a7fc:	f040 80e5 	bne.w	8a9ca <_svfprintf_r+0x7da>
   8a800:	f10d 0860 	add.w	r8, sp, #96	; 0x60
   8a804:	9b07      	ldr	r3, [sp, #28]
   8a806:	2b80      	cmp	r3, #128	; 0x80
   8a808:	d13c      	bne.n	8a884 <_svfprintf_r+0x694>
   8a80a:	9803      	ldr	r0, [sp, #12]
   8a80c:	9a02      	ldr	r2, [sp, #8]
   8a80e:	1a83      	subs	r3, r0, r2
   8a810:	2b00      	cmp	r3, #0
   8a812:	dd37      	ble.n	8a884 <_svfprintf_r+0x694>
   8a814:	4968      	ldr	r1, [pc, #416]	; (8a9b8 <_svfprintf_r+0x7c8>)
   8a816:	2b10      	cmp	r3, #16
   8a818:	f8c8 1000 	str.w	r1, [r8]
   8a81c:	dd1b      	ble.n	8a856 <_svfprintf_r+0x666>
   8a81e:	980c      	ldr	r0, [sp, #48]	; 0x30
   8a820:	2210      	movs	r2, #16
   8a822:	990d      	ldr	r1, [sp, #52]	; 0x34
   8a824:	f8c8 2004 	str.w	r2, [r8, #4]
   8a828:	1c42      	adds	r2, r0, #1
   8a82a:	3110      	adds	r1, #16
   8a82c:	2a07      	cmp	r2, #7
   8a82e:	910d      	str	r1, [sp, #52]	; 0x34
   8a830:	920c      	str	r2, [sp, #48]	; 0x30
   8a832:	dc02      	bgt.n	8a83a <_svfprintf_r+0x64a>
   8a834:	f108 0808 	add.w	r8, r8, #8
   8a838:	e00b      	b.n	8a852 <_svfprintf_r+0x662>
   8a83a:	4658      	mov	r0, fp
   8a83c:	4649      	mov	r1, r9
   8a83e:	aa0b      	add	r2, sp, #44	; 0x2c
   8a840:	9300      	str	r3, [sp, #0]
   8a842:	f000 fd75 	bl	8b330 <__ssprint_r>
   8a846:	9b00      	ldr	r3, [sp, #0]
   8a848:	2800      	cmp	r0, #0
   8a84a:	f040 80be 	bne.w	8a9ca <_svfprintf_r+0x7da>
   8a84e:	f10d 0860 	add.w	r8, sp, #96	; 0x60
   8a852:	3b10      	subs	r3, #16
   8a854:	e7de      	b.n	8a814 <_svfprintf_r+0x624>
   8a856:	9a0c      	ldr	r2, [sp, #48]	; 0x30
   8a858:	980d      	ldr	r0, [sp, #52]	; 0x34
   8a85a:	1c51      	adds	r1, r2, #1
   8a85c:	f8c8 3004 	str.w	r3, [r8, #4]
   8a860:	2907      	cmp	r1, #7
   8a862:	4403      	add	r3, r0
   8a864:	930d      	str	r3, [sp, #52]	; 0x34
   8a866:	910c      	str	r1, [sp, #48]	; 0x30
   8a868:	dc02      	bgt.n	8a870 <_svfprintf_r+0x680>
   8a86a:	f108 0808 	add.w	r8, r8, #8
   8a86e:	e009      	b.n	8a884 <_svfprintf_r+0x694>
   8a870:	4658      	mov	r0, fp
   8a872:	4649      	mov	r1, r9
   8a874:	aa0b      	add	r2, sp, #44	; 0x2c
   8a876:	f000 fd5b 	bl	8b330 <__ssprint_r>
   8a87a:	2800      	cmp	r0, #0
   8a87c:	f040 80a5 	bne.w	8a9ca <_svfprintf_r+0x7da>
   8a880:	f10d 0860 	add.w	r8, sp, #96	; 0x60
   8a884:	1b2d      	subs	r5, r5, r4
   8a886:	2d00      	cmp	r5, #0
   8a888:	dd34      	ble.n	8a8f4 <_svfprintf_r+0x704>
   8a88a:	484b      	ldr	r0, [pc, #300]	; (8a9b8 <_svfprintf_r+0x7c8>)
   8a88c:	2d10      	cmp	r5, #16
   8a88e:	f8c8 0000 	str.w	r0, [r8]
   8a892:	dd19      	ble.n	8a8c8 <_svfprintf_r+0x6d8>
   8a894:	980c      	ldr	r0, [sp, #48]	; 0x30
   8a896:	990d      	ldr	r1, [sp, #52]	; 0x34
   8a898:	1c43      	adds	r3, r0, #1
   8a89a:	2210      	movs	r2, #16
   8a89c:	3110      	adds	r1, #16
   8a89e:	2b07      	cmp	r3, #7
   8a8a0:	f8c8 2004 	str.w	r2, [r8, #4]
   8a8a4:	910d      	str	r1, [sp, #52]	; 0x34
   8a8a6:	930c      	str	r3, [sp, #48]	; 0x30
   8a8a8:	dc02      	bgt.n	8a8b0 <_svfprintf_r+0x6c0>
   8a8aa:	f108 0808 	add.w	r8, r8, #8
   8a8ae:	e009      	b.n	8a8c4 <_svfprintf_r+0x6d4>
   8a8b0:	4658      	mov	r0, fp
   8a8b2:	4649      	mov	r1, r9
   8a8b4:	aa0b      	add	r2, sp, #44	; 0x2c
   8a8b6:	f000 fd3b 	bl	8b330 <__ssprint_r>
   8a8ba:	2800      	cmp	r0, #0
   8a8bc:	f040 8085 	bne.w	8a9ca <_svfprintf_r+0x7da>
   8a8c0:	f10d 0860 	add.w	r8, sp, #96	; 0x60
   8a8c4:	3d10      	subs	r5, #16
   8a8c6:	e7e0      	b.n	8a88a <_svfprintf_r+0x69a>
   8a8c8:	9a0c      	ldr	r2, [sp, #48]	; 0x30
   8a8ca:	9b0d      	ldr	r3, [sp, #52]	; 0x34
   8a8cc:	1c51      	adds	r1, r2, #1
   8a8ce:	f8c8 5004 	str.w	r5, [r8, #4]
   8a8d2:	2907      	cmp	r1, #7
   8a8d4:	441d      	add	r5, r3
   8a8d6:	950d      	str	r5, [sp, #52]	; 0x34
   8a8d8:	910c      	str	r1, [sp, #48]	; 0x30
   8a8da:	dc02      	bgt.n	8a8e2 <_svfprintf_r+0x6f2>
   8a8dc:	f108 0808 	add.w	r8, r8, #8
   8a8e0:	e008      	b.n	8a8f4 <_svfprintf_r+0x704>
   8a8e2:	4658      	mov	r0, fp
   8a8e4:	4649      	mov	r1, r9
   8a8e6:	aa0b      	add	r2, sp, #44	; 0x2c
   8a8e8:	f000 fd22 	bl	8b330 <__ssprint_r>
   8a8ec:	2800      	cmp	r0, #0
   8a8ee:	d16c      	bne.n	8a9ca <_svfprintf_r+0x7da>
   8a8f0:	f10d 0860 	add.w	r8, sp, #96	; 0x60
   8a8f4:	9b0c      	ldr	r3, [sp, #48]	; 0x30
   8a8f6:	980d      	ldr	r0, [sp, #52]	; 0x34
   8a8f8:	1c5a      	adds	r2, r3, #1
   8a8fa:	f8c8 4004 	str.w	r4, [r8, #4]
   8a8fe:	2a07      	cmp	r2, #7
   8a900:	4404      	add	r4, r0
   8a902:	f8c8 a000 	str.w	sl, [r8]
   8a906:	940d      	str	r4, [sp, #52]	; 0x34
   8a908:	920c      	str	r2, [sp, #48]	; 0x30
   8a90a:	dc02      	bgt.n	8a912 <_svfprintf_r+0x722>
   8a90c:	f108 0308 	add.w	r3, r8, #8
   8a910:	e007      	b.n	8a922 <_svfprintf_r+0x732>
   8a912:	4658      	mov	r0, fp
   8a914:	4649      	mov	r1, r9
   8a916:	aa0b      	add	r2, sp, #44	; 0x2c
   8a918:	f000 fd0a 	bl	8b330 <__ssprint_r>
   8a91c:	2800      	cmp	r0, #0
   8a91e:	d154      	bne.n	8a9ca <_svfprintf_r+0x7da>
   8a920:	ab18      	add	r3, sp, #96	; 0x60
   8a922:	077a      	lsls	r2, r7, #29
   8a924:	d40b      	bmi.n	8a93e <_svfprintf_r+0x74e>
   8a926:	9804      	ldr	r0, [sp, #16]
   8a928:	9b02      	ldr	r3, [sp, #8]
   8a92a:	9a03      	ldr	r2, [sp, #12]
   8a92c:	990d      	ldr	r1, [sp, #52]	; 0x34
   8a92e:	4293      	cmp	r3, r2
   8a930:	bfac      	ite	ge
   8a932:	18c0      	addge	r0, r0, r3
   8a934:	1880      	addlt	r0, r0, r2
   8a936:	9004      	str	r0, [sp, #16]
   8a938:	2900      	cmp	r1, #0
   8a93a:	d036      	beq.n	8a9aa <_svfprintf_r+0x7ba>
   8a93c:	e02f      	b.n	8a99e <_svfprintf_r+0x7ae>
   8a93e:	9c03      	ldr	r4, [sp, #12]
   8a940:	9902      	ldr	r1, [sp, #8]
   8a942:	1a64      	subs	r4, r4, r1
   8a944:	2c00      	cmp	r4, #0
   8a946:	ddee      	ble.n	8a926 <_svfprintf_r+0x736>
   8a948:	481a      	ldr	r0, [pc, #104]	; (8a9b4 <_svfprintf_r+0x7c4>)
   8a94a:	2c10      	cmp	r4, #16
   8a94c:	6018      	str	r0, [r3, #0]
   8a94e:	dd15      	ble.n	8a97c <_svfprintf_r+0x78c>
   8a950:	990c      	ldr	r1, [sp, #48]	; 0x30
   8a952:	2010      	movs	r0, #16
   8a954:	9a0d      	ldr	r2, [sp, #52]	; 0x34
   8a956:	6058      	str	r0, [r3, #4]
   8a958:	1c48      	adds	r0, r1, #1
   8a95a:	3210      	adds	r2, #16
   8a95c:	2807      	cmp	r0, #7
   8a95e:	920d      	str	r2, [sp, #52]	; 0x34
   8a960:	900c      	str	r0, [sp, #48]	; 0x30
   8a962:	dc01      	bgt.n	8a968 <_svfprintf_r+0x778>
   8a964:	3308      	adds	r3, #8
   8a966:	e007      	b.n	8a978 <_svfprintf_r+0x788>
   8a968:	4658      	mov	r0, fp
   8a96a:	4649      	mov	r1, r9
   8a96c:	aa0b      	add	r2, sp, #44	; 0x2c
   8a96e:	f000 fcdf 	bl	8b330 <__ssprint_r>
   8a972:	2800      	cmp	r0, #0
   8a974:	d129      	bne.n	8a9ca <_svfprintf_r+0x7da>
   8a976:	ab18      	add	r3, sp, #96	; 0x60
   8a978:	3c10      	subs	r4, #16
   8a97a:	e7e5      	b.n	8a948 <_svfprintf_r+0x758>
   8a97c:	9a0c      	ldr	r2, [sp, #48]	; 0x30
   8a97e:	605c      	str	r4, [r3, #4]
   8a980:	9b0d      	ldr	r3, [sp, #52]	; 0x34
   8a982:	1c51      	adds	r1, r2, #1
   8a984:	191c      	adds	r4, r3, r4
   8a986:	2907      	cmp	r1, #7
   8a988:	940d      	str	r4, [sp, #52]	; 0x34
   8a98a:	910c      	str	r1, [sp, #48]	; 0x30
   8a98c:	ddcb      	ble.n	8a926 <_svfprintf_r+0x736>
   8a98e:	4658      	mov	r0, fp
   8a990:	4649      	mov	r1, r9
   8a992:	aa0b      	add	r2, sp, #44	; 0x2c
   8a994:	f000 fccc 	bl	8b330 <__ssprint_r>
   8a998:	2800      	cmp	r0, #0
   8a99a:	d0c4      	beq.n	8a926 <_svfprintf_r+0x736>
   8a99c:	e015      	b.n	8a9ca <_svfprintf_r+0x7da>
   8a99e:	4658      	mov	r0, fp
   8a9a0:	4649      	mov	r1, r9
   8a9a2:	aa0b      	add	r2, sp, #44	; 0x2c
   8a9a4:	f000 fcc4 	bl	8b330 <__ssprint_r>
   8a9a8:	b978      	cbnz	r0, 8a9ca <_svfprintf_r+0x7da>
   8a9aa:	2500      	movs	r5, #0
   8a9ac:	950c      	str	r5, [sp, #48]	; 0x30
   8a9ae:	f10d 0860 	add.w	r8, sp, #96	; 0x60
   8a9b2:	e446      	b.n	8a242 <_svfprintf_r+0x52>
   8a9b4:	0008cdda 	.word	0x0008cdda
   8a9b8:	0008cdea 	.word	0x0008cdea
   8a9bc:	980d      	ldr	r0, [sp, #52]	; 0x34
   8a9be:	b120      	cbz	r0, 8a9ca <_svfprintf_r+0x7da>
   8a9c0:	4658      	mov	r0, fp
   8a9c2:	4649      	mov	r1, r9
   8a9c4:	aa0b      	add	r2, sp, #44	; 0x2c
   8a9c6:	f000 fcb3 	bl	8b330 <__ssprint_r>
   8a9ca:	f8b9 200c 	ldrh.w	r2, [r9, #12]
   8a9ce:	9b04      	ldr	r3, [sp, #16]
   8a9d0:	f002 0140 	and.w	r1, r2, #64	; 0x40
   8a9d4:	b208      	sxth	r0, r1
   8a9d6:	2800      	cmp	r0, #0
   8a9d8:	bf18      	it	ne
   8a9da:	f04f 33ff 	movne.w	r3, #4294967295
   8a9de:	4618      	mov	r0, r3
   8a9e0:	b029      	add	sp, #164	; 0xa4
   8a9e2:	e8bd 8ff0 	ldmia.w	sp!, {r4, r5, r6, r7, r8, r9, sl, fp, pc}
   8a9e6:	bf00      	nop

0008a9e8 <register_fini>:
   8a9e8:	4b02      	ldr	r3, [pc, #8]	; (8a9f4 <register_fini+0xc>)
   8a9ea:	b113      	cbz	r3, 8a9f2 <register_fini+0xa>
   8a9ec:	4802      	ldr	r0, [pc, #8]	; (8a9f8 <register_fini+0x10>)
   8a9ee:	f000 b805 	b.w	8a9fc <atexit>
   8a9f2:	4770      	bx	lr
   8a9f4:	00000000 	.word	0x00000000
   8a9f8:	00089ea9 	.word	0x00089ea9

0008a9fc <atexit>:
   8a9fc:	4601      	mov	r1, r0
   8a9fe:	2000      	movs	r0, #0
   8aa00:	4602      	mov	r2, r0
   8aa02:	4603      	mov	r3, r0
   8aa04:	f7ff ba02 	b.w	89e0c <__register_exitproc>

0008aa08 <_malloc_trim_r>:
   8aa08:	b5f8      	push	{r3, r4, r5, r6, r7, lr}
   8aa0a:	4d23      	ldr	r5, [pc, #140]	; (8aa98 <_malloc_trim_r+0x90>)
   8aa0c:	460e      	mov	r6, r1
   8aa0e:	4604      	mov	r4, r0
   8aa10:	f000 fb0e 	bl	8b030 <__malloc_lock>
   8aa14:	68ab      	ldr	r3, [r5, #8]
   8aa16:	685f      	ldr	r7, [r3, #4]
   8aa18:	f027 0703 	bic.w	r7, r7, #3
   8aa1c:	f607 70ef 	addw	r0, r7, #4079	; 0xfef
   8aa20:	1b81      	subs	r1, r0, r6
   8aa22:	f421 627f 	bic.w	r2, r1, #4080	; 0xff0
   8aa26:	f022 060f 	bic.w	r6, r2, #15
   8aa2a:	f5a6 5680 	sub.w	r6, r6, #4096	; 0x1000
   8aa2e:	f5b6 5f80 	cmp.w	r6, #4096	; 0x1000
   8aa32:	da04      	bge.n	8aa3e <_malloc_trim_r+0x36>
   8aa34:	4620      	mov	r0, r4
   8aa36:	f000 fafc 	bl	8b032 <__malloc_unlock>
   8aa3a:	2000      	movs	r0, #0
   8aa3c:	bdf8      	pop	{r3, r4, r5, r6, r7, pc}
   8aa3e:	2100      	movs	r1, #0
   8aa40:	4620      	mov	r0, r4
   8aa42:	f000 fc65 	bl	8b310 <_sbrk_r>
   8aa46:	68ab      	ldr	r3, [r5, #8]
   8aa48:	19d9      	adds	r1, r3, r7
   8aa4a:	4288      	cmp	r0, r1
   8aa4c:	d1f2      	bne.n	8aa34 <_malloc_trim_r+0x2c>
   8aa4e:	4271      	negs	r1, r6
   8aa50:	4620      	mov	r0, r4
   8aa52:	f000 fc5d 	bl	8b310 <_sbrk_r>
   8aa56:	3001      	adds	r0, #1
   8aa58:	d110      	bne.n	8aa7c <_malloc_trim_r+0x74>
   8aa5a:	2100      	movs	r1, #0
   8aa5c:	4620      	mov	r0, r4
   8aa5e:	f000 fc57 	bl	8b310 <_sbrk_r>
   8aa62:	68ab      	ldr	r3, [r5, #8]
   8aa64:	1ac2      	subs	r2, r0, r3
   8aa66:	2a0f      	cmp	r2, #15
   8aa68:	dde4      	ble.n	8aa34 <_malloc_trim_r+0x2c>
   8aa6a:	490c      	ldr	r1, [pc, #48]	; (8aa9c <_malloc_trim_r+0x94>)
   8aa6c:	f042 0201 	orr.w	r2, r2, #1
   8aa70:	6809      	ldr	r1, [r1, #0]
   8aa72:	605a      	str	r2, [r3, #4]
   8aa74:	1a40      	subs	r0, r0, r1
   8aa76:	490a      	ldr	r1, [pc, #40]	; (8aaa0 <_malloc_trim_r+0x98>)
   8aa78:	6008      	str	r0, [r1, #0]
   8aa7a:	e7db      	b.n	8aa34 <_malloc_trim_r+0x2c>
   8aa7c:	4b08      	ldr	r3, [pc, #32]	; (8aaa0 <_malloc_trim_r+0x98>)
   8aa7e:	68a8      	ldr	r0, [r5, #8]
   8aa80:	681a      	ldr	r2, [r3, #0]
   8aa82:	1bbf      	subs	r7, r7, r6
   8aa84:	f047 0701 	orr.w	r7, r7, #1
   8aa88:	6047      	str	r7, [r0, #4]
   8aa8a:	1b96      	subs	r6, r2, r6
   8aa8c:	4620      	mov	r0, r4
   8aa8e:	601e      	str	r6, [r3, #0]
   8aa90:	f000 facf 	bl	8b032 <__malloc_unlock>
   8aa94:	2001      	movs	r0, #1
   8aa96:	bdf8      	pop	{r3, r4, r5, r6, r7, pc}
   8aa98:	200706d8 	.word	0x200706d8
   8aa9c:	20070ae0 	.word	0x20070ae0
   8aaa0:	2007161c 	.word	0x2007161c

0008aaa4 <_free_r>:
   8aaa4:	b5f8      	push	{r3, r4, r5, r6, r7, lr}
   8aaa6:	4606      	mov	r6, r0
   8aaa8:	460d      	mov	r5, r1
   8aaaa:	2900      	cmp	r1, #0
   8aaac:	f000 80a6 	beq.w	8abfc <_free_r+0x158>
   8aab0:	f000 fabe 	bl	8b030 <__malloc_lock>
   8aab4:	f855 cc04 	ldr.w	ip, [r5, #-4]
   8aab8:	4f51      	ldr	r7, [pc, #324]	; (8ac00 <_free_r+0x15c>)
   8aaba:	f1a5 0308 	sub.w	r3, r5, #8
   8aabe:	f02c 0201 	bic.w	r2, ip, #1
   8aac2:	189c      	adds	r4, r3, r2
   8aac4:	68b9      	ldr	r1, [r7, #8]
   8aac6:	6860      	ldr	r0, [r4, #4]
   8aac8:	428c      	cmp	r4, r1
   8aaca:	f020 0003 	bic.w	r0, r0, #3
   8aace:	f00c 0101 	and.w	r1, ip, #1
   8aad2:	d11c      	bne.n	8ab0e <_free_r+0x6a>
   8aad4:	1882      	adds	r2, r0, r2
   8aad6:	b939      	cbnz	r1, 8aae8 <_free_r+0x44>
   8aad8:	f855 1c08 	ldr.w	r1, [r5, #-8]
   8aadc:	1a5b      	subs	r3, r3, r1
   8aade:	6898      	ldr	r0, [r3, #8]
   8aae0:	1852      	adds	r2, r2, r1
   8aae2:	68d9      	ldr	r1, [r3, #12]
   8aae4:	60c1      	str	r1, [r0, #12]
   8aae6:	6088      	str	r0, [r1, #8]
   8aae8:	4845      	ldr	r0, [pc, #276]	; (8ac00 <_free_r+0x15c>)
   8aaea:	f042 0101 	orr.w	r1, r2, #1
   8aaee:	6059      	str	r1, [r3, #4]
   8aaf0:	6083      	str	r3, [r0, #8]
   8aaf2:	4b44      	ldr	r3, [pc, #272]	; (8ac04 <_free_r+0x160>)
   8aaf4:	6819      	ldr	r1, [r3, #0]
   8aaf6:	428a      	cmp	r2, r1
   8aaf8:	d304      	bcc.n	8ab04 <_free_r+0x60>
   8aafa:	4a43      	ldr	r2, [pc, #268]	; (8ac08 <_free_r+0x164>)
   8aafc:	4630      	mov	r0, r6
   8aafe:	6811      	ldr	r1, [r2, #0]
   8ab00:	f7ff ff82 	bl	8aa08 <_malloc_trim_r>
   8ab04:	4630      	mov	r0, r6
   8ab06:	e8bd 40f8 	ldmia.w	sp!, {r3, r4, r5, r6, r7, lr}
   8ab0a:	f000 ba92 	b.w	8b032 <__malloc_unlock>
   8ab0e:	6060      	str	r0, [r4, #4]
   8ab10:	b959      	cbnz	r1, 8ab2a <_free_r+0x86>
   8ab12:	f855 5c08 	ldr.w	r5, [r5, #-8]
   8ab16:	3708      	adds	r7, #8
   8ab18:	1b5b      	subs	r3, r3, r5
   8ab1a:	1952      	adds	r2, r2, r5
   8ab1c:	689d      	ldr	r5, [r3, #8]
   8ab1e:	42bd      	cmp	r5, r7
   8ab20:	d005      	beq.n	8ab2e <_free_r+0x8a>
   8ab22:	68df      	ldr	r7, [r3, #12]
   8ab24:	60ef      	str	r7, [r5, #12]
   8ab26:	60bd      	str	r5, [r7, #8]
   8ab28:	e002      	b.n	8ab30 <_free_r+0x8c>
   8ab2a:	2100      	movs	r1, #0
   8ab2c:	e000      	b.n	8ab30 <_free_r+0x8c>
   8ab2e:	2101      	movs	r1, #1
   8ab30:	1825      	adds	r5, r4, r0
   8ab32:	686d      	ldr	r5, [r5, #4]
   8ab34:	f015 0f01 	tst.w	r5, #1
   8ab38:	d10f      	bne.n	8ab5a <_free_r+0xb6>
   8ab3a:	1812      	adds	r2, r2, r0
   8ab3c:	b949      	cbnz	r1, 8ab52 <_free_r+0xae>
   8ab3e:	68a0      	ldr	r0, [r4, #8]
   8ab40:	4d32      	ldr	r5, [pc, #200]	; (8ac0c <_free_r+0x168>)
   8ab42:	42a8      	cmp	r0, r5
   8ab44:	d105      	bne.n	8ab52 <_free_r+0xae>
   8ab46:	60eb      	str	r3, [r5, #12]
   8ab48:	60ab      	str	r3, [r5, #8]
   8ab4a:	60d8      	str	r0, [r3, #12]
   8ab4c:	6098      	str	r0, [r3, #8]
   8ab4e:	2101      	movs	r1, #1
   8ab50:	e003      	b.n	8ab5a <_free_r+0xb6>
   8ab52:	68e0      	ldr	r0, [r4, #12]
   8ab54:	68a4      	ldr	r4, [r4, #8]
   8ab56:	60e0      	str	r0, [r4, #12]
   8ab58:	6084      	str	r4, [r0, #8]
   8ab5a:	f042 0001 	orr.w	r0, r2, #1
   8ab5e:	6058      	str	r0, [r3, #4]
   8ab60:	509a      	str	r2, [r3, r2]
   8ab62:	2900      	cmp	r1, #0
   8ab64:	d1ce      	bne.n	8ab04 <_free_r+0x60>
   8ab66:	f5b2 7f00 	cmp.w	r2, #512	; 0x200
   8ab6a:	d20c      	bcs.n	8ab86 <_free_r+0xe2>
   8ab6c:	08d2      	lsrs	r2, r2, #3
   8ab6e:	1090      	asrs	r0, r2, #2
   8ab70:	2401      	movs	r4, #1
   8ab72:	fa04 f400 	lsl.w	r4, r4, r0
   8ab76:	4922      	ldr	r1, [pc, #136]	; (8ac00 <_free_r+0x15c>)
   8ab78:	6848      	ldr	r0, [r1, #4]
   8ab7a:	4320      	orrs	r0, r4
   8ab7c:	6048      	str	r0, [r1, #4]
   8ab7e:	eb01 00c2 	add.w	r0, r1, r2, lsl #3
   8ab82:	6881      	ldr	r1, [r0, #8]
   8ab84:	e035      	b.n	8abf2 <_free_r+0x14e>
   8ab86:	0a54      	lsrs	r4, r2, #9
   8ab88:	2c04      	cmp	r4, #4
   8ab8a:	d802      	bhi.n	8ab92 <_free_r+0xee>
   8ab8c:	0994      	lsrs	r4, r2, #6
   8ab8e:	3438      	adds	r4, #56	; 0x38
   8ab90:	e016      	b.n	8abc0 <_free_r+0x11c>
   8ab92:	2c14      	cmp	r4, #20
   8ab94:	d801      	bhi.n	8ab9a <_free_r+0xf6>
   8ab96:	345b      	adds	r4, #91	; 0x5b
   8ab98:	e012      	b.n	8abc0 <_free_r+0x11c>
   8ab9a:	2c54      	cmp	r4, #84	; 0x54
   8ab9c:	d802      	bhi.n	8aba4 <_free_r+0x100>
   8ab9e:	0b14      	lsrs	r4, r2, #12
   8aba0:	346e      	adds	r4, #110	; 0x6e
   8aba2:	e00d      	b.n	8abc0 <_free_r+0x11c>
   8aba4:	f5b4 7faa 	cmp.w	r4, #340	; 0x154
   8aba8:	d802      	bhi.n	8abb0 <_free_r+0x10c>
   8abaa:	0bd4      	lsrs	r4, r2, #15
   8abac:	3477      	adds	r4, #119	; 0x77
   8abae:	e007      	b.n	8abc0 <_free_r+0x11c>
   8abb0:	f240 5554 	movw	r5, #1364	; 0x554
   8abb4:	42ac      	cmp	r4, r5
   8abb6:	d802      	bhi.n	8abbe <_free_r+0x11a>
   8abb8:	0c94      	lsrs	r4, r2, #18
   8abba:	347c      	adds	r4, #124	; 0x7c
   8abbc:	e000      	b.n	8abc0 <_free_r+0x11c>
   8abbe:	247e      	movs	r4, #126	; 0x7e
   8abc0:	4d0f      	ldr	r5, [pc, #60]	; (8ac00 <_free_r+0x15c>)
   8abc2:	eb05 00c4 	add.w	r0, r5, r4, lsl #3
   8abc6:	6881      	ldr	r1, [r0, #8]
   8abc8:	4281      	cmp	r1, r0
   8abca:	d10c      	bne.n	8abe6 <_free_r+0x142>
   8abcc:	2201      	movs	r2, #1
   8abce:	10a4      	asrs	r4, r4, #2
   8abd0:	fa02 f404 	lsl.w	r4, r2, r4
   8abd4:	6868      	ldr	r0, [r5, #4]
   8abd6:	ea44 0200 	orr.w	r2, r4, r0
   8abda:	606a      	str	r2, [r5, #4]
   8abdc:	4608      	mov	r0, r1
   8abde:	e008      	b.n	8abf2 <_free_r+0x14e>
   8abe0:	6889      	ldr	r1, [r1, #8]
   8abe2:	4281      	cmp	r1, r0
   8abe4:	d004      	beq.n	8abf0 <_free_r+0x14c>
   8abe6:	684c      	ldr	r4, [r1, #4]
   8abe8:	f024 0403 	bic.w	r4, r4, #3
   8abec:	42a2      	cmp	r2, r4
   8abee:	d3f7      	bcc.n	8abe0 <_free_r+0x13c>
   8abf0:	68c8      	ldr	r0, [r1, #12]
   8abf2:	60d8      	str	r0, [r3, #12]
   8abf4:	6099      	str	r1, [r3, #8]
   8abf6:	6083      	str	r3, [r0, #8]
   8abf8:	60cb      	str	r3, [r1, #12]
   8abfa:	e783      	b.n	8ab04 <_free_r+0x60>
   8abfc:	bdf8      	pop	{r3, r4, r5, r6, r7, pc}
   8abfe:	bf00      	nop
   8ac00:	200706d8 	.word	0x200706d8
   8ac04:	20070ae4 	.word	0x20070ae4
   8ac08:	20071618 	.word	0x20071618
   8ac0c:	200706e0 	.word	0x200706e0

0008ac10 <_malloc_r>:
   8ac10:	e92d 47f0 	stmdb	sp!, {r4, r5, r6, r7, r8, r9, sl, lr}
   8ac14:	f101 040b 	add.w	r4, r1, #11
   8ac18:	2c16      	cmp	r4, #22
   8ac1a:	4606      	mov	r6, r0
   8ac1c:	d903      	bls.n	8ac26 <_malloc_r+0x16>
   8ac1e:	f034 0407 	bics.w	r4, r4, #7
   8ac22:	d501      	bpl.n	8ac28 <_malloc_r+0x18>
   8ac24:	e002      	b.n	8ac2c <_malloc_r+0x1c>
   8ac26:	2410      	movs	r4, #16
   8ac28:	428c      	cmp	r4, r1
   8ac2a:	d202      	bcs.n	8ac32 <_malloc_r+0x22>
   8ac2c:	250c      	movs	r5, #12
   8ac2e:	6035      	str	r5, [r6, #0]
   8ac30:	e1d9      	b.n	8afe6 <_malloc_r+0x3d6>
   8ac32:	4630      	mov	r0, r6
   8ac34:	f000 f9fc 	bl	8b030 <__malloc_lock>
   8ac38:	f5b4 7ffc 	cmp.w	r4, #504	; 0x1f8
   8ac3c:	d214      	bcs.n	8ac68 <_malloc_r+0x58>
   8ac3e:	4da0      	ldr	r5, [pc, #640]	; (8aec0 <_malloc_r+0x2b0>)
   8ac40:	08e1      	lsrs	r1, r4, #3
   8ac42:	eb05 00c1 	add.w	r0, r5, r1, lsl #3
   8ac46:	68c5      	ldr	r5, [r0, #12]
   8ac48:	4285      	cmp	r5, r0
   8ac4a:	d105      	bne.n	8ac58 <_malloc_r+0x48>
   8ac4c:	f105 0308 	add.w	r3, r5, #8
   8ac50:	696d      	ldr	r5, [r5, #20]
   8ac52:	1c8a      	adds	r2, r1, #2
   8ac54:	429d      	cmp	r5, r3
   8ac56:	d044      	beq.n	8ace2 <_malloc_r+0xd2>
   8ac58:	68e8      	ldr	r0, [r5, #12]
   8ac5a:	68a9      	ldr	r1, [r5, #8]
   8ac5c:	686a      	ldr	r2, [r5, #4]
   8ac5e:	60c8      	str	r0, [r1, #12]
   8ac60:	f022 0303 	bic.w	r3, r2, #3
   8ac64:	6081      	str	r1, [r0, #8]
   8ac66:	e059      	b.n	8ad1c <_malloc_r+0x10c>
   8ac68:	0a62      	lsrs	r2, r4, #9
   8ac6a:	d101      	bne.n	8ac70 <_malloc_r+0x60>
   8ac6c:	08e2      	lsrs	r2, r4, #3
   8ac6e:	e01b      	b.n	8aca8 <_malloc_r+0x98>
   8ac70:	2a04      	cmp	r2, #4
   8ac72:	d802      	bhi.n	8ac7a <_malloc_r+0x6a>
   8ac74:	09a2      	lsrs	r2, r4, #6
   8ac76:	3238      	adds	r2, #56	; 0x38
   8ac78:	e016      	b.n	8aca8 <_malloc_r+0x98>
   8ac7a:	2a14      	cmp	r2, #20
   8ac7c:	d801      	bhi.n	8ac82 <_malloc_r+0x72>
   8ac7e:	325b      	adds	r2, #91	; 0x5b
   8ac80:	e012      	b.n	8aca8 <_malloc_r+0x98>
   8ac82:	2a54      	cmp	r2, #84	; 0x54
   8ac84:	d802      	bhi.n	8ac8c <_malloc_r+0x7c>
   8ac86:	0b22      	lsrs	r2, r4, #12
   8ac88:	326e      	adds	r2, #110	; 0x6e
   8ac8a:	e00d      	b.n	8aca8 <_malloc_r+0x98>
   8ac8c:	f5b2 7faa 	cmp.w	r2, #340	; 0x154
   8ac90:	d802      	bhi.n	8ac98 <_malloc_r+0x88>
   8ac92:	0be2      	lsrs	r2, r4, #15
   8ac94:	3277      	adds	r2, #119	; 0x77
   8ac96:	e007      	b.n	8aca8 <_malloc_r+0x98>
   8ac98:	f240 5354 	movw	r3, #1364	; 0x554
   8ac9c:	429a      	cmp	r2, r3
   8ac9e:	d802      	bhi.n	8aca6 <_malloc_r+0x96>
   8aca0:	0ca2      	lsrs	r2, r4, #18
   8aca2:	327c      	adds	r2, #124	; 0x7c
   8aca4:	e000      	b.n	8aca8 <_malloc_r+0x98>
   8aca6:	227e      	movs	r2, #126	; 0x7e
   8aca8:	4885      	ldr	r0, [pc, #532]	; (8aec0 <_malloc_r+0x2b0>)
   8acaa:	eb00 03c2 	add.w	r3, r0, r2, lsl #3
   8acae:	68dd      	ldr	r5, [r3, #12]
   8acb0:	429d      	cmp	r5, r3
   8acb2:	d015      	beq.n	8ace0 <_malloc_r+0xd0>
   8acb4:	6869      	ldr	r1, [r5, #4]
   8acb6:	f021 0103 	bic.w	r1, r1, #3
   8acba:	1b08      	subs	r0, r1, r4
   8acbc:	280f      	cmp	r0, #15
   8acbe:	dd01      	ble.n	8acc4 <_malloc_r+0xb4>
   8acc0:	3a01      	subs	r2, #1
   8acc2:	e00d      	b.n	8ace0 <_malloc_r+0xd0>
   8acc4:	2800      	cmp	r0, #0
   8acc6:	db09      	blt.n	8acdc <_malloc_r+0xcc>
   8acc8:	68eb      	ldr	r3, [r5, #12]
   8acca:	68aa      	ldr	r2, [r5, #8]
   8accc:	60d3      	str	r3, [r2, #12]
   8acce:	609a      	str	r2, [r3, #8]
   8acd0:	186b      	adds	r3, r5, r1
   8acd2:	685a      	ldr	r2, [r3, #4]
   8acd4:	f042 0001 	orr.w	r0, r2, #1
   8acd8:	6058      	str	r0, [r3, #4]
   8acda:	e190      	b.n	8affe <_malloc_r+0x3ee>
   8acdc:	68ed      	ldr	r5, [r5, #12]
   8acde:	e7e7      	b.n	8acb0 <_malloc_r+0xa0>
   8ace0:	3201      	adds	r2, #1
   8ace2:	4977      	ldr	r1, [pc, #476]	; (8aec0 <_malloc_r+0x2b0>)
   8ace4:	690d      	ldr	r5, [r1, #16]
   8ace6:	f101 0708 	add.w	r7, r1, #8
   8acea:	42bd      	cmp	r5, r7
   8acec:	d068      	beq.n	8adc0 <_malloc_r+0x1b0>
   8acee:	6868      	ldr	r0, [r5, #4]
   8acf0:	f020 0303 	bic.w	r3, r0, #3
   8acf4:	1b18      	subs	r0, r3, r4
   8acf6:	280f      	cmp	r0, #15
   8acf8:	dd0c      	ble.n	8ad14 <_malloc_r+0x104>
   8acfa:	192b      	adds	r3, r5, r4
   8acfc:	614b      	str	r3, [r1, #20]
   8acfe:	610b      	str	r3, [r1, #16]
   8ad00:	f044 0401 	orr.w	r4, r4, #1
   8ad04:	f040 0101 	orr.w	r1, r0, #1
   8ad08:	606c      	str	r4, [r5, #4]
   8ad0a:	60df      	str	r7, [r3, #12]
   8ad0c:	609f      	str	r7, [r3, #8]
   8ad0e:	6059      	str	r1, [r3, #4]
   8ad10:	5018      	str	r0, [r3, r0]
   8ad12:	e174      	b.n	8affe <_malloc_r+0x3ee>
   8ad14:	2800      	cmp	r0, #0
   8ad16:	614f      	str	r7, [r1, #20]
   8ad18:	610f      	str	r7, [r1, #16]
   8ad1a:	db01      	blt.n	8ad20 <_malloc_r+0x110>
   8ad1c:	18eb      	adds	r3, r5, r3
   8ad1e:	e7d8      	b.n	8acd2 <_malloc_r+0xc2>
   8ad20:	f5b3 7f00 	cmp.w	r3, #512	; 0x200
   8ad24:	d20f      	bcs.n	8ad46 <_malloc_r+0x136>
   8ad26:	08db      	lsrs	r3, r3, #3
   8ad28:	1098      	asrs	r0, r3, #2
   8ad2a:	2701      	movs	r7, #1
   8ad2c:	fa07 f700 	lsl.w	r7, r7, r0
   8ad30:	6848      	ldr	r0, [r1, #4]
   8ad32:	4307      	orrs	r7, r0
   8ad34:	604f      	str	r7, [r1, #4]
   8ad36:	eb01 01c3 	add.w	r1, r1, r3, lsl #3
   8ad3a:	688b      	ldr	r3, [r1, #8]
   8ad3c:	60e9      	str	r1, [r5, #12]
   8ad3e:	60ab      	str	r3, [r5, #8]
   8ad40:	60dd      	str	r5, [r3, #12]
   8ad42:	608d      	str	r5, [r1, #8]
   8ad44:	e03c      	b.n	8adc0 <_malloc_r+0x1b0>
   8ad46:	0a58      	lsrs	r0, r3, #9
   8ad48:	2804      	cmp	r0, #4
   8ad4a:	d802      	bhi.n	8ad52 <_malloc_r+0x142>
   8ad4c:	0998      	lsrs	r0, r3, #6
   8ad4e:	3038      	adds	r0, #56	; 0x38
   8ad50:	e016      	b.n	8ad80 <_malloc_r+0x170>
   8ad52:	2814      	cmp	r0, #20
   8ad54:	d801      	bhi.n	8ad5a <_malloc_r+0x14a>
   8ad56:	305b      	adds	r0, #91	; 0x5b
   8ad58:	e012      	b.n	8ad80 <_malloc_r+0x170>
   8ad5a:	2854      	cmp	r0, #84	; 0x54
   8ad5c:	d802      	bhi.n	8ad64 <_malloc_r+0x154>
   8ad5e:	0b18      	lsrs	r0, r3, #12
   8ad60:	306e      	adds	r0, #110	; 0x6e
   8ad62:	e00d      	b.n	8ad80 <_malloc_r+0x170>
   8ad64:	f5b0 7faa 	cmp.w	r0, #340	; 0x154
   8ad68:	d802      	bhi.n	8ad70 <_malloc_r+0x160>
   8ad6a:	0bd8      	lsrs	r0, r3, #15
   8ad6c:	3077      	adds	r0, #119	; 0x77
   8ad6e:	e007      	b.n	8ad80 <_malloc_r+0x170>
   8ad70:	f240 5754 	movw	r7, #1364	; 0x554
   8ad74:	42b8      	cmp	r0, r7
   8ad76:	d802      	bhi.n	8ad7e <_malloc_r+0x16e>
   8ad78:	0c98      	lsrs	r0, r3, #18
   8ad7a:	307c      	adds	r0, #124	; 0x7c
   8ad7c:	e000      	b.n	8ad80 <_malloc_r+0x170>
   8ad7e:	207e      	movs	r0, #126	; 0x7e
   8ad80:	f8df e13c 	ldr.w	lr, [pc, #316]	; 8aec0 <_malloc_r+0x2b0>
   8ad84:	eb0e 07c0 	add.w	r7, lr, r0, lsl #3
   8ad88:	68b9      	ldr	r1, [r7, #8]
   8ad8a:	42b9      	cmp	r1, r7
   8ad8c:	d10e      	bne.n	8adac <_malloc_r+0x19c>
   8ad8e:	1087      	asrs	r7, r0, #2
   8ad90:	2301      	movs	r3, #1
   8ad92:	fa03 f007 	lsl.w	r0, r3, r7
   8ad96:	f8de 7004 	ldr.w	r7, [lr, #4]
   8ad9a:	ea40 0307 	orr.w	r3, r0, r7
   8ad9e:	f8ce 3004 	str.w	r3, [lr, #4]
   8ada2:	4608      	mov	r0, r1
   8ada4:	e008      	b.n	8adb8 <_malloc_r+0x1a8>
   8ada6:	6889      	ldr	r1, [r1, #8]
   8ada8:	42b9      	cmp	r1, r7
   8adaa:	d004      	beq.n	8adb6 <_malloc_r+0x1a6>
   8adac:	6848      	ldr	r0, [r1, #4]
   8adae:	f020 0003 	bic.w	r0, r0, #3
   8adb2:	4283      	cmp	r3, r0
   8adb4:	d3f7      	bcc.n	8ada6 <_malloc_r+0x196>
   8adb6:	68c8      	ldr	r0, [r1, #12]
   8adb8:	60e8      	str	r0, [r5, #12]
   8adba:	60a9      	str	r1, [r5, #8]
   8adbc:	60cd      	str	r5, [r1, #12]
   8adbe:	6085      	str	r5, [r0, #8]
   8adc0:	1095      	asrs	r5, r2, #2
   8adc2:	2001      	movs	r0, #1
   8adc4:	fa00 f305 	lsl.w	r3, r0, r5
   8adc8:	4f3d      	ldr	r7, [pc, #244]	; (8aec0 <_malloc_r+0x2b0>)
   8adca:	6879      	ldr	r1, [r7, #4]
   8adcc:	428b      	cmp	r3, r1
   8adce:	d85d      	bhi.n	8ae8c <_malloc_r+0x27c>
   8add0:	420b      	tst	r3, r1
   8add2:	d105      	bne.n	8ade0 <_malloc_r+0x1d0>
   8add4:	f022 0203 	bic.w	r2, r2, #3
   8add8:	005b      	lsls	r3, r3, #1
   8adda:	3204      	adds	r2, #4
   8addc:	420b      	tst	r3, r1
   8adde:	d0fb      	beq.n	8add8 <_malloc_r+0x1c8>
   8ade0:	4d37      	ldr	r5, [pc, #220]	; (8aec0 <_malloc_r+0x2b0>)
   8ade2:	4610      	mov	r0, r2
   8ade4:	eb05 0ec2 	add.w	lr, r5, r2, lsl #3
   8ade8:	4677      	mov	r7, lr
   8adea:	68fd      	ldr	r5, [r7, #12]
   8adec:	42bd      	cmp	r5, r7
   8adee:	d02d      	beq.n	8ae4c <_malloc_r+0x23c>
   8adf0:	6869      	ldr	r1, [r5, #4]
   8adf2:	f021 0c03 	bic.w	ip, r1, #3
   8adf6:	ebc4 010c 	rsb	r1, r4, ip
   8adfa:	290f      	cmp	r1, #15
   8adfc:	dd13      	ble.n	8ae26 <_malloc_r+0x216>
   8adfe:	192b      	adds	r3, r5, r4
   8ae00:	f044 0401 	orr.w	r4, r4, #1
   8ae04:	68ea      	ldr	r2, [r5, #12]
   8ae06:	606c      	str	r4, [r5, #4]
   8ae08:	f855 0f08 	ldr.w	r0, [r5, #8]!
   8ae0c:	5059      	str	r1, [r3, r1]
   8ae0e:	60c2      	str	r2, [r0, #12]
   8ae10:	6090      	str	r0, [r2, #8]
   8ae12:	4a2b      	ldr	r2, [pc, #172]	; (8aec0 <_malloc_r+0x2b0>)
   8ae14:	f041 0001 	orr.w	r0, r1, #1
   8ae18:	6153      	str	r3, [r2, #20]
   8ae1a:	6113      	str	r3, [r2, #16]
   8ae1c:	3208      	adds	r2, #8
   8ae1e:	60da      	str	r2, [r3, #12]
   8ae20:	609a      	str	r2, [r3, #8]
   8ae22:	6058      	str	r0, [r3, #4]
   8ae24:	e00c      	b.n	8ae40 <_malloc_r+0x230>
   8ae26:	2900      	cmp	r1, #0
   8ae28:	db0e      	blt.n	8ae48 <_malloc_r+0x238>
   8ae2a:	eb05 000c 	add.w	r0, r5, ip
   8ae2e:	6842      	ldr	r2, [r0, #4]
   8ae30:	68e9      	ldr	r1, [r5, #12]
   8ae32:	f042 0301 	orr.w	r3, r2, #1
   8ae36:	6043      	str	r3, [r0, #4]
   8ae38:	f855 0f08 	ldr.w	r0, [r5, #8]!
   8ae3c:	60c1      	str	r1, [r0, #12]
   8ae3e:	6088      	str	r0, [r1, #8]
   8ae40:	4630      	mov	r0, r6
   8ae42:	f000 f8f6 	bl	8b032 <__malloc_unlock>
   8ae46:	e0de      	b.n	8b006 <_malloc_r+0x3f6>
   8ae48:	68ed      	ldr	r5, [r5, #12]
   8ae4a:	e7cf      	b.n	8adec <_malloc_r+0x1dc>
   8ae4c:	3001      	adds	r0, #1
   8ae4e:	0781      	lsls	r1, r0, #30
   8ae50:	f105 0708 	add.w	r7, r5, #8
   8ae54:	d1c9      	bne.n	8adea <_malloc_r+0x1da>
   8ae56:	4671      	mov	r1, lr
   8ae58:	0795      	lsls	r5, r2, #30
   8ae5a:	d105      	bne.n	8ae68 <_malloc_r+0x258>
   8ae5c:	4a18      	ldr	r2, [pc, #96]	; (8aec0 <_malloc_r+0x2b0>)
   8ae5e:	6855      	ldr	r5, [r2, #4]
   8ae60:	ea25 0503 	bic.w	r5, r5, r3
   8ae64:	6055      	str	r5, [r2, #4]
   8ae66:	e005      	b.n	8ae74 <_malloc_r+0x264>
   8ae68:	f1a1 0708 	sub.w	r7, r1, #8
   8ae6c:	6809      	ldr	r1, [r1, #0]
   8ae6e:	3a01      	subs	r2, #1
   8ae70:	42b9      	cmp	r1, r7
   8ae72:	d0f1      	beq.n	8ae58 <_malloc_r+0x248>
   8ae74:	4f12      	ldr	r7, [pc, #72]	; (8aec0 <_malloc_r+0x2b0>)
   8ae76:	005b      	lsls	r3, r3, #1
   8ae78:	687f      	ldr	r7, [r7, #4]
   8ae7a:	42bb      	cmp	r3, r7
   8ae7c:	d806      	bhi.n	8ae8c <_malloc_r+0x27c>
   8ae7e:	b12b      	cbz	r3, 8ae8c <_malloc_r+0x27c>
   8ae80:	4602      	mov	r2, r0
   8ae82:	423b      	tst	r3, r7
   8ae84:	d1ac      	bne.n	8ade0 <_malloc_r+0x1d0>
   8ae86:	3204      	adds	r2, #4
   8ae88:	005b      	lsls	r3, r3, #1
   8ae8a:	e7fa      	b.n	8ae82 <_malloc_r+0x272>
   8ae8c:	4b0c      	ldr	r3, [pc, #48]	; (8aec0 <_malloc_r+0x2b0>)
   8ae8e:	689f      	ldr	r7, [r3, #8]
   8ae90:	4619      	mov	r1, r3
   8ae92:	6878      	ldr	r0, [r7, #4]
   8ae94:	f020 0903 	bic.w	r9, r0, #3
   8ae98:	45a1      	cmp	r9, r4
   8ae9a:	d304      	bcc.n	8aea6 <_malloc_r+0x296>
   8ae9c:	ebc4 0009 	rsb	r0, r4, r9
   8aea0:	280f      	cmp	r0, #15
   8aea2:	f300 80a2 	bgt.w	8afea <_malloc_r+0x3da>
   8aea6:	4a07      	ldr	r2, [pc, #28]	; (8aec4 <_malloc_r+0x2b4>)
   8aea8:	f8d1 3408 	ldr.w	r3, [r1, #1032]	; 0x408
   8aeac:	6815      	ldr	r5, [r2, #0]
   8aeae:	3301      	adds	r3, #1
   8aeb0:	eb07 0a09 	add.w	sl, r7, r9
   8aeb4:	eb04 0805 	add.w	r8, r4, r5
   8aeb8:	d106      	bne.n	8aec8 <_malloc_r+0x2b8>
   8aeba:	f108 0810 	add.w	r8, r8, #16
   8aebe:	e00b      	b.n	8aed8 <_malloc_r+0x2c8>
   8aec0:	200706d8 	.word	0x200706d8
   8aec4:	20071618 	.word	0x20071618
   8aec8:	f508 5080 	add.w	r0, r8, #4096	; 0x1000
   8aecc:	f100 010f 	add.w	r1, r0, #15
   8aed0:	f421 627f 	bic.w	r2, r1, #4080	; 0xff0
   8aed4:	f022 080f 	bic.w	r8, r2, #15
   8aed8:	4630      	mov	r0, r6
   8aeda:	4641      	mov	r1, r8
   8aedc:	f000 fa18 	bl	8b310 <_sbrk_r>
   8aee0:	1c42      	adds	r2, r0, #1
   8aee2:	4605      	mov	r5, r0
   8aee4:	d071      	beq.n	8afca <_malloc_r+0x3ba>
   8aee6:	4550      	cmp	r0, sl
   8aee8:	d202      	bcs.n	8aef0 <_malloc_r+0x2e0>
   8aeea:	4b48      	ldr	r3, [pc, #288]	; (8b00c <_malloc_r+0x3fc>)
   8aeec:	429f      	cmp	r7, r3
   8aeee:	d16c      	bne.n	8afca <_malloc_r+0x3ba>
   8aef0:	4847      	ldr	r0, [pc, #284]	; (8b010 <_malloc_r+0x400>)
   8aef2:	4555      	cmp	r5, sl
   8aef4:	6841      	ldr	r1, [r0, #4]
   8aef6:	4a45      	ldr	r2, [pc, #276]	; (8b00c <_malloc_r+0x3fc>)
   8aef8:	eb08 0301 	add.w	r3, r8, r1
   8aefc:	6043      	str	r3, [r0, #4]
   8aefe:	d107      	bne.n	8af10 <_malloc_r+0x300>
   8af00:	0529      	lsls	r1, r5, #20
   8af02:	d105      	bne.n	8af10 <_malloc_r+0x300>
   8af04:	6895      	ldr	r5, [r2, #8]
   8af06:	44c8      	add	r8, r9
   8af08:	f048 0001 	orr.w	r0, r8, #1
   8af0c:	6068      	str	r0, [r5, #4]
   8af0e:	e051      	b.n	8afb4 <_malloc_r+0x3a4>
   8af10:	f8d2 0408 	ldr.w	r0, [r2, #1032]	; 0x408
   8af14:	1c42      	adds	r2, r0, #1
   8af16:	d103      	bne.n	8af20 <_malloc_r+0x310>
   8af18:	4a3c      	ldr	r2, [pc, #240]	; (8b00c <_malloc_r+0x3fc>)
   8af1a:	f8c2 5408 	str.w	r5, [r2, #1032]	; 0x408
   8af1e:	e005      	b.n	8af2c <_malloc_r+0x31c>
   8af20:	ebca 0a05 	rsb	sl, sl, r5
   8af24:	eb03 010a 	add.w	r1, r3, sl
   8af28:	4b39      	ldr	r3, [pc, #228]	; (8b010 <_malloc_r+0x400>)
   8af2a:	6059      	str	r1, [r3, #4]
   8af2c:	f015 0007 	ands.w	r0, r5, #7
   8af30:	bf1c      	itt	ne
   8af32:	f1c0 0008 	rsbne	r0, r0, #8
   8af36:	182d      	addne	r5, r5, r0
   8af38:	eb05 0c08 	add.w	ip, r5, r8
   8af3c:	f500 5180 	add.w	r1, r0, #4096	; 0x1000
   8af40:	ea4f 5e0c 	mov.w	lr, ip, lsl #20
   8af44:	eba1 581e 	sub.w	r8, r1, lr, lsr #20
   8af48:	4641      	mov	r1, r8
   8af4a:	4630      	mov	r0, r6
   8af4c:	f000 f9e0 	bl	8b310 <_sbrk_r>
   8af50:	4a2f      	ldr	r2, [pc, #188]	; (8b010 <_malloc_r+0x400>)
   8af52:	1c43      	adds	r3, r0, #1
   8af54:	6853      	ldr	r3, [r2, #4]
   8af56:	bf08      	it	eq
   8af58:	f04f 0800 	moveq.w	r8, #0
   8af5c:	eb08 0103 	add.w	r1, r8, r3
   8af60:	bf08      	it	eq
   8af62:	4628      	moveq	r0, r5
   8af64:	6051      	str	r1, [r2, #4]
   8af66:	1b40      	subs	r0, r0, r5
   8af68:	4a28      	ldr	r2, [pc, #160]	; (8b00c <_malloc_r+0x3fc>)
   8af6a:	eb00 0308 	add.w	r3, r0, r8
   8af6e:	f043 0101 	orr.w	r1, r3, #1
   8af72:	4297      	cmp	r7, r2
   8af74:	6095      	str	r5, [r2, #8]
   8af76:	6069      	str	r1, [r5, #4]
   8af78:	d01c      	beq.n	8afb4 <_malloc_r+0x3a4>
   8af7a:	f1b9 0f0f 	cmp.w	r9, #15
   8af7e:	d802      	bhi.n	8af86 <_malloc_r+0x376>
   8af80:	2201      	movs	r2, #1
   8af82:	606a      	str	r2, [r5, #4]
   8af84:	e021      	b.n	8afca <_malloc_r+0x3ba>
   8af86:	687d      	ldr	r5, [r7, #4]
   8af88:	f1a9 090c 	sub.w	r9, r9, #12
   8af8c:	f029 0907 	bic.w	r9, r9, #7
   8af90:	f005 0201 	and.w	r2, r5, #1
   8af94:	2105      	movs	r1, #5
   8af96:	eb07 0309 	add.w	r3, r7, r9
   8af9a:	ea49 0002 	orr.w	r0, r9, r2
   8af9e:	f1b9 0f0f 	cmp.w	r9, #15
   8afa2:	6078      	str	r0, [r7, #4]
   8afa4:	6059      	str	r1, [r3, #4]
   8afa6:	6099      	str	r1, [r3, #8]
   8afa8:	d904      	bls.n	8afb4 <_malloc_r+0x3a4>
   8afaa:	4630      	mov	r0, r6
   8afac:	f107 0108 	add.w	r1, r7, #8
   8afb0:	f7ff fd78 	bl	8aaa4 <_free_r>
   8afb4:	4a16      	ldr	r2, [pc, #88]	; (8b010 <_malloc_r+0x400>)
   8afb6:	6853      	ldr	r3, [r2, #4]
   8afb8:	6ad1      	ldr	r1, [r2, #44]	; 0x2c
   8afba:	6b15      	ldr	r5, [r2, #48]	; 0x30
   8afbc:	428b      	cmp	r3, r1
   8afbe:	bf88      	it	hi
   8afc0:	62d3      	strhi	r3, [r2, #44]	; 0x2c
   8afc2:	42ab      	cmp	r3, r5
   8afc4:	bf84      	itt	hi
   8afc6:	4d12      	ldrhi	r5, [pc, #72]	; (8b010 <_malloc_r+0x400>)
   8afc8:	632b      	strhi	r3, [r5, #48]	; 0x30
   8afca:	4810      	ldr	r0, [pc, #64]	; (8b00c <_malloc_r+0x3fc>)
   8afcc:	6882      	ldr	r2, [r0, #8]
   8afce:	6853      	ldr	r3, [r2, #4]
   8afd0:	f023 0103 	bic.w	r1, r3, #3
   8afd4:	42a1      	cmp	r1, r4
   8afd6:	ebc4 0001 	rsb	r0, r4, r1
   8afda:	d301      	bcc.n	8afe0 <_malloc_r+0x3d0>
   8afdc:	280f      	cmp	r0, #15
   8afde:	dc04      	bgt.n	8afea <_malloc_r+0x3da>
   8afe0:	4630      	mov	r0, r6
   8afe2:	f000 f826 	bl	8b032 <__malloc_unlock>
   8afe6:	2500      	movs	r5, #0
   8afe8:	e00d      	b.n	8b006 <_malloc_r+0x3f6>
   8afea:	4a08      	ldr	r2, [pc, #32]	; (8b00c <_malloc_r+0x3fc>)
   8afec:	f044 0301 	orr.w	r3, r4, #1
   8aff0:	6895      	ldr	r5, [r2, #8]
   8aff2:	f040 0101 	orr.w	r1, r0, #1
   8aff6:	192c      	adds	r4, r5, r4
   8aff8:	606b      	str	r3, [r5, #4]
   8affa:	6094      	str	r4, [r2, #8]
   8affc:	6061      	str	r1, [r4, #4]
   8affe:	4630      	mov	r0, r6
   8b000:	f000 f817 	bl	8b032 <__malloc_unlock>
   8b004:	3508      	adds	r5, #8
   8b006:	4628      	mov	r0, r5
   8b008:	e8bd 87f0 	ldmia.w	sp!, {r4, r5, r6, r7, r8, r9, sl, pc}
   8b00c:	200706d8 	.word	0x200706d8
   8b010:	20071618 	.word	0x20071618

0008b014 <memchr>:
   8b014:	b510      	push	{r4, lr}
   8b016:	b2c9      	uxtb	r1, r1
   8b018:	4603      	mov	r3, r0
   8b01a:	1882      	adds	r2, r0, r2
   8b01c:	4293      	cmp	r3, r2
   8b01e:	4618      	mov	r0, r3
   8b020:	d004      	beq.n	8b02c <memchr+0x18>
   8b022:	7804      	ldrb	r4, [r0, #0]
   8b024:	3301      	adds	r3, #1
   8b026:	428c      	cmp	r4, r1
   8b028:	d1f8      	bne.n	8b01c <memchr+0x8>
   8b02a:	e000      	b.n	8b02e <memchr+0x1a>
   8b02c:	2000      	movs	r0, #0
   8b02e:	bd10      	pop	{r4, pc}

0008b030 <__malloc_lock>:
   8b030:	4770      	bx	lr

0008b032 <__malloc_unlock>:
   8b032:	4770      	bx	lr

0008b034 <_realloc_r>:
   8b034:	e92d 4ff8 	stmdb	sp!, {r3, r4, r5, r6, r7, r8, r9, sl, fp, lr}
   8b038:	4681      	mov	r9, r0
   8b03a:	4616      	mov	r6, r2
   8b03c:	460c      	mov	r4, r1
   8b03e:	b921      	cbnz	r1, 8b04a <_realloc_r+0x16>
   8b040:	4611      	mov	r1, r2
   8b042:	e8bd 4ff8 	ldmia.w	sp!, {r3, r4, r5, r6, r7, r8, r9, sl, fp, lr}
   8b046:	f7ff bde3 	b.w	8ac10 <_malloc_r>
   8b04a:	f7ff fff1 	bl	8b030 <__malloc_lock>
   8b04e:	f106 070b 	add.w	r7, r6, #11
   8b052:	f854 5c04 	ldr.w	r5, [r4, #-4]
   8b056:	2f16      	cmp	r7, #22
   8b058:	f1a4 0b08 	sub.w	fp, r4, #8
   8b05c:	f025 0803 	bic.w	r8, r5, #3
   8b060:	d903      	bls.n	8b06a <_realloc_r+0x36>
   8b062:	f037 0707 	bics.w	r7, r7, #7
   8b066:	d501      	bpl.n	8b06c <_realloc_r+0x38>
   8b068:	e002      	b.n	8b070 <_realloc_r+0x3c>
   8b06a:	2710      	movs	r7, #16
   8b06c:	42b7      	cmp	r7, r6
   8b06e:	d204      	bcs.n	8b07a <_realloc_r+0x46>
   8b070:	200c      	movs	r0, #12
   8b072:	f8c9 0000 	str.w	r0, [r9]
   8b076:	2600      	movs	r6, #0
   8b078:	e145      	b.n	8b306 <_realloc_r+0x2d2>
   8b07a:	45b8      	cmp	r8, r7
   8b07c:	f280 811a 	bge.w	8b2b4 <_realloc_r+0x280>
   8b080:	4aa2      	ldr	r2, [pc, #648]	; (8b30c <_realloc_r+0x2d8>)
   8b082:	eb0b 0308 	add.w	r3, fp, r8
   8b086:	6891      	ldr	r1, [r2, #8]
   8b088:	428b      	cmp	r3, r1
   8b08a:	d006      	beq.n	8b09a <_realloc_r+0x66>
   8b08c:	6858      	ldr	r0, [r3, #4]
   8b08e:	f020 0201 	bic.w	r2, r0, #1
   8b092:	1898      	adds	r0, r3, r2
   8b094:	6842      	ldr	r2, [r0, #4]
   8b096:	07d0      	lsls	r0, r2, #31
   8b098:	d426      	bmi.n	8b0e8 <_realloc_r+0xb4>
   8b09a:	685a      	ldr	r2, [r3, #4]
   8b09c:	428b      	cmp	r3, r1
   8b09e:	f022 0003 	bic.w	r0, r2, #3
   8b0a2:	eb00 0a08 	add.w	sl, r0, r8
   8b0a6:	d118      	bne.n	8b0da <_realloc_r+0xa6>
   8b0a8:	f107 0210 	add.w	r2, r7, #16
   8b0ac:	4592      	cmp	sl, r2
   8b0ae:	db1d      	blt.n	8b0ec <_realloc_r+0xb8>
   8b0b0:	ebc7 0a0a 	rsb	sl, r7, sl
   8b0b4:	eb0b 0507 	add.w	r5, fp, r7
   8b0b8:	f04a 0101 	orr.w	r1, sl, #1
   8b0bc:	6069      	str	r1, [r5, #4]
   8b0be:	f854 2c04 	ldr.w	r2, [r4, #-4]
   8b0c2:	4e92      	ldr	r6, [pc, #584]	; (8b30c <_realloc_r+0x2d8>)
   8b0c4:	f002 0301 	and.w	r3, r2, #1
   8b0c8:	431f      	orrs	r7, r3
   8b0ca:	60b5      	str	r5, [r6, #8]
   8b0cc:	f844 7c04 	str.w	r7, [r4, #-4]
   8b0d0:	4648      	mov	r0, r9
   8b0d2:	f7ff ffae 	bl	8b032 <__malloc_unlock>
   8b0d6:	4626      	mov	r6, r4
   8b0d8:	e115      	b.n	8b306 <_realloc_r+0x2d2>
   8b0da:	45ba      	cmp	sl, r7
   8b0dc:	db06      	blt.n	8b0ec <_realloc_r+0xb8>
   8b0de:	68dd      	ldr	r5, [r3, #12]
   8b0e0:	689e      	ldr	r6, [r3, #8]
   8b0e2:	60f5      	str	r5, [r6, #12]
   8b0e4:	60ae      	str	r6, [r5, #8]
   8b0e6:	e0e6      	b.n	8b2b6 <_realloc_r+0x282>
   8b0e8:	2000      	movs	r0, #0
   8b0ea:	4603      	mov	r3, r0
   8b0ec:	07ea      	lsls	r2, r5, #31
   8b0ee:	f100 8091 	bmi.w	8b214 <_realloc_r+0x1e0>
   8b0f2:	f854 5c08 	ldr.w	r5, [r4, #-8]
   8b0f6:	ebc5 050b 	rsb	r5, r5, fp
   8b0fa:	686a      	ldr	r2, [r5, #4]
   8b0fc:	f022 0203 	bic.w	r2, r2, #3
   8b100:	2b00      	cmp	r3, #0
   8b102:	d051      	beq.n	8b1a8 <_realloc_r+0x174>
   8b104:	eb02 0a08 	add.w	sl, r2, r8
   8b108:	428b      	cmp	r3, r1
   8b10a:	4482      	add	sl, r0
   8b10c:	d145      	bne.n	8b19a <_realloc_r+0x166>
   8b10e:	f107 0310 	add.w	r3, r7, #16
   8b112:	459a      	cmp	sl, r3
   8b114:	db48      	blt.n	8b1a8 <_realloc_r+0x174>
   8b116:	462e      	mov	r6, r5
   8b118:	68e9      	ldr	r1, [r5, #12]
   8b11a:	f856 3f08 	ldr.w	r3, [r6, #8]!
   8b11e:	f1a8 0204 	sub.w	r2, r8, #4
   8b122:	2a24      	cmp	r2, #36	; 0x24
   8b124:	60d9      	str	r1, [r3, #12]
   8b126:	608b      	str	r3, [r1, #8]
   8b128:	d825      	bhi.n	8b176 <_realloc_r+0x142>
   8b12a:	2a13      	cmp	r2, #19
   8b12c:	d91b      	bls.n	8b166 <_realloc_r+0x132>
   8b12e:	6821      	ldr	r1, [r4, #0]
   8b130:	2a1b      	cmp	r2, #27
   8b132:	60a9      	str	r1, [r5, #8]
   8b134:	6863      	ldr	r3, [r4, #4]
   8b136:	60eb      	str	r3, [r5, #12]
   8b138:	d803      	bhi.n	8b142 <_realloc_r+0x10e>
   8b13a:	f105 0010 	add.w	r0, r5, #16
   8b13e:	3408      	adds	r4, #8
   8b140:	e012      	b.n	8b168 <_realloc_r+0x134>
   8b142:	68a0      	ldr	r0, [r4, #8]
   8b144:	2a24      	cmp	r2, #36	; 0x24
   8b146:	6128      	str	r0, [r5, #16]
   8b148:	68e1      	ldr	r1, [r4, #12]
   8b14a:	6169      	str	r1, [r5, #20]
   8b14c:	d003      	beq.n	8b156 <_realloc_r+0x122>
   8b14e:	f105 0018 	add.w	r0, r5, #24
   8b152:	3410      	adds	r4, #16
   8b154:	e008      	b.n	8b168 <_realloc_r+0x134>
   8b156:	6922      	ldr	r2, [r4, #16]
   8b158:	f105 0020 	add.w	r0, r5, #32
   8b15c:	61aa      	str	r2, [r5, #24]
   8b15e:	6963      	ldr	r3, [r4, #20]
   8b160:	3418      	adds	r4, #24
   8b162:	61eb      	str	r3, [r5, #28]
   8b164:	e000      	b.n	8b168 <_realloc_r+0x134>
   8b166:	4630      	mov	r0, r6
   8b168:	6821      	ldr	r1, [r4, #0]
   8b16a:	6001      	str	r1, [r0, #0]
   8b16c:	6862      	ldr	r2, [r4, #4]
   8b16e:	6042      	str	r2, [r0, #4]
   8b170:	68a3      	ldr	r3, [r4, #8]
   8b172:	6083      	str	r3, [r0, #8]
   8b174:	e003      	b.n	8b17e <_realloc_r+0x14a>
   8b176:	4630      	mov	r0, r6
   8b178:	4621      	mov	r1, r4
   8b17a:	f7fe feda 	bl	89f32 <memmove>
   8b17e:	ebc7 0a0a 	rsb	sl, r7, sl
   8b182:	19e8      	adds	r0, r5, r7
   8b184:	f04a 0201 	orr.w	r2, sl, #1
   8b188:	6042      	str	r2, [r0, #4]
   8b18a:	686b      	ldr	r3, [r5, #4]
   8b18c:	495f      	ldr	r1, [pc, #380]	; (8b30c <_realloc_r+0x2d8>)
   8b18e:	6088      	str	r0, [r1, #8]
   8b190:	f003 0001 	and.w	r0, r3, #1
   8b194:	4307      	orrs	r7, r0
   8b196:	606f      	str	r7, [r5, #4]
   8b198:	e088      	b.n	8b2ac <_realloc_r+0x278>
   8b19a:	45ba      	cmp	sl, r7
   8b19c:	db04      	blt.n	8b1a8 <_realloc_r+0x174>
   8b19e:	68d9      	ldr	r1, [r3, #12]
   8b1a0:	6898      	ldr	r0, [r3, #8]
   8b1a2:	60c1      	str	r1, [r0, #12]
   8b1a4:	6088      	str	r0, [r1, #8]
   8b1a6:	e003      	b.n	8b1b0 <_realloc_r+0x17c>
   8b1a8:	eb02 0a08 	add.w	sl, r2, r8
   8b1ac:	45ba      	cmp	sl, r7
   8b1ae:	db31      	blt.n	8b214 <_realloc_r+0x1e0>
   8b1b0:	4628      	mov	r0, r5
   8b1b2:	68eb      	ldr	r3, [r5, #12]
   8b1b4:	f850 1f08 	ldr.w	r1, [r0, #8]!
   8b1b8:	f1a8 0204 	sub.w	r2, r8, #4
   8b1bc:	2a24      	cmp	r2, #36	; 0x24
   8b1be:	60cb      	str	r3, [r1, #12]
   8b1c0:	6099      	str	r1, [r3, #8]
   8b1c2:	d823      	bhi.n	8b20c <_realloc_r+0x1d8>
   8b1c4:	2a13      	cmp	r2, #19
   8b1c6:	d91a      	bls.n	8b1fe <_realloc_r+0x1ca>
   8b1c8:	6820      	ldr	r0, [r4, #0]
   8b1ca:	2a1b      	cmp	r2, #27
   8b1cc:	60a8      	str	r0, [r5, #8]
   8b1ce:	6866      	ldr	r6, [r4, #4]
   8b1d0:	60ee      	str	r6, [r5, #12]
   8b1d2:	d803      	bhi.n	8b1dc <_realloc_r+0x1a8>
   8b1d4:	f105 0010 	add.w	r0, r5, #16
   8b1d8:	3408      	adds	r4, #8
   8b1da:	e010      	b.n	8b1fe <_realloc_r+0x1ca>
   8b1dc:	68a3      	ldr	r3, [r4, #8]
   8b1de:	2a24      	cmp	r2, #36	; 0x24
   8b1e0:	612b      	str	r3, [r5, #16]
   8b1e2:	68e1      	ldr	r1, [r4, #12]
   8b1e4:	6169      	str	r1, [r5, #20]
   8b1e6:	d003      	beq.n	8b1f0 <_realloc_r+0x1bc>
   8b1e8:	f105 0018 	add.w	r0, r5, #24
   8b1ec:	3410      	adds	r4, #16
   8b1ee:	e006      	b.n	8b1fe <_realloc_r+0x1ca>
   8b1f0:	6922      	ldr	r2, [r4, #16]
   8b1f2:	61aa      	str	r2, [r5, #24]
   8b1f4:	6960      	ldr	r0, [r4, #20]
   8b1f6:	3418      	adds	r4, #24
   8b1f8:	61e8      	str	r0, [r5, #28]
   8b1fa:	f105 0020 	add.w	r0, r5, #32
   8b1fe:	6826      	ldr	r6, [r4, #0]
   8b200:	6006      	str	r6, [r0, #0]
   8b202:	6863      	ldr	r3, [r4, #4]
   8b204:	6043      	str	r3, [r0, #4]
   8b206:	68a1      	ldr	r1, [r4, #8]
   8b208:	6081      	str	r1, [r0, #8]
   8b20a:	e055      	b.n	8b2b8 <_realloc_r+0x284>
   8b20c:	4621      	mov	r1, r4
   8b20e:	f7fe fe90 	bl	89f32 <memmove>
   8b212:	e051      	b.n	8b2b8 <_realloc_r+0x284>
   8b214:	4631      	mov	r1, r6
   8b216:	4648      	mov	r0, r9
   8b218:	f7ff fcfa 	bl	8ac10 <_malloc_r>
   8b21c:	4606      	mov	r6, r0
   8b21e:	2800      	cmp	r0, #0
   8b220:	d044      	beq.n	8b2ac <_realloc_r+0x278>
   8b222:	f854 1c04 	ldr.w	r1, [r4, #-4]
   8b226:	f1a0 0208 	sub.w	r2, r0, #8
   8b22a:	f021 0301 	bic.w	r3, r1, #1
   8b22e:	eb0b 0103 	add.w	r1, fp, r3
   8b232:	428a      	cmp	r2, r1
   8b234:	d106      	bne.n	8b244 <_realloc_r+0x210>
   8b236:	f850 6c04 	ldr.w	r6, [r0, #-4]
   8b23a:	f026 0503 	bic.w	r5, r6, #3
   8b23e:	eb05 0a08 	add.w	sl, r5, r8
   8b242:	e038      	b.n	8b2b6 <_realloc_r+0x282>
   8b244:	f1a8 0204 	sub.w	r2, r8, #4
   8b248:	2a24      	cmp	r2, #36	; 0x24
   8b24a:	d828      	bhi.n	8b29e <_realloc_r+0x26a>
   8b24c:	2a13      	cmp	r2, #19
   8b24e:	d91e      	bls.n	8b28e <_realloc_r+0x25a>
   8b250:	6823      	ldr	r3, [r4, #0]
   8b252:	2a1b      	cmp	r2, #27
   8b254:	6003      	str	r3, [r0, #0]
   8b256:	6861      	ldr	r1, [r4, #4]
   8b258:	6041      	str	r1, [r0, #4]
   8b25a:	d804      	bhi.n	8b266 <_realloc_r+0x232>
   8b25c:	f100 0008 	add.w	r0, r0, #8
   8b260:	f104 0208 	add.w	r2, r4, #8
   8b264:	e014      	b.n	8b290 <_realloc_r+0x25c>
   8b266:	68a0      	ldr	r0, [r4, #8]
   8b268:	2a24      	cmp	r2, #36	; 0x24
   8b26a:	60b0      	str	r0, [r6, #8]
   8b26c:	68e3      	ldr	r3, [r4, #12]
   8b26e:	60f3      	str	r3, [r6, #12]
   8b270:	d004      	beq.n	8b27c <_realloc_r+0x248>
   8b272:	f106 0010 	add.w	r0, r6, #16
   8b276:	f104 0210 	add.w	r2, r4, #16
   8b27a:	e009      	b.n	8b290 <_realloc_r+0x25c>
   8b27c:	6922      	ldr	r2, [r4, #16]
   8b27e:	f106 0018 	add.w	r0, r6, #24
   8b282:	6132      	str	r2, [r6, #16]
   8b284:	6961      	ldr	r1, [r4, #20]
   8b286:	f104 0218 	add.w	r2, r4, #24
   8b28a:	6171      	str	r1, [r6, #20]
   8b28c:	e000      	b.n	8b290 <_realloc_r+0x25c>
   8b28e:	4622      	mov	r2, r4
   8b290:	6813      	ldr	r3, [r2, #0]
   8b292:	6003      	str	r3, [r0, #0]
   8b294:	6851      	ldr	r1, [r2, #4]
   8b296:	6041      	str	r1, [r0, #4]
   8b298:	6892      	ldr	r2, [r2, #8]
   8b29a:	6082      	str	r2, [r0, #8]
   8b29c:	e002      	b.n	8b2a4 <_realloc_r+0x270>
   8b29e:	4621      	mov	r1, r4
   8b2a0:	f7fe fe47 	bl	89f32 <memmove>
   8b2a4:	4648      	mov	r0, r9
   8b2a6:	4621      	mov	r1, r4
   8b2a8:	f7ff fbfc 	bl	8aaa4 <_free_r>
   8b2ac:	4648      	mov	r0, r9
   8b2ae:	f7ff fec0 	bl	8b032 <__malloc_unlock>
   8b2b2:	e028      	b.n	8b306 <_realloc_r+0x2d2>
   8b2b4:	46c2      	mov	sl, r8
   8b2b6:	465d      	mov	r5, fp
   8b2b8:	ebc7 000a 	rsb	r0, r7, sl
   8b2bc:	280f      	cmp	r0, #15
   8b2be:	686a      	ldr	r2, [r5, #4]
   8b2c0:	d911      	bls.n	8b2e6 <_realloc_r+0x2b2>
   8b2c2:	f002 0601 	and.w	r6, r2, #1
   8b2c6:	19e9      	adds	r1, r5, r7
   8b2c8:	f040 0301 	orr.w	r3, r0, #1
   8b2cc:	4337      	orrs	r7, r6
   8b2ce:	606f      	str	r7, [r5, #4]
   8b2d0:	1808      	adds	r0, r1, r0
   8b2d2:	604b      	str	r3, [r1, #4]
   8b2d4:	6842      	ldr	r2, [r0, #4]
   8b2d6:	3108      	adds	r1, #8
   8b2d8:	f042 0601 	orr.w	r6, r2, #1
   8b2dc:	6046      	str	r6, [r0, #4]
   8b2de:	4648      	mov	r0, r9
   8b2e0:	f7ff fbe0 	bl	8aaa4 <_free_r>
   8b2e4:	e00a      	b.n	8b2fc <_realloc_r+0x2c8>
   8b2e6:	f002 0601 	and.w	r6, r2, #1
   8b2ea:	ea4a 0306 	orr.w	r3, sl, r6
   8b2ee:	606b      	str	r3, [r5, #4]
   8b2f0:	eb05 010a 	add.w	r1, r5, sl
   8b2f4:	6848      	ldr	r0, [r1, #4]
   8b2f6:	f040 0201 	orr.w	r2, r0, #1
   8b2fa:	604a      	str	r2, [r1, #4]
   8b2fc:	4648      	mov	r0, r9
   8b2fe:	f7ff fe98 	bl	8b032 <__malloc_unlock>
   8b302:	f105 0608 	add.w	r6, r5, #8
   8b306:	4630      	mov	r0, r6
   8b308:	e8bd 8ff8 	ldmia.w	sp!, {r3, r4, r5, r6, r7, r8, r9, sl, fp, pc}
   8b30c:	200706d8 	.word	0x200706d8

0008b310 <_sbrk_r>:
   8b310:	b538      	push	{r3, r4, r5, lr}
   8b312:	4c06      	ldr	r4, [pc, #24]	; (8b32c <_sbrk_r+0x1c>)
   8b314:	2300      	movs	r3, #0
   8b316:	4605      	mov	r5, r0
   8b318:	4608      	mov	r0, r1
   8b31a:	6023      	str	r3, [r4, #0]
   8b31c:	f7fe fa88 	bl	89830 <_sbrk>
   8b320:	1c43      	adds	r3, r0, #1
   8b322:	d102      	bne.n	8b32a <_sbrk_r+0x1a>
   8b324:	6821      	ldr	r1, [r4, #0]
   8b326:	b101      	cbz	r1, 8b32a <_sbrk_r+0x1a>
   8b328:	6029      	str	r1, [r5, #0]
   8b32a:	bd38      	pop	{r3, r4, r5, pc}
   8b32c:	20071c30 	.word	0x20071c30

0008b330 <__ssprint_r>:
   8b330:	e92d 4ff7 	stmdb	sp!, {r0, r1, r2, r4, r5, r6, r7, r8, r9, sl, fp, lr}
   8b334:	4607      	mov	r7, r0
   8b336:	6890      	ldr	r0, [r2, #8]
   8b338:	460c      	mov	r4, r1
   8b33a:	4615      	mov	r5, r2
   8b33c:	f8d2 8000 	ldr.w	r8, [r2]
   8b340:	b908      	cbnz	r0, 8b346 <__ssprint_r+0x16>
   8b342:	6050      	str	r0, [r2, #4]
   8b344:	e06f      	b.n	8b426 <__ssprint_r+0xf6>
   8b346:	f04f 0b00 	mov.w	fp, #0
   8b34a:	465e      	mov	r6, fp
   8b34c:	b936      	cbnz	r6, 8b35c <__ssprint_r+0x2c>
   8b34e:	f8d8 b000 	ldr.w	fp, [r8]
   8b352:	f8d8 6004 	ldr.w	r6, [r8, #4]
   8b356:	f108 0808 	add.w	r8, r8, #8
   8b35a:	e7f7      	b.n	8b34c <__ssprint_r+0x1c>
   8b35c:	68a3      	ldr	r3, [r4, #8]
   8b35e:	429e      	cmp	r6, r3
   8b360:	d34c      	bcc.n	8b3fc <__ssprint_r+0xcc>
   8b362:	89a2      	ldrh	r2, [r4, #12]
   8b364:	f412 6f90 	tst.w	r2, #1152	; 0x480
   8b368:	d046      	beq.n	8b3f8 <__ssprint_r+0xc8>
   8b36a:	6823      	ldr	r3, [r4, #0]
   8b36c:	6960      	ldr	r0, [r4, #20]
   8b36e:	6921      	ldr	r1, [r4, #16]
   8b370:	f04f 0a03 	mov.w	sl, #3
   8b374:	ebc1 0903 	rsb	r9, r1, r3
   8b378:	fb0a f300 	mul.w	r3, sl, r0
   8b37c:	2002      	movs	r0, #2
   8b37e:	fb93 faf0 	sdiv	sl, r3, r0
   8b382:	f402 6280 	and.w	r2, r2, #1024	; 0x400
   8b386:	f109 0301 	add.w	r3, r9, #1
   8b38a:	1998      	adds	r0, r3, r6
   8b38c:	b213      	sxth	r3, r2
   8b38e:	4582      	cmp	sl, r0
   8b390:	bf38      	it	cc
   8b392:	4682      	movcc	sl, r0
   8b394:	4638      	mov	r0, r7
   8b396:	b183      	cbz	r3, 8b3ba <__ssprint_r+0x8a>
   8b398:	4651      	mov	r1, sl
   8b39a:	f7ff fc39 	bl	8ac10 <_malloc_r>
   8b39e:	b1a8      	cbz	r0, 8b3cc <__ssprint_r+0x9c>
   8b3a0:	6921      	ldr	r1, [r4, #16]
   8b3a2:	464a      	mov	r2, r9
   8b3a4:	9001      	str	r0, [sp, #4]
   8b3a6:	f7fe fdbb 	bl	89f20 <memcpy>
   8b3aa:	89a0      	ldrh	r0, [r4, #12]
   8b3ac:	f420 6290 	bic.w	r2, r0, #1152	; 0x480
   8b3b0:	f042 0180 	orr.w	r1, r2, #128	; 0x80
   8b3b4:	81a1      	strh	r1, [r4, #12]
   8b3b6:	9901      	ldr	r1, [sp, #4]
   8b3b8:	e014      	b.n	8b3e4 <__ssprint_r+0xb4>
   8b3ba:	4652      	mov	r2, sl
   8b3bc:	f7ff fe3a 	bl	8b034 <_realloc_r>
   8b3c0:	4601      	mov	r1, r0
   8b3c2:	b978      	cbnz	r0, 8b3e4 <__ssprint_r+0xb4>
   8b3c4:	4638      	mov	r0, r7
   8b3c6:	6921      	ldr	r1, [r4, #16]
   8b3c8:	f7ff fb6c 	bl	8aaa4 <_free_r>
   8b3cc:	89a3      	ldrh	r3, [r4, #12]
   8b3ce:	200c      	movs	r0, #12
   8b3d0:	2100      	movs	r1, #0
   8b3d2:	f043 0240 	orr.w	r2, r3, #64	; 0x40
   8b3d6:	6038      	str	r0, [r7, #0]
   8b3d8:	81a2      	strh	r2, [r4, #12]
   8b3da:	f04f 30ff 	mov.w	r0, #4294967295
   8b3de:	60a9      	str	r1, [r5, #8]
   8b3e0:	6069      	str	r1, [r5, #4]
   8b3e2:	e020      	b.n	8b426 <__ssprint_r+0xf6>
   8b3e4:	eb01 0309 	add.w	r3, r1, r9
   8b3e8:	ebc9 000a 	rsb	r0, r9, sl
   8b3ec:	6023      	str	r3, [r4, #0]
   8b3ee:	6121      	str	r1, [r4, #16]
   8b3f0:	f8c4 a014 	str.w	sl, [r4, #20]
   8b3f4:	4633      	mov	r3, r6
   8b3f6:	60a0      	str	r0, [r4, #8]
   8b3f8:	429e      	cmp	r6, r3
   8b3fa:	d200      	bcs.n	8b3fe <__ssprint_r+0xce>
   8b3fc:	4633      	mov	r3, r6
   8b3fe:	461a      	mov	r2, r3
   8b400:	4659      	mov	r1, fp
   8b402:	6820      	ldr	r0, [r4, #0]
   8b404:	9301      	str	r3, [sp, #4]
   8b406:	f7fe fd94 	bl	89f32 <memmove>
   8b40a:	68a2      	ldr	r2, [r4, #8]
   8b40c:	9901      	ldr	r1, [sp, #4]
   8b40e:	6823      	ldr	r3, [r4, #0]
   8b410:	1a50      	subs	r0, r2, r1
   8b412:	185a      	adds	r2, r3, r1
   8b414:	68a9      	ldr	r1, [r5, #8]
   8b416:	60a0      	str	r0, [r4, #8]
   8b418:	1b8e      	subs	r6, r1, r6
   8b41a:	6022      	str	r2, [r4, #0]
   8b41c:	60ae      	str	r6, [r5, #8]
   8b41e:	2e00      	cmp	r6, #0
   8b420:	d195      	bne.n	8b34e <__ssprint_r+0x1e>
   8b422:	606e      	str	r6, [r5, #4]
   8b424:	4630      	mov	r0, r6
   8b426:	e8bd 8ffe 	ldmia.w	sp!, {r1, r2, r3, r4, r5, r6, r7, r8, r9, sl, fp, pc}

0008b42a <_svfiprintf_r>:
   8b42a:	e92d 4ff0 	stmdb	sp!, {r4, r5, r6, r7, r8, r9, sl, fp, lr}
   8b42e:	461e      	mov	r6, r3
   8b430:	898b      	ldrh	r3, [r1, #12]
   8b432:	4689      	mov	r9, r1
   8b434:	f003 0180 	and.w	r1, r3, #128	; 0x80
   8b438:	4614      	mov	r4, r2
   8b43a:	b20a      	sxth	r2, r1
   8b43c:	b0a9      	sub	sp, #164	; 0xa4
   8b43e:	4683      	mov	fp, r0
   8b440:	b19a      	cbz	r2, 8b46a <_svfiprintf_r+0x40>
   8b442:	f8d9 3010 	ldr.w	r3, [r9, #16]
   8b446:	b983      	cbnz	r3, 8b46a <_svfiprintf_r+0x40>
   8b448:	2140      	movs	r1, #64	; 0x40
   8b44a:	f7ff fbe1 	bl	8ac10 <_malloc_r>
   8b44e:	f8c9 0000 	str.w	r0, [r9]
   8b452:	f8c9 0010 	str.w	r0, [r9, #16]
   8b456:	b928      	cbnz	r0, 8b464 <_svfiprintf_r+0x3a>
   8b458:	220c      	movs	r2, #12
   8b45a:	f8cb 2000 	str.w	r2, [fp]
   8b45e:	f04f 30ff 	mov.w	r0, #4294967295
   8b462:	e3db      	b.n	8bc1c <_svfiprintf_r+0x7f2>
   8b464:	2040      	movs	r0, #64	; 0x40
   8b466:	f8c9 0014 	str.w	r0, [r9, #20]
   8b46a:	2100      	movs	r1, #0
   8b46c:	ad18      	add	r5, sp, #96	; 0x60
   8b46e:	950b      	str	r5, [sp, #44]	; 0x2c
   8b470:	910d      	str	r1, [sp, #52]	; 0x34
   8b472:	910c      	str	r1, [sp, #48]	; 0x30
   8b474:	9401      	str	r4, [sp, #4]
   8b476:	9105      	str	r1, [sp, #20]
   8b478:	9104      	str	r1, [sp, #16]
   8b47a:	46a8      	mov	r8, r5
   8b47c:	9b01      	ldr	r3, [sp, #4]
   8b47e:	461c      	mov	r4, r3
   8b480:	f813 2b01 	ldrb.w	r2, [r3], #1
   8b484:	b91a      	cbnz	r2, 8b48e <_svfiprintf_r+0x64>
   8b486:	9801      	ldr	r0, [sp, #4]
   8b488:	1a25      	subs	r5, r4, r0
   8b48a:	d103      	bne.n	8b494 <_svfiprintf_r+0x6a>
   8b48c:	e01d      	b.n	8b4ca <_svfiprintf_r+0xa0>
   8b48e:	2a25      	cmp	r2, #37	; 0x25
   8b490:	d1f5      	bne.n	8b47e <_svfiprintf_r+0x54>
   8b492:	e7f8      	b.n	8b486 <_svfiprintf_r+0x5c>
   8b494:	9a01      	ldr	r2, [sp, #4]
   8b496:	990d      	ldr	r1, [sp, #52]	; 0x34
   8b498:	e888 0024 	stmia.w	r8, {r2, r5}
   8b49c:	9a0c      	ldr	r2, [sp, #48]	; 0x30
   8b49e:	194b      	adds	r3, r1, r5
   8b4a0:	1c50      	adds	r0, r2, #1
   8b4a2:	2807      	cmp	r0, #7
   8b4a4:	930d      	str	r3, [sp, #52]	; 0x34
   8b4a6:	900c      	str	r0, [sp, #48]	; 0x30
   8b4a8:	dc02      	bgt.n	8b4b0 <_svfiprintf_r+0x86>
   8b4aa:	f108 0808 	add.w	r8, r8, #8
   8b4ae:	e009      	b.n	8b4c4 <_svfiprintf_r+0x9a>
   8b4b0:	4658      	mov	r0, fp
   8b4b2:	4649      	mov	r1, r9
   8b4b4:	aa0b      	add	r2, sp, #44	; 0x2c
   8b4b6:	f7ff ff3b 	bl	8b330 <__ssprint_r>
   8b4ba:	2800      	cmp	r0, #0
   8b4bc:	f040 83a3 	bne.w	8bc06 <_svfiprintf_r+0x7dc>
   8b4c0:	f10d 0860 	add.w	r8, sp, #96	; 0x60
   8b4c4:	9904      	ldr	r1, [sp, #16]
   8b4c6:	194b      	adds	r3, r1, r5
   8b4c8:	9304      	str	r3, [sp, #16]
   8b4ca:	7822      	ldrb	r2, [r4, #0]
   8b4cc:	2a00      	cmp	r2, #0
   8b4ce:	f000 8393 	beq.w	8bbf8 <_svfiprintf_r+0x7ce>
   8b4d2:	2200      	movs	r2, #0
   8b4d4:	3401      	adds	r4, #1
   8b4d6:	9401      	str	r4, [sp, #4]
   8b4d8:	f88d 2027 	strb.w	r2, [sp, #39]	; 0x27
   8b4dc:	f04f 3cff 	mov.w	ip, #4294967295
   8b4e0:	9203      	str	r2, [sp, #12]
   8b4e2:	4617      	mov	r7, r2
   8b4e4:	9801      	ldr	r0, [sp, #4]
   8b4e6:	f810 3b01 	ldrb.w	r3, [r0], #1
   8b4ea:	9001      	str	r0, [sp, #4]
   8b4ec:	2b63      	cmp	r3, #99	; 0x63
   8b4ee:	f000 80b3 	beq.w	8b658 <_svfiprintf_r+0x22e>
   8b4f2:	dc33      	bgt.n	8b55c <_svfiprintf_r+0x132>
   8b4f4:	2b39      	cmp	r3, #57	; 0x39
   8b4f6:	dc1a      	bgt.n	8b52e <_svfiprintf_r+0x104>
   8b4f8:	2b31      	cmp	r3, #49	; 0x31
   8b4fa:	f280 8091 	bge.w	8b620 <_svfiprintf_r+0x1f6>
   8b4fe:	2b2b      	cmp	r3, #43	; 0x2b
   8b500:	d101      	bne.n	8b506 <_svfiprintf_r+0xdc>
   8b502:	461a      	mov	r2, r3
   8b504:	e7ee      	b.n	8b4e4 <_svfiprintf_r+0xba>
   8b506:	dc0a      	bgt.n	8b51e <_svfiprintf_r+0xf4>
   8b508:	2b23      	cmp	r3, #35	; 0x23
   8b50a:	d055      	beq.n	8b5b8 <_svfiprintf_r+0x18e>
   8b50c:	2b2a      	cmp	r3, #42	; 0x2a
   8b50e:	d056      	beq.n	8b5be <_svfiprintf_r+0x194>
   8b510:	2b20      	cmp	r3, #32
   8b512:	f040 81f6 	bne.w	8b902 <_svfiprintf_r+0x4d8>
   8b516:	2a00      	cmp	r2, #0
   8b518:	bf08      	it	eq
   8b51a:	2220      	moveq	r2, #32
   8b51c:	e7e2      	b.n	8b4e4 <_svfiprintf_r+0xba>
   8b51e:	2b2e      	cmp	r3, #46	; 0x2e
   8b520:	d058      	beq.n	8b5d4 <_svfiprintf_r+0x1aa>
   8b522:	2b30      	cmp	r3, #48	; 0x30
   8b524:	d079      	beq.n	8b61a <_svfiprintf_r+0x1f0>
   8b526:	2b2d      	cmp	r3, #45	; 0x2d
   8b528:	f040 81eb 	bne.w	8b902 <_svfiprintf_r+0x4d8>
   8b52c:	e04f      	b.n	8b5ce <_svfiprintf_r+0x1a4>
   8b52e:	2b4f      	cmp	r3, #79	; 0x4f
   8b530:	f000 80de 	beq.w	8b6f0 <_svfiprintf_r+0x2c6>
   8b534:	dc07      	bgt.n	8b546 <_svfiprintf_r+0x11c>
   8b536:	2b44      	cmp	r3, #68	; 0x44
   8b538:	f040 81e3 	bne.w	8b902 <_svfiprintf_r+0x4d8>
   8b53c:	f88d 2027 	strb.w	r2, [sp, #39]	; 0x27
   8b540:	f047 0710 	orr.w	r7, r7, #16
   8b544:	e090      	b.n	8b668 <_svfiprintf_r+0x23e>
   8b546:	2b55      	cmp	r3, #85	; 0x55
   8b548:	f000 811f 	beq.w	8b78a <_svfiprintf_r+0x360>
   8b54c:	2b58      	cmp	r3, #88	; 0x58
   8b54e:	f040 81d8 	bne.w	8b902 <_svfiprintf_r+0x4d8>
   8b552:	4daf      	ldr	r5, [pc, #700]	; (8b810 <_svfiprintf_r+0x3e6>)
   8b554:	f88d 2027 	strb.w	r2, [sp, #39]	; 0x27
   8b558:	9505      	str	r5, [sp, #20]
   8b55a:	e130      	b.n	8b7be <_svfiprintf_r+0x394>
   8b55c:	2b6f      	cmp	r3, #111	; 0x6f
   8b55e:	f000 80c9 	beq.w	8b6f4 <_svfiprintf_r+0x2ca>
   8b562:	dc10      	bgt.n	8b586 <_svfiprintf_r+0x15c>
   8b564:	2b69      	cmp	r3, #105	; 0x69
   8b566:	d024      	beq.n	8b5b2 <_svfiprintf_r+0x188>
   8b568:	dc07      	bgt.n	8b57a <_svfiprintf_r+0x150>
   8b56a:	2b64      	cmp	r3, #100	; 0x64
   8b56c:	d021      	beq.n	8b5b2 <_svfiprintf_r+0x188>
   8b56e:	2b68      	cmp	r3, #104	; 0x68
   8b570:	f040 81c7 	bne.w	8b902 <_svfiprintf_r+0x4d8>
   8b574:	f047 0740 	orr.w	r7, r7, #64	; 0x40
   8b578:	e7b4      	b.n	8b4e4 <_svfiprintf_r+0xba>
   8b57a:	2b6c      	cmp	r3, #108	; 0x6c
   8b57c:	d05f      	beq.n	8b63e <_svfiprintf_r+0x214>
   8b57e:	2b6e      	cmp	r3, #110	; 0x6e
   8b580:	f040 81bf 	bne.w	8b902 <_svfiprintf_r+0x4d8>
   8b584:	e096      	b.n	8b6b4 <_svfiprintf_r+0x28a>
   8b586:	2b73      	cmp	r3, #115	; 0x73
   8b588:	f000 80df 	beq.w	8b74a <_svfiprintf_r+0x320>
   8b58c:	dc06      	bgt.n	8b59c <_svfiprintf_r+0x172>
   8b58e:	2b70      	cmp	r3, #112	; 0x70
   8b590:	f000 80cd 	beq.w	8b72e <_svfiprintf_r+0x304>
   8b594:	2b71      	cmp	r3, #113	; 0x71
   8b596:	f040 81b4 	bne.w	8b902 <_svfiprintf_r+0x4d8>
   8b59a:	e05a      	b.n	8b652 <_svfiprintf_r+0x228>
   8b59c:	2b75      	cmp	r3, #117	; 0x75
   8b59e:	f000 80f6 	beq.w	8b78e <_svfiprintf_r+0x364>
   8b5a2:	2b78      	cmp	r3, #120	; 0x78
   8b5a4:	f040 81ad 	bne.w	8b902 <_svfiprintf_r+0x4d8>
   8b5a8:	4d9a      	ldr	r5, [pc, #616]	; (8b814 <_svfiprintf_r+0x3ea>)
   8b5aa:	f88d 2027 	strb.w	r2, [sp, #39]	; 0x27
   8b5ae:	9505      	str	r5, [sp, #20]
   8b5b0:	e105      	b.n	8b7be <_svfiprintf_r+0x394>
   8b5b2:	f88d 2027 	strb.w	r2, [sp, #39]	; 0x27
   8b5b6:	e057      	b.n	8b668 <_svfiprintf_r+0x23e>
   8b5b8:	f047 0701 	orr.w	r7, r7, #1
   8b5bc:	e792      	b.n	8b4e4 <_svfiprintf_r+0xba>
   8b5be:	1d33      	adds	r3, r6, #4
   8b5c0:	6836      	ldr	r6, [r6, #0]
   8b5c2:	2e00      	cmp	r6, #0
   8b5c4:	9603      	str	r6, [sp, #12]
   8b5c6:	da15      	bge.n	8b5f4 <_svfiprintf_r+0x1ca>
   8b5c8:	4270      	negs	r0, r6
   8b5ca:	9003      	str	r0, [sp, #12]
   8b5cc:	461e      	mov	r6, r3
   8b5ce:	f047 0704 	orr.w	r7, r7, #4
   8b5d2:	e787      	b.n	8b4e4 <_svfiprintf_r+0xba>
   8b5d4:	9901      	ldr	r1, [sp, #4]
   8b5d6:	f811 3b01 	ldrb.w	r3, [r1], #1
   8b5da:	2b2a      	cmp	r3, #42	; 0x2a
   8b5dc:	9101      	str	r1, [sp, #4]
   8b5de:	d10b      	bne.n	8b5f8 <_svfiprintf_r+0x1ce>
   8b5e0:	f8d6 c000 	ldr.w	ip, [r6]
   8b5e4:	1d33      	adds	r3, r6, #4
   8b5e6:	f1bc 0f00 	cmp.w	ip, #0
   8b5ea:	da03      	bge.n	8b5f4 <_svfiprintf_r+0x1ca>
   8b5ec:	461e      	mov	r6, r3
   8b5ee:	f04f 3cff 	mov.w	ip, #4294967295
   8b5f2:	e777      	b.n	8b4e4 <_svfiprintf_r+0xba>
   8b5f4:	461e      	mov	r6, r3
   8b5f6:	e775      	b.n	8b4e4 <_svfiprintf_r+0xba>
   8b5f8:	f04f 0c00 	mov.w	ip, #0
   8b5fc:	f1a3 0030 	sub.w	r0, r3, #48	; 0x30
   8b600:	2809      	cmp	r0, #9
   8b602:	d807      	bhi.n	8b614 <_svfiprintf_r+0x1ea>
   8b604:	9901      	ldr	r1, [sp, #4]
   8b606:	230a      	movs	r3, #10
   8b608:	fb03 0c0c 	mla	ip, r3, ip, r0
   8b60c:	f811 3b01 	ldrb.w	r3, [r1], #1
   8b610:	9101      	str	r1, [sp, #4]
   8b612:	e7f3      	b.n	8b5fc <_svfiprintf_r+0x1d2>
   8b614:	ea4c 7cec 	orr.w	ip, ip, ip, asr #31
   8b618:	e768      	b.n	8b4ec <_svfiprintf_r+0xc2>
   8b61a:	f047 0780 	orr.w	r7, r7, #128	; 0x80
   8b61e:	e761      	b.n	8b4e4 <_svfiprintf_r+0xba>
   8b620:	9801      	ldr	r0, [sp, #4]
   8b622:	2100      	movs	r1, #0
   8b624:	3b30      	subs	r3, #48	; 0x30
   8b626:	240a      	movs	r4, #10
   8b628:	fb04 3101 	mla	r1, r4, r1, r3
   8b62c:	f810 3b01 	ldrb.w	r3, [r0], #1
   8b630:	f1a3 0430 	sub.w	r4, r3, #48	; 0x30
   8b634:	2c09      	cmp	r4, #9
   8b636:	9001      	str	r0, [sp, #4]
   8b638:	d9f4      	bls.n	8b624 <_svfiprintf_r+0x1fa>
   8b63a:	9103      	str	r1, [sp, #12]
   8b63c:	e756      	b.n	8b4ec <_svfiprintf_r+0xc2>
   8b63e:	9901      	ldr	r1, [sp, #4]
   8b640:	780b      	ldrb	r3, [r1, #0]
   8b642:	2b6c      	cmp	r3, #108	; 0x6c
   8b644:	d102      	bne.n	8b64c <_svfiprintf_r+0x222>
   8b646:	1c48      	adds	r0, r1, #1
   8b648:	9001      	str	r0, [sp, #4]
   8b64a:	e002      	b.n	8b652 <_svfiprintf_r+0x228>
   8b64c:	f047 0710 	orr.w	r7, r7, #16
   8b650:	e748      	b.n	8b4e4 <_svfiprintf_r+0xba>
   8b652:	f047 0720 	orr.w	r7, r7, #32
   8b656:	e745      	b.n	8b4e4 <_svfiprintf_r+0xba>
   8b658:	6832      	ldr	r2, [r6, #0]
   8b65a:	2500      	movs	r5, #0
   8b65c:	f88d 2038 	strb.w	r2, [sp, #56]	; 0x38
   8b660:	f88d 5027 	strb.w	r5, [sp, #39]	; 0x27
   8b664:	3604      	adds	r6, #4
   8b666:	e156      	b.n	8b916 <_svfiprintf_r+0x4ec>
   8b668:	06ba      	lsls	r2, r7, #26
   8b66a:	d507      	bpl.n	8b67c <_svfiprintf_r+0x252>
   8b66c:	3607      	adds	r6, #7
   8b66e:	f026 0507 	bic.w	r5, r6, #7
   8b672:	f105 0608 	add.w	r6, r5, #8
   8b676:	e9d5 4500 	ldrd	r4, r5, [r5]
   8b67a:	e00f      	b.n	8b69c <_svfiprintf_r+0x272>
   8b67c:	f017 0f10 	tst.w	r7, #16
   8b680:	f106 0104 	add.w	r1, r6, #4
   8b684:	d001      	beq.n	8b68a <_svfiprintf_r+0x260>
   8b686:	6832      	ldr	r2, [r6, #0]
   8b688:	e005      	b.n	8b696 <_svfiprintf_r+0x26c>
   8b68a:	f017 0f40 	tst.w	r7, #64	; 0x40
   8b68e:	6832      	ldr	r2, [r6, #0]
   8b690:	d001      	beq.n	8b696 <_svfiprintf_r+0x26c>
   8b692:	b214      	sxth	r4, r2
   8b694:	e000      	b.n	8b698 <_svfiprintf_r+0x26e>
   8b696:	4614      	mov	r4, r2
   8b698:	17e5      	asrs	r5, r4, #31
   8b69a:	460e      	mov	r6, r1
   8b69c:	2c00      	cmp	r4, #0
   8b69e:	f175 0200 	sbcs.w	r2, r5, #0
   8b6a2:	f280 80b9 	bge.w	8b818 <_svfiprintf_r+0x3ee>
   8b6a6:	232d      	movs	r3, #45	; 0x2d
   8b6a8:	4264      	negs	r4, r4
   8b6aa:	eb65 0545 	sbc.w	r5, r5, r5, lsl #1
   8b6ae:	f88d 3027 	strb.w	r3, [sp, #39]	; 0x27
   8b6b2:	e0b1      	b.n	8b818 <_svfiprintf_r+0x3ee>
   8b6b4:	f017 0f20 	tst.w	r7, #32
   8b6b8:	f88d 2027 	strb.w	r2, [sp, #39]	; 0x27
   8b6bc:	f106 0204 	add.w	r2, r6, #4
   8b6c0:	d005      	beq.n	8b6ce <_svfiprintf_r+0x2a4>
   8b6c2:	9c04      	ldr	r4, [sp, #16]
   8b6c4:	6835      	ldr	r5, [r6, #0]
   8b6c6:	17e0      	asrs	r0, r4, #31
   8b6c8:	602c      	str	r4, [r5, #0]
   8b6ca:	6068      	str	r0, [r5, #4]
   8b6cc:	e004      	b.n	8b6d8 <_svfiprintf_r+0x2ae>
   8b6ce:	06fb      	lsls	r3, r7, #27
   8b6d0:	d504      	bpl.n	8b6dc <_svfiprintf_r+0x2b2>
   8b6d2:	6833      	ldr	r3, [r6, #0]
   8b6d4:	9904      	ldr	r1, [sp, #16]
   8b6d6:	6019      	str	r1, [r3, #0]
   8b6d8:	4616      	mov	r6, r2
   8b6da:	e6cf      	b.n	8b47c <_svfiprintf_r+0x52>
   8b6dc:	6830      	ldr	r0, [r6, #0]
   8b6de:	9c04      	ldr	r4, [sp, #16]
   8b6e0:	f017 0f40 	tst.w	r7, #64	; 0x40
   8b6e4:	f106 0604 	add.w	r6, r6, #4
   8b6e8:	bf14      	ite	ne
   8b6ea:	8004      	strhne	r4, [r0, #0]
   8b6ec:	6004      	streq	r4, [r0, #0]
   8b6ee:	e6c5      	b.n	8b47c <_svfiprintf_r+0x52>
   8b6f0:	f047 0710 	orr.w	r7, r7, #16
   8b6f4:	f017 0020 	ands.w	r0, r7, #32
   8b6f8:	d008      	beq.n	8b70c <_svfiprintf_r+0x2e2>
   8b6fa:	1df3      	adds	r3, r6, #7
   8b6fc:	f023 0507 	bic.w	r5, r3, #7
   8b700:	f105 0608 	add.w	r6, r5, #8
   8b704:	e9d5 4500 	ldrd	r4, r5, [r5]
   8b708:	2000      	movs	r0, #0
   8b70a:	e07c      	b.n	8b806 <_svfiprintf_r+0x3dc>
   8b70c:	f017 0110 	ands.w	r1, r7, #16
   8b710:	f106 0204 	add.w	r2, r6, #4
   8b714:	d106      	bne.n	8b724 <_svfiprintf_r+0x2fa>
   8b716:	f017 0040 	ands.w	r0, r7, #64	; 0x40
   8b71a:	d003      	beq.n	8b724 <_svfiprintf_r+0x2fa>
   8b71c:	8834      	ldrh	r4, [r6, #0]
   8b71e:	2500      	movs	r5, #0
   8b720:	4616      	mov	r6, r2
   8b722:	e7f1      	b.n	8b708 <_svfiprintf_r+0x2de>
   8b724:	6836      	ldr	r6, [r6, #0]
   8b726:	2500      	movs	r5, #0
   8b728:	4634      	mov	r4, r6
   8b72a:	4616      	mov	r6, r2
   8b72c:	e06b      	b.n	8b806 <_svfiprintf_r+0x3dc>
   8b72e:	4b39      	ldr	r3, [pc, #228]	; (8b814 <_svfiprintf_r+0x3ea>)
   8b730:	2130      	movs	r1, #48	; 0x30
   8b732:	2278      	movs	r2, #120	; 0x78
   8b734:	6834      	ldr	r4, [r6, #0]
   8b736:	2500      	movs	r5, #0
   8b738:	f047 0702 	orr.w	r7, r7, #2
   8b73c:	f88d 1028 	strb.w	r1, [sp, #40]	; 0x28
   8b740:	f88d 2029 	strb.w	r2, [sp, #41]	; 0x29
   8b744:	3604      	adds	r6, #4
   8b746:	9305      	str	r3, [sp, #20]
   8b748:	e05c      	b.n	8b804 <_svfiprintf_r+0x3da>
   8b74a:	4631      	mov	r1, r6
   8b74c:	2500      	movs	r5, #0
   8b74e:	f8d1 a000 	ldr.w	sl, [r1]
   8b752:	3604      	adds	r6, #4
   8b754:	45ac      	cmp	ip, r5
   8b756:	f88d 5027 	strb.w	r5, [sp, #39]	; 0x27
   8b75a:	4650      	mov	r0, sl
   8b75c:	db11      	blt.n	8b782 <_svfiprintf_r+0x358>
   8b75e:	4662      	mov	r2, ip
   8b760:	4629      	mov	r1, r5
   8b762:	f8cd c000 	str.w	ip, [sp]
   8b766:	f7ff fc55 	bl	8b014 <memchr>
   8b76a:	f8dd c000 	ldr.w	ip, [sp]
   8b76e:	2800      	cmp	r0, #0
   8b770:	f000 80d5 	beq.w	8b91e <_svfiprintf_r+0x4f4>
   8b774:	ebca 0400 	rsb	r4, sl, r0
   8b778:	4564      	cmp	r4, ip
   8b77a:	f340 80d2 	ble.w	8b922 <_svfiprintf_r+0x4f8>
   8b77e:	4664      	mov	r4, ip
   8b780:	e0cf      	b.n	8b922 <_svfiprintf_r+0x4f8>
   8b782:	f7fe fc53 	bl	8a02c <strlen>
   8b786:	4604      	mov	r4, r0
   8b788:	e0cb      	b.n	8b922 <_svfiprintf_r+0x4f8>
   8b78a:	f047 0710 	orr.w	r7, r7, #16
   8b78e:	06bd      	lsls	r5, r7, #26
   8b790:	d506      	bpl.n	8b7a0 <_svfiprintf_r+0x376>
   8b792:	1df0      	adds	r0, r6, #7
   8b794:	f020 0407 	bic.w	r4, r0, #7
   8b798:	f104 0608 	add.w	r6, r4, #8
   8b79c:	cc30      	ldmia	r4, {r4, r5}
   8b79e:	e00c      	b.n	8b7ba <_svfiprintf_r+0x390>
   8b7a0:	f017 0f10 	tst.w	r7, #16
   8b7a4:	f106 0304 	add.w	r3, r6, #4
   8b7a8:	d103      	bne.n	8b7b2 <_svfiprintf_r+0x388>
   8b7aa:	067c      	lsls	r4, r7, #25
   8b7ac:	d501      	bpl.n	8b7b2 <_svfiprintf_r+0x388>
   8b7ae:	8834      	ldrh	r4, [r6, #0]
   8b7b0:	e001      	b.n	8b7b6 <_svfiprintf_r+0x38c>
   8b7b2:	6835      	ldr	r5, [r6, #0]
   8b7b4:	462c      	mov	r4, r5
   8b7b6:	2500      	movs	r5, #0
   8b7b8:	461e      	mov	r6, r3
   8b7ba:	2001      	movs	r0, #1
   8b7bc:	e023      	b.n	8b806 <_svfiprintf_r+0x3dc>
   8b7be:	06b8      	lsls	r0, r7, #26
   8b7c0:	d507      	bpl.n	8b7d2 <_svfiprintf_r+0x3a8>
   8b7c2:	1df4      	adds	r4, r6, #7
   8b7c4:	f024 0107 	bic.w	r1, r4, #7
   8b7c8:	f101 0608 	add.w	r6, r1, #8
   8b7cc:	e9d1 4500 	ldrd	r4, r5, [r1]
   8b7d0:	e00c      	b.n	8b7ec <_svfiprintf_r+0x3c2>
   8b7d2:	f017 0f10 	tst.w	r7, #16
   8b7d6:	f106 0004 	add.w	r0, r6, #4
   8b7da:	d103      	bne.n	8b7e4 <_svfiprintf_r+0x3ba>
   8b7dc:	0679      	lsls	r1, r7, #25
   8b7de:	d501      	bpl.n	8b7e4 <_svfiprintf_r+0x3ba>
   8b7e0:	8834      	ldrh	r4, [r6, #0]
   8b7e2:	e001      	b.n	8b7e8 <_svfiprintf_r+0x3be>
   8b7e4:	6836      	ldr	r6, [r6, #0]
   8b7e6:	4634      	mov	r4, r6
   8b7e8:	2500      	movs	r5, #0
   8b7ea:	4606      	mov	r6, r0
   8b7ec:	07fa      	lsls	r2, r7, #31
   8b7ee:	d509      	bpl.n	8b804 <_svfiprintf_r+0x3da>
   8b7f0:	ea54 0205 	orrs.w	r2, r4, r5
   8b7f4:	d006      	beq.n	8b804 <_svfiprintf_r+0x3da>
   8b7f6:	2230      	movs	r2, #48	; 0x30
   8b7f8:	f88d 2028 	strb.w	r2, [sp, #40]	; 0x28
   8b7fc:	f88d 3029 	strb.w	r3, [sp, #41]	; 0x29
   8b800:	f047 0702 	orr.w	r7, r7, #2
   8b804:	2002      	movs	r0, #2
   8b806:	2100      	movs	r1, #0
   8b808:	f88d 1027 	strb.w	r1, [sp, #39]	; 0x27
   8b80c:	e005      	b.n	8b81a <_svfiprintf_r+0x3f0>
   8b80e:	bf00      	nop
   8b810:	0008cdfa 	.word	0x0008cdfa
   8b814:	0008ce0b 	.word	0x0008ce0b
   8b818:	2001      	movs	r0, #1
   8b81a:	f1bc 0f00 	cmp.w	ip, #0
   8b81e:	bfa8      	it	ge
   8b820:	f027 0780 	bicge.w	r7, r7, #128	; 0x80
   8b824:	ea54 0105 	orrs.w	r1, r4, r5
   8b828:	d102      	bne.n	8b830 <_svfiprintf_r+0x406>
   8b82a:	f1bc 0f00 	cmp.w	ip, #0
   8b82e:	d058      	beq.n	8b8e2 <_svfiprintf_r+0x4b8>
   8b830:	2801      	cmp	r0, #1
   8b832:	d01d      	beq.n	8b870 <_svfiprintf_r+0x446>
   8b834:	2802      	cmp	r0, #2
   8b836:	f10d 035f 	add.w	r3, sp, #95	; 0x5f
   8b83a:	d041      	beq.n	8b8c0 <_svfiprintf_r+0x496>
   8b83c:	f004 0207 	and.w	r2, r4, #7
   8b840:	08e4      	lsrs	r4, r4, #3
   8b842:	ea44 7045 	orr.w	r0, r4, r5, lsl #29
   8b846:	08e9      	lsrs	r1, r5, #3
   8b848:	4604      	mov	r4, r0
   8b84a:	460d      	mov	r5, r1
   8b84c:	3230      	adds	r2, #48	; 0x30
   8b84e:	ea54 0105 	orrs.w	r1, r4, r5
   8b852:	469a      	mov	sl, r3
   8b854:	701a      	strb	r2, [r3, #0]
   8b856:	f103 33ff 	add.w	r3, r3, #4294967295
   8b85a:	d1ef      	bne.n	8b83c <_svfiprintf_r+0x412>
   8b85c:	07f8      	lsls	r0, r7, #31
   8b85e:	4655      	mov	r5, sl
   8b860:	d54a      	bpl.n	8b8f8 <_svfiprintf_r+0x4ce>
   8b862:	2a30      	cmp	r2, #48	; 0x30
   8b864:	d048      	beq.n	8b8f8 <_svfiprintf_r+0x4ce>
   8b866:	2230      	movs	r2, #48	; 0x30
   8b868:	469a      	mov	sl, r3
   8b86a:	f805 2c01 	strb.w	r2, [r5, #-1]
   8b86e:	e043      	b.n	8b8f8 <_svfiprintf_r+0x4ce>
   8b870:	2d00      	cmp	r5, #0
   8b872:	bf08      	it	eq
   8b874:	2c0a      	cmpeq	r4, #10
   8b876:	d203      	bcs.n	8b880 <_svfiprintf_r+0x456>
   8b878:	3430      	adds	r4, #48	; 0x30
   8b87a:	f88d 405f 	strb.w	r4, [sp, #95]	; 0x5f
   8b87e:	e036      	b.n	8b8ee <_svfiprintf_r+0x4c4>
   8b880:	f10d 035f 	add.w	r3, sp, #95	; 0x5f
   8b884:	9302      	str	r3, [sp, #8]
   8b886:	4620      	mov	r0, r4
   8b888:	4629      	mov	r1, r5
   8b88a:	220a      	movs	r2, #10
   8b88c:	2300      	movs	r3, #0
   8b88e:	f8cd c000 	str.w	ip, [sp]
   8b892:	f000 f9c7 	bl	8bc24 <__aeabi_uldivmod>
   8b896:	9802      	ldr	r0, [sp, #8]
   8b898:	3230      	adds	r2, #48	; 0x30
   8b89a:	f800 2901 	strb.w	r2, [r0], #-1
   8b89e:	4629      	mov	r1, r5
   8b8a0:	220a      	movs	r2, #10
   8b8a2:	2300      	movs	r3, #0
   8b8a4:	f8dd a008 	ldr.w	sl, [sp, #8]
   8b8a8:	9002      	str	r0, [sp, #8]
   8b8aa:	4620      	mov	r0, r4
   8b8ac:	f000 f9ba 	bl	8bc24 <__aeabi_uldivmod>
   8b8b0:	4604      	mov	r4, r0
   8b8b2:	460d      	mov	r5, r1
   8b8b4:	ea54 0105 	orrs.w	r1, r4, r5
   8b8b8:	f8dd c000 	ldr.w	ip, [sp]
   8b8bc:	d1e3      	bne.n	8b886 <_svfiprintf_r+0x45c>
   8b8be:	e01b      	b.n	8b8f8 <_svfiprintf_r+0x4ce>
   8b8c0:	9905      	ldr	r1, [sp, #20]
   8b8c2:	f004 000f 	and.w	r0, r4, #15
   8b8c6:	0924      	lsrs	r4, r4, #4
   8b8c8:	5c0a      	ldrb	r2, [r1, r0]
   8b8ca:	ea44 7005 	orr.w	r0, r4, r5, lsl #28
   8b8ce:	0929      	lsrs	r1, r5, #4
   8b8d0:	4604      	mov	r4, r0
   8b8d2:	460d      	mov	r5, r1
   8b8d4:	469a      	mov	sl, r3
   8b8d6:	f803 2901 	strb.w	r2, [r3], #-1
   8b8da:	ea54 0205 	orrs.w	r2, r4, r5
   8b8de:	d1ef      	bne.n	8b8c0 <_svfiprintf_r+0x496>
   8b8e0:	e00a      	b.n	8b8f8 <_svfiprintf_r+0x4ce>
   8b8e2:	b938      	cbnz	r0, 8b8f4 <_svfiprintf_r+0x4ca>
   8b8e4:	07f9      	lsls	r1, r7, #31
   8b8e6:	d505      	bpl.n	8b8f4 <_svfiprintf_r+0x4ca>
   8b8e8:	2030      	movs	r0, #48	; 0x30
   8b8ea:	f88d 005f 	strb.w	r0, [sp, #95]	; 0x5f
   8b8ee:	f10d 0a5f 	add.w	sl, sp, #95	; 0x5f
   8b8f2:	e001      	b.n	8b8f8 <_svfiprintf_r+0x4ce>
   8b8f4:	f10d 0a60 	add.w	sl, sp, #96	; 0x60
   8b8f8:	ad18      	add	r5, sp, #96	; 0x60
   8b8fa:	ebca 0405 	rsb	r4, sl, r5
   8b8fe:	4665      	mov	r5, ip
   8b900:	e00f      	b.n	8b922 <_svfiprintf_r+0x4f8>
   8b902:	f88d 2027 	strb.w	r2, [sp, #39]	; 0x27
   8b906:	2b00      	cmp	r3, #0
   8b908:	f000 8176 	beq.w	8bbf8 <_svfiprintf_r+0x7ce>
   8b90c:	2500      	movs	r5, #0
   8b90e:	f88d 3038 	strb.w	r3, [sp, #56]	; 0x38
   8b912:	f88d 5027 	strb.w	r5, [sp, #39]	; 0x27
   8b916:	2401      	movs	r4, #1
   8b918:	f10d 0a38 	add.w	sl, sp, #56	; 0x38
   8b91c:	e001      	b.n	8b922 <_svfiprintf_r+0x4f8>
   8b91e:	4664      	mov	r4, ip
   8b920:	4605      	mov	r5, r0
   8b922:	f89d 3027 	ldrb.w	r3, [sp, #39]	; 0x27
   8b926:	42ac      	cmp	r4, r5
   8b928:	bfac      	ite	ge
   8b92a:	4621      	movge	r1, r4
   8b92c:	4629      	movlt	r1, r5
   8b92e:	9102      	str	r1, [sp, #8]
   8b930:	b113      	cbz	r3, 8b938 <_svfiprintf_r+0x50e>
   8b932:	9802      	ldr	r0, [sp, #8]
   8b934:	1c42      	adds	r2, r0, #1
   8b936:	9202      	str	r2, [sp, #8]
   8b938:	f017 0102 	ands.w	r1, r7, #2
   8b93c:	9106      	str	r1, [sp, #24]
   8b93e:	d002      	beq.n	8b946 <_svfiprintf_r+0x51c>
   8b940:	9b02      	ldr	r3, [sp, #8]
   8b942:	1c98      	adds	r0, r3, #2
   8b944:	9002      	str	r0, [sp, #8]
   8b946:	f017 0284 	ands.w	r2, r7, #132	; 0x84
   8b94a:	9207      	str	r2, [sp, #28]
   8b94c:	d13c      	bne.n	8b9c8 <_svfiprintf_r+0x59e>
   8b94e:	9903      	ldr	r1, [sp, #12]
   8b950:	9b02      	ldr	r3, [sp, #8]
   8b952:	1acb      	subs	r3, r1, r3
   8b954:	2b00      	cmp	r3, #0
   8b956:	dd37      	ble.n	8b9c8 <_svfiprintf_r+0x59e>
   8b958:	48a5      	ldr	r0, [pc, #660]	; (8bbf0 <_svfiprintf_r+0x7c6>)
   8b95a:	2b10      	cmp	r3, #16
   8b95c:	f8c8 0000 	str.w	r0, [r8]
   8b960:	dd1b      	ble.n	8b99a <_svfiprintf_r+0x570>
   8b962:	9a0c      	ldr	r2, [sp, #48]	; 0x30
   8b964:	2110      	movs	r1, #16
   8b966:	980d      	ldr	r0, [sp, #52]	; 0x34
   8b968:	f8c8 1004 	str.w	r1, [r8, #4]
   8b96c:	1c51      	adds	r1, r2, #1
   8b96e:	3010      	adds	r0, #16
   8b970:	2907      	cmp	r1, #7
   8b972:	900d      	str	r0, [sp, #52]	; 0x34
   8b974:	910c      	str	r1, [sp, #48]	; 0x30
   8b976:	dc02      	bgt.n	8b97e <_svfiprintf_r+0x554>
   8b978:	f108 0808 	add.w	r8, r8, #8
   8b97c:	e00b      	b.n	8b996 <_svfiprintf_r+0x56c>
   8b97e:	4658      	mov	r0, fp
   8b980:	4649      	mov	r1, r9
   8b982:	aa0b      	add	r2, sp, #44	; 0x2c
   8b984:	9300      	str	r3, [sp, #0]
   8b986:	f7ff fcd3 	bl	8b330 <__ssprint_r>
   8b98a:	9b00      	ldr	r3, [sp, #0]
   8b98c:	2800      	cmp	r0, #0
   8b98e:	f040 813a 	bne.w	8bc06 <_svfiprintf_r+0x7dc>
   8b992:	f10d 0860 	add.w	r8, sp, #96	; 0x60
   8b996:	3b10      	subs	r3, #16
   8b998:	e7de      	b.n	8b958 <_svfiprintf_r+0x52e>
   8b99a:	9a0d      	ldr	r2, [sp, #52]	; 0x34
   8b99c:	f8c8 3004 	str.w	r3, [r8, #4]
   8b9a0:	18d1      	adds	r1, r2, r3
   8b9a2:	9b0c      	ldr	r3, [sp, #48]	; 0x30
   8b9a4:	910d      	str	r1, [sp, #52]	; 0x34
   8b9a6:	1c58      	adds	r0, r3, #1
   8b9a8:	2807      	cmp	r0, #7
   8b9aa:	900c      	str	r0, [sp, #48]	; 0x30
   8b9ac:	dc02      	bgt.n	8b9b4 <_svfiprintf_r+0x58a>
   8b9ae:	f108 0808 	add.w	r8, r8, #8
   8b9b2:	e009      	b.n	8b9c8 <_svfiprintf_r+0x59e>
   8b9b4:	4658      	mov	r0, fp
   8b9b6:	4649      	mov	r1, r9
   8b9b8:	aa0b      	add	r2, sp, #44	; 0x2c
   8b9ba:	f7ff fcb9 	bl	8b330 <__ssprint_r>
   8b9be:	2800      	cmp	r0, #0
   8b9c0:	f040 8121 	bne.w	8bc06 <_svfiprintf_r+0x7dc>
   8b9c4:	f10d 0860 	add.w	r8, sp, #96	; 0x60
   8b9c8:	f89d 2027 	ldrb.w	r2, [sp, #39]	; 0x27
   8b9cc:	b1da      	cbz	r2, 8ba06 <_svfiprintf_r+0x5dc>
   8b9ce:	f10d 0127 	add.w	r1, sp, #39	; 0x27
   8b9d2:	f8c8 1000 	str.w	r1, [r8]
   8b9d6:	990c      	ldr	r1, [sp, #48]	; 0x30
   8b9d8:	2301      	movs	r3, #1
   8b9da:	980d      	ldr	r0, [sp, #52]	; 0x34
   8b9dc:	f8c8 3004 	str.w	r3, [r8, #4]
   8b9e0:	1c4b      	adds	r3, r1, #1
   8b9e2:	1c42      	adds	r2, r0, #1
   8b9e4:	2b07      	cmp	r3, #7
   8b9e6:	920d      	str	r2, [sp, #52]	; 0x34
   8b9e8:	930c      	str	r3, [sp, #48]	; 0x30
   8b9ea:	dc02      	bgt.n	8b9f2 <_svfiprintf_r+0x5c8>
   8b9ec:	f108 0808 	add.w	r8, r8, #8
   8b9f0:	e009      	b.n	8ba06 <_svfiprintf_r+0x5dc>
   8b9f2:	4658      	mov	r0, fp
   8b9f4:	4649      	mov	r1, r9
   8b9f6:	aa0b      	add	r2, sp, #44	; 0x2c
   8b9f8:	f7ff fc9a 	bl	8b330 <__ssprint_r>
   8b9fc:	2800      	cmp	r0, #0
   8b9fe:	f040 8102 	bne.w	8bc06 <_svfiprintf_r+0x7dc>
   8ba02:	f10d 0860 	add.w	r8, sp, #96	; 0x60
   8ba06:	9806      	ldr	r0, [sp, #24]
   8ba08:	b1d0      	cbz	r0, 8ba40 <_svfiprintf_r+0x616>
   8ba0a:	aa0a      	add	r2, sp, #40	; 0x28
   8ba0c:	f8c8 2000 	str.w	r2, [r8]
   8ba10:	9a0c      	ldr	r2, [sp, #48]	; 0x30
   8ba12:	2102      	movs	r1, #2
   8ba14:	9b0d      	ldr	r3, [sp, #52]	; 0x34
   8ba16:	f8c8 1004 	str.w	r1, [r8, #4]
   8ba1a:	1c51      	adds	r1, r2, #1
   8ba1c:	1c98      	adds	r0, r3, #2
   8ba1e:	2907      	cmp	r1, #7
   8ba20:	900d      	str	r0, [sp, #52]	; 0x34
   8ba22:	910c      	str	r1, [sp, #48]	; 0x30
   8ba24:	dc02      	bgt.n	8ba2c <_svfiprintf_r+0x602>
   8ba26:	f108 0808 	add.w	r8, r8, #8
   8ba2a:	e009      	b.n	8ba40 <_svfiprintf_r+0x616>
   8ba2c:	4658      	mov	r0, fp
   8ba2e:	4649      	mov	r1, r9
   8ba30:	aa0b      	add	r2, sp, #44	; 0x2c
   8ba32:	f7ff fc7d 	bl	8b330 <__ssprint_r>
   8ba36:	2800      	cmp	r0, #0
   8ba38:	f040 80e5 	bne.w	8bc06 <_svfiprintf_r+0x7dc>
   8ba3c:	f10d 0860 	add.w	r8, sp, #96	; 0x60
   8ba40:	9b07      	ldr	r3, [sp, #28]
   8ba42:	2b80      	cmp	r3, #128	; 0x80
   8ba44:	d13c      	bne.n	8bac0 <_svfiprintf_r+0x696>
   8ba46:	9803      	ldr	r0, [sp, #12]
   8ba48:	9a02      	ldr	r2, [sp, #8]
   8ba4a:	1a83      	subs	r3, r0, r2
   8ba4c:	2b00      	cmp	r3, #0
   8ba4e:	dd37      	ble.n	8bac0 <_svfiprintf_r+0x696>
   8ba50:	4968      	ldr	r1, [pc, #416]	; (8bbf4 <_svfiprintf_r+0x7ca>)
   8ba52:	2b10      	cmp	r3, #16
   8ba54:	f8c8 1000 	str.w	r1, [r8]
   8ba58:	dd1b      	ble.n	8ba92 <_svfiprintf_r+0x668>
   8ba5a:	980c      	ldr	r0, [sp, #48]	; 0x30
   8ba5c:	2210      	movs	r2, #16
   8ba5e:	990d      	ldr	r1, [sp, #52]	; 0x34
   8ba60:	f8c8 2004 	str.w	r2, [r8, #4]
   8ba64:	1c42      	adds	r2, r0, #1
   8ba66:	3110      	adds	r1, #16
   8ba68:	2a07      	cmp	r2, #7
   8ba6a:	910d      	str	r1, [sp, #52]	; 0x34
   8ba6c:	920c      	str	r2, [sp, #48]	; 0x30
   8ba6e:	dc02      	bgt.n	8ba76 <_svfiprintf_r+0x64c>
   8ba70:	f108 0808 	add.w	r8, r8, #8
   8ba74:	e00b      	b.n	8ba8e <_svfiprintf_r+0x664>
   8ba76:	4658      	mov	r0, fp
   8ba78:	4649      	mov	r1, r9
   8ba7a:	aa0b      	add	r2, sp, #44	; 0x2c
   8ba7c:	9300      	str	r3, [sp, #0]
   8ba7e:	f7ff fc57 	bl	8b330 <__ssprint_r>
   8ba82:	9b00      	ldr	r3, [sp, #0]
   8ba84:	2800      	cmp	r0, #0
   8ba86:	f040 80be 	bne.w	8bc06 <_svfiprintf_r+0x7dc>
   8ba8a:	f10d 0860 	add.w	r8, sp, #96	; 0x60
   8ba8e:	3b10      	subs	r3, #16
   8ba90:	e7de      	b.n	8ba50 <_svfiprintf_r+0x626>
   8ba92:	9a0c      	ldr	r2, [sp, #48]	; 0x30
   8ba94:	980d      	ldr	r0, [sp, #52]	; 0x34
   8ba96:	1c51      	adds	r1, r2, #1
   8ba98:	f8c8 3004 	str.w	r3, [r8, #4]
   8ba9c:	2907      	cmp	r1, #7
   8ba9e:	4403      	add	r3, r0
   8baa0:	930d      	str	r3, [sp, #52]	; 0x34
   8baa2:	910c      	str	r1, [sp, #48]	; 0x30
   8baa4:	dc02      	bgt.n	8baac <_svfiprintf_r+0x682>
   8baa6:	f108 0808 	add.w	r8, r8, #8
   8baaa:	e009      	b.n	8bac0 <_svfiprintf_r+0x696>
   8baac:	4658      	mov	r0, fp
   8baae:	4649      	mov	r1, r9
   8bab0:	aa0b      	add	r2, sp, #44	; 0x2c
   8bab2:	f7ff fc3d 	bl	8b330 <__ssprint_r>
   8bab6:	2800      	cmp	r0, #0
   8bab8:	f040 80a5 	bne.w	8bc06 <_svfiprintf_r+0x7dc>
   8babc:	f10d 0860 	add.w	r8, sp, #96	; 0x60
   8bac0:	1b2d      	subs	r5, r5, r4
   8bac2:	2d00      	cmp	r5, #0
   8bac4:	dd34      	ble.n	8bb30 <_svfiprintf_r+0x706>
   8bac6:	484b      	ldr	r0, [pc, #300]	; (8bbf4 <_svfiprintf_r+0x7ca>)
   8bac8:	2d10      	cmp	r5, #16
   8baca:	f8c8 0000 	str.w	r0, [r8]
   8bace:	dd19      	ble.n	8bb04 <_svfiprintf_r+0x6da>
   8bad0:	980c      	ldr	r0, [sp, #48]	; 0x30
   8bad2:	990d      	ldr	r1, [sp, #52]	; 0x34
   8bad4:	1c43      	adds	r3, r0, #1
   8bad6:	2210      	movs	r2, #16
   8bad8:	3110      	adds	r1, #16
   8bada:	2b07      	cmp	r3, #7
   8badc:	f8c8 2004 	str.w	r2, [r8, #4]
   8bae0:	910d      	str	r1, [sp, #52]	; 0x34
   8bae2:	930c      	str	r3, [sp, #48]	; 0x30
   8bae4:	dc02      	bgt.n	8baec <_svfiprintf_r+0x6c2>
   8bae6:	f108 0808 	add.w	r8, r8, #8
   8baea:	e009      	b.n	8bb00 <_svfiprintf_r+0x6d6>
   8baec:	4658      	mov	r0, fp
   8baee:	4649      	mov	r1, r9
   8baf0:	aa0b      	add	r2, sp, #44	; 0x2c
   8baf2:	f7ff fc1d 	bl	8b330 <__ssprint_r>
   8baf6:	2800      	cmp	r0, #0
   8baf8:	f040 8085 	bne.w	8bc06 <_svfiprintf_r+0x7dc>
   8bafc:	f10d 0860 	add.w	r8, sp, #96	; 0x60
   8bb00:	3d10      	subs	r5, #16
   8bb02:	e7e0      	b.n	8bac6 <_svfiprintf_r+0x69c>
   8bb04:	9a0c      	ldr	r2, [sp, #48]	; 0x30
   8bb06:	9b0d      	ldr	r3, [sp, #52]	; 0x34
   8bb08:	1c51      	adds	r1, r2, #1
   8bb0a:	f8c8 5004 	str.w	r5, [r8, #4]
   8bb0e:	2907      	cmp	r1, #7
   8bb10:	441d      	add	r5, r3
   8bb12:	950d      	str	r5, [sp, #52]	; 0x34
   8bb14:	910c      	str	r1, [sp, #48]	; 0x30
   8bb16:	dc02      	bgt.n	8bb1e <_svfiprintf_r+0x6f4>
   8bb18:	f108 0808 	add.w	r8, r8, #8
   8bb1c:	e008      	b.n	8bb30 <_svfiprintf_r+0x706>
   8bb1e:	4658      	mov	r0, fp
   8bb20:	4649      	mov	r1, r9
   8bb22:	aa0b      	add	r2, sp, #44	; 0x2c
   8bb24:	f7ff fc04 	bl	8b330 <__ssprint_r>
   8bb28:	2800      	cmp	r0, #0
   8bb2a:	d16c      	bne.n	8bc06 <_svfiprintf_r+0x7dc>
   8bb2c:	f10d 0860 	add.w	r8, sp, #96	; 0x60
   8bb30:	9b0c      	ldr	r3, [sp, #48]	; 0x30
   8bb32:	980d      	ldr	r0, [sp, #52]	; 0x34
   8bb34:	1c5a      	adds	r2, r3, #1
   8bb36:	f8c8 4004 	str.w	r4, [r8, #4]
   8bb3a:	2a07      	cmp	r2, #7
   8bb3c:	4404      	add	r4, r0
   8bb3e:	f8c8 a000 	str.w	sl, [r8]
   8bb42:	940d      	str	r4, [sp, #52]	; 0x34
   8bb44:	920c      	str	r2, [sp, #48]	; 0x30
   8bb46:	dc02      	bgt.n	8bb4e <_svfiprintf_r+0x724>
   8bb48:	f108 0308 	add.w	r3, r8, #8
   8bb4c:	e007      	b.n	8bb5e <_svfiprintf_r+0x734>
   8bb4e:	4658      	mov	r0, fp
   8bb50:	4649      	mov	r1, r9
   8bb52:	aa0b      	add	r2, sp, #44	; 0x2c
   8bb54:	f7ff fbec 	bl	8b330 <__ssprint_r>
   8bb58:	2800      	cmp	r0, #0
   8bb5a:	d154      	bne.n	8bc06 <_svfiprintf_r+0x7dc>
   8bb5c:	ab18      	add	r3, sp, #96	; 0x60
   8bb5e:	077a      	lsls	r2, r7, #29
   8bb60:	d40b      	bmi.n	8bb7a <_svfiprintf_r+0x750>
   8bb62:	9804      	ldr	r0, [sp, #16]
   8bb64:	9b02      	ldr	r3, [sp, #8]
   8bb66:	9a03      	ldr	r2, [sp, #12]
   8bb68:	990d      	ldr	r1, [sp, #52]	; 0x34
   8bb6a:	4293      	cmp	r3, r2
   8bb6c:	bfac      	ite	ge
   8bb6e:	18c0      	addge	r0, r0, r3
   8bb70:	1880      	addlt	r0, r0, r2
   8bb72:	9004      	str	r0, [sp, #16]
   8bb74:	2900      	cmp	r1, #0
   8bb76:	d036      	beq.n	8bbe6 <_svfiprintf_r+0x7bc>
   8bb78:	e02f      	b.n	8bbda <_svfiprintf_r+0x7b0>
   8bb7a:	9c03      	ldr	r4, [sp, #12]
   8bb7c:	9902      	ldr	r1, [sp, #8]
   8bb7e:	1a64      	subs	r4, r4, r1
   8bb80:	2c00      	cmp	r4, #0
   8bb82:	ddee      	ble.n	8bb62 <_svfiprintf_r+0x738>
   8bb84:	481a      	ldr	r0, [pc, #104]	; (8bbf0 <_svfiprintf_r+0x7c6>)
   8bb86:	2c10      	cmp	r4, #16
   8bb88:	6018      	str	r0, [r3, #0]
   8bb8a:	dd15      	ble.n	8bbb8 <_svfiprintf_r+0x78e>
   8bb8c:	990c      	ldr	r1, [sp, #48]	; 0x30
   8bb8e:	2010      	movs	r0, #16
   8bb90:	9a0d      	ldr	r2, [sp, #52]	; 0x34
   8bb92:	6058      	str	r0, [r3, #4]
   8bb94:	1c48      	adds	r0, r1, #1
   8bb96:	3210      	adds	r2, #16
   8bb98:	2807      	cmp	r0, #7
   8bb9a:	920d      	str	r2, [sp, #52]	; 0x34
   8bb9c:	900c      	str	r0, [sp, #48]	; 0x30
   8bb9e:	dc01      	bgt.n	8bba4 <_svfiprintf_r+0x77a>
   8bba0:	3308      	adds	r3, #8
   8bba2:	e007      	b.n	8bbb4 <_svfiprintf_r+0x78a>
   8bba4:	4658      	mov	r0, fp
   8bba6:	4649      	mov	r1, r9
   8bba8:	aa0b      	add	r2, sp, #44	; 0x2c
   8bbaa:	f7ff fbc1 	bl	8b330 <__ssprint_r>
   8bbae:	2800      	cmp	r0, #0
   8bbb0:	d129      	bne.n	8bc06 <_svfiprintf_r+0x7dc>
   8bbb2:	ab18      	add	r3, sp, #96	; 0x60
   8bbb4:	3c10      	subs	r4, #16
   8bbb6:	e7e5      	b.n	8bb84 <_svfiprintf_r+0x75a>
   8bbb8:	9a0c      	ldr	r2, [sp, #48]	; 0x30
   8bbba:	605c      	str	r4, [r3, #4]
   8bbbc:	9b0d      	ldr	r3, [sp, #52]	; 0x34
   8bbbe:	1c51      	adds	r1, r2, #1
   8bbc0:	191c      	adds	r4, r3, r4
   8bbc2:	2907      	cmp	r1, #7
   8bbc4:	940d      	str	r4, [sp, #52]	; 0x34
   8bbc6:	910c      	str	r1, [sp, #48]	; 0x30
   8bbc8:	ddcb      	ble.n	8bb62 <_svfiprintf_r+0x738>
   8bbca:	4658      	mov	r0, fp
   8bbcc:	4649      	mov	r1, r9
   8bbce:	aa0b      	add	r2, sp, #44	; 0x2c
   8bbd0:	f7ff fbae 	bl	8b330 <__ssprint_r>
   8bbd4:	2800      	cmp	r0, #0
   8bbd6:	d0c4      	beq.n	8bb62 <_svfiprintf_r+0x738>
   8bbd8:	e015      	b.n	8bc06 <_svfiprintf_r+0x7dc>
   8bbda:	4658      	mov	r0, fp
   8bbdc:	4649      	mov	r1, r9
   8bbde:	aa0b      	add	r2, sp, #44	; 0x2c
   8bbe0:	f7ff fba6 	bl	8b330 <__ssprint_r>
   8bbe4:	b978      	cbnz	r0, 8bc06 <_svfiprintf_r+0x7dc>
   8bbe6:	2500      	movs	r5, #0
   8bbe8:	950c      	str	r5, [sp, #48]	; 0x30
   8bbea:	f10d 0860 	add.w	r8, sp, #96	; 0x60
   8bbee:	e445      	b.n	8b47c <_svfiprintf_r+0x52>
   8bbf0:	0008ce1c 	.word	0x0008ce1c
   8bbf4:	0008ce2c 	.word	0x0008ce2c
   8bbf8:	980d      	ldr	r0, [sp, #52]	; 0x34
   8bbfa:	b120      	cbz	r0, 8bc06 <_svfiprintf_r+0x7dc>
   8bbfc:	4658      	mov	r0, fp
   8bbfe:	4649      	mov	r1, r9
   8bc00:	aa0b      	add	r2, sp, #44	; 0x2c
   8bc02:	f7ff fb95 	bl	8b330 <__ssprint_r>
   8bc06:	f8b9 200c 	ldrh.w	r2, [r9, #12]
   8bc0a:	9b04      	ldr	r3, [sp, #16]
   8bc0c:	f002 0140 	and.w	r1, r2, #64	; 0x40
   8bc10:	b208      	sxth	r0, r1
   8bc12:	2800      	cmp	r0, #0
   8bc14:	bf18      	it	ne
   8bc16:	f04f 33ff 	movne.w	r3, #4294967295
   8bc1a:	4618      	mov	r0, r3
   8bc1c:	b029      	add	sp, #164	; 0xa4
   8bc1e:	e8bd 8ff0 	ldmia.w	sp!, {r4, r5, r6, r7, r8, r9, sl, fp, pc}
   8bc22:	bf00      	nop

0008bc24 <__aeabi_uldivmod>:
   8bc24:	b94b      	cbnz	r3, 8bc3a <__aeabi_uldivmod+0x16>
   8bc26:	b942      	cbnz	r2, 8bc3a <__aeabi_uldivmod+0x16>
   8bc28:	2900      	cmp	r1, #0
   8bc2a:	bf08      	it	eq
   8bc2c:	2800      	cmpeq	r0, #0
   8bc2e:	d002      	beq.n	8bc36 <__aeabi_uldivmod+0x12>
   8bc30:	f04f 31ff 	mov.w	r1, #4294967295
   8bc34:	4608      	mov	r0, r1
   8bc36:	f000 b83b 	b.w	8bcb0 <__aeabi_idiv0>
   8bc3a:	b082      	sub	sp, #8
   8bc3c:	46ec      	mov	ip, sp
   8bc3e:	e92d 5000 	stmdb	sp!, {ip, lr}
   8bc42:	f000 f81d 	bl	8bc80 <__gnu_uldivmod_helper>
   8bc46:	f8dd e004 	ldr.w	lr, [sp, #4]
   8bc4a:	b002      	add	sp, #8
   8bc4c:	bc0c      	pop	{r2, r3}
   8bc4e:	4770      	bx	lr

0008bc50 <__gnu_ldivmod_helper>:
   8bc50:	e92d 41f0 	stmdb	sp!, {r4, r5, r6, r7, r8, lr}
   8bc54:	4616      	mov	r6, r2
   8bc56:	4698      	mov	r8, r3
   8bc58:	4604      	mov	r4, r0
   8bc5a:	460d      	mov	r5, r1
   8bc5c:	f000 f82a 	bl	8bcb4 <__divdi3>
   8bc60:	fb06 fc01 	mul.w	ip, r6, r1
   8bc64:	fba6 2300 	umull	r2, r3, r6, r0
   8bc68:	fb00 c708 	mla	r7, r0, r8, ip
   8bc6c:	18fb      	adds	r3, r7, r3
   8bc6e:	1aa2      	subs	r2, r4, r2
   8bc70:	eb65 0303 	sbc.w	r3, r5, r3
   8bc74:	9c06      	ldr	r4, [sp, #24]
   8bc76:	e9c4 2300 	strd	r2, r3, [r4]
   8bc7a:	e8bd 81f0 	ldmia.w	sp!, {r4, r5, r6, r7, r8, pc}
   8bc7e:	bf00      	nop

0008bc80 <__gnu_uldivmod_helper>:
   8bc80:	e92d 41f0 	stmdb	sp!, {r4, r5, r6, r7, r8, lr}
   8bc84:	4690      	mov	r8, r2
   8bc86:	4606      	mov	r6, r0
   8bc88:	460f      	mov	r7, r1
   8bc8a:	461d      	mov	r5, r3
   8bc8c:	f000 f970 	bl	8bf70 <__udivdi3>
   8bc90:	fb00 f305 	mul.w	r3, r0, r5
   8bc94:	fba0 4508 	umull	r4, r5, r0, r8
   8bc98:	fb08 3801 	mla	r8, r8, r1, r3
   8bc9c:	9b06      	ldr	r3, [sp, #24]
   8bc9e:	4445      	add	r5, r8
   8bca0:	1b34      	subs	r4, r6, r4
   8bca2:	eb67 0505 	sbc.w	r5, r7, r5
   8bca6:	e9c3 4500 	strd	r4, r5, [r3]
   8bcaa:	e8bd 81f0 	ldmia.w	sp!, {r4, r5, r6, r7, r8, pc}
   8bcae:	bf00      	nop

0008bcb0 <__aeabi_idiv0>:
   8bcb0:	4770      	bx	lr
   8bcb2:	bf00      	nop

0008bcb4 <__divdi3>:
   8bcb4:	2900      	cmp	r1, #0
   8bcb6:	e92d 0ff0 	stmdb	sp!, {r4, r5, r6, r7, r8, r9, sl, fp}
   8bcba:	461d      	mov	r5, r3
   8bcbc:	f2c0 809d 	blt.w	8bdfa <__divdi3+0x146>
   8bcc0:	2400      	movs	r4, #0
   8bcc2:	2d00      	cmp	r5, #0
   8bcc4:	f2c0 8094 	blt.w	8bdf0 <__divdi3+0x13c>
   8bcc8:	4680      	mov	r8, r0
   8bcca:	460f      	mov	r7, r1
   8bccc:	4694      	mov	ip, r2
   8bcce:	461e      	mov	r6, r3
   8bcd0:	bbe3      	cbnz	r3, 8bd4c <__divdi3+0x98>
   8bcd2:	428a      	cmp	r2, r1
   8bcd4:	d955      	bls.n	8bd82 <__divdi3+0xce>
   8bcd6:	fab2 f782 	clz	r7, r2
   8bcda:	b147      	cbz	r7, 8bcee <__divdi3+0x3a>
   8bcdc:	f1c7 0520 	rsb	r5, r7, #32
   8bce0:	fa20 f605 	lsr.w	r6, r0, r5
   8bce4:	fa01 f107 	lsl.w	r1, r1, r7
   8bce8:	40ba      	lsls	r2, r7
   8bcea:	40b8      	lsls	r0, r7
   8bcec:	4331      	orrs	r1, r6
   8bcee:	0c17      	lsrs	r7, r2, #16
   8bcf0:	fbb1 f6f7 	udiv	r6, r1, r7
   8bcf4:	fa1f fc82 	uxth.w	ip, r2
   8bcf8:	fb07 1116 	mls	r1, r7, r6, r1
   8bcfc:	fb0c f506 	mul.w	r5, ip, r6
   8bd00:	0c03      	lsrs	r3, r0, #16
   8bd02:	ea43 4301 	orr.w	r3, r3, r1, lsl #16
   8bd06:	429d      	cmp	r5, r3
   8bd08:	d908      	bls.n	8bd1c <__divdi3+0x68>
   8bd0a:	1e71      	subs	r1, r6, #1
   8bd0c:	189b      	adds	r3, r3, r2
   8bd0e:	f080 8113 	bcs.w	8bf38 <__divdi3+0x284>
   8bd12:	429d      	cmp	r5, r3
   8bd14:	f240 8110 	bls.w	8bf38 <__divdi3+0x284>
   8bd18:	3e02      	subs	r6, #2
   8bd1a:	189b      	adds	r3, r3, r2
   8bd1c:	1b59      	subs	r1, r3, r5
   8bd1e:	fbb1 f5f7 	udiv	r5, r1, r7
   8bd22:	fb07 1315 	mls	r3, r7, r5, r1
   8bd26:	fb0c fc05 	mul.w	ip, ip, r5
   8bd2a:	b280      	uxth	r0, r0
   8bd2c:	ea40 4103 	orr.w	r1, r0, r3, lsl #16
   8bd30:	458c      	cmp	ip, r1
   8bd32:	d907      	bls.n	8bd44 <__divdi3+0x90>
   8bd34:	1e6b      	subs	r3, r5, #1
   8bd36:	188a      	adds	r2, r1, r2
   8bd38:	f080 8100 	bcs.w	8bf3c <__divdi3+0x288>
   8bd3c:	4594      	cmp	ip, r2
   8bd3e:	f240 80fd 	bls.w	8bf3c <__divdi3+0x288>
   8bd42:	3d02      	subs	r5, #2
   8bd44:	ea45 4106 	orr.w	r1, r5, r6, lsl #16
   8bd48:	2500      	movs	r5, #0
   8bd4a:	e003      	b.n	8bd54 <__divdi3+0xa0>
   8bd4c:	428b      	cmp	r3, r1
   8bd4e:	d90c      	bls.n	8bd6a <__divdi3+0xb6>
   8bd50:	2500      	movs	r5, #0
   8bd52:	4629      	mov	r1, r5
   8bd54:	460a      	mov	r2, r1
   8bd56:	462b      	mov	r3, r5
   8bd58:	b114      	cbz	r4, 8bd60 <__divdi3+0xac>
   8bd5a:	4252      	negs	r2, r2
   8bd5c:	eb63 0343 	sbc.w	r3, r3, r3, lsl #1
   8bd60:	4610      	mov	r0, r2
   8bd62:	4619      	mov	r1, r3
   8bd64:	e8bd 0ff0 	ldmia.w	sp!, {r4, r5, r6, r7, r8, r9, sl, fp}
   8bd68:	4770      	bx	lr
   8bd6a:	fab3 f583 	clz	r5, r3
   8bd6e:	2d00      	cmp	r5, #0
   8bd70:	f040 8087 	bne.w	8be82 <__divdi3+0x1ce>
   8bd74:	428b      	cmp	r3, r1
   8bd76:	d301      	bcc.n	8bd7c <__divdi3+0xc8>
   8bd78:	4282      	cmp	r2, r0
   8bd7a:	d8ea      	bhi.n	8bd52 <__divdi3+0x9e>
   8bd7c:	2500      	movs	r5, #0
   8bd7e:	2101      	movs	r1, #1
   8bd80:	e7e8      	b.n	8bd54 <__divdi3+0xa0>
   8bd82:	b912      	cbnz	r2, 8bd8a <__divdi3+0xd6>
   8bd84:	2601      	movs	r6, #1
   8bd86:	fbb6 f2f2 	udiv	r2, r6, r2
   8bd8a:	fab2 f682 	clz	r6, r2
   8bd8e:	2e00      	cmp	r6, #0
   8bd90:	d139      	bne.n	8be06 <__divdi3+0x152>
   8bd92:	1a8e      	subs	r6, r1, r2
   8bd94:	0c13      	lsrs	r3, r2, #16
   8bd96:	fa1f fc82 	uxth.w	ip, r2
   8bd9a:	2501      	movs	r5, #1
   8bd9c:	fbb6 f7f3 	udiv	r7, r6, r3
   8bda0:	fb03 6117 	mls	r1, r3, r7, r6
   8bda4:	fb0c f807 	mul.w	r8, ip, r7
   8bda8:	ea4f 4910 	mov.w	r9, r0, lsr #16
   8bdac:	ea49 4601 	orr.w	r6, r9, r1, lsl #16
   8bdb0:	45b0      	cmp	r8, r6
   8bdb2:	d906      	bls.n	8bdc2 <__divdi3+0x10e>
   8bdb4:	1e79      	subs	r1, r7, #1
   8bdb6:	18b6      	adds	r6, r6, r2
   8bdb8:	d202      	bcs.n	8bdc0 <__divdi3+0x10c>
   8bdba:	45b0      	cmp	r8, r6
   8bdbc:	f200 80d3 	bhi.w	8bf66 <__divdi3+0x2b2>
   8bdc0:	460f      	mov	r7, r1
   8bdc2:	ebc8 0606 	rsb	r6, r8, r6
   8bdc6:	fbb6 f1f3 	udiv	r1, r6, r3
   8bdca:	fb03 6311 	mls	r3, r3, r1, r6
   8bdce:	fb0c fc01 	mul.w	ip, ip, r1
   8bdd2:	b280      	uxth	r0, r0
   8bdd4:	ea40 4303 	orr.w	r3, r0, r3, lsl #16
   8bdd8:	459c      	cmp	ip, r3
   8bdda:	d906      	bls.n	8bdea <__divdi3+0x136>
   8bddc:	1e4e      	subs	r6, r1, #1
   8bdde:	189a      	adds	r2, r3, r2
   8bde0:	d202      	bcs.n	8bde8 <__divdi3+0x134>
   8bde2:	4594      	cmp	ip, r2
   8bde4:	f200 80c2 	bhi.w	8bf6c <__divdi3+0x2b8>
   8bde8:	4631      	mov	r1, r6
   8bdea:	ea41 4107 	orr.w	r1, r1, r7, lsl #16
   8bdee:	e7b1      	b.n	8bd54 <__divdi3+0xa0>
   8bdf0:	43e4      	mvns	r4, r4
   8bdf2:	4252      	negs	r2, r2
   8bdf4:	eb63 0343 	sbc.w	r3, r3, r3, lsl #1
   8bdf8:	e766      	b.n	8bcc8 <__divdi3+0x14>
   8bdfa:	4240      	negs	r0, r0
   8bdfc:	eb61 0141 	sbc.w	r1, r1, r1, lsl #1
   8be00:	f04f 34ff 	mov.w	r4, #4294967295
   8be04:	e75d      	b.n	8bcc2 <__divdi3+0xe>
   8be06:	40b2      	lsls	r2, r6
   8be08:	f1c6 0920 	rsb	r9, r6, #32
   8be0c:	fa21 f709 	lsr.w	r7, r1, r9
   8be10:	fa20 f909 	lsr.w	r9, r0, r9
   8be14:	fa01 f106 	lsl.w	r1, r1, r6
   8be18:	0c13      	lsrs	r3, r2, #16
   8be1a:	fbb7 f8f3 	udiv	r8, r7, r3
   8be1e:	fa1f fc82 	uxth.w	ip, r2
   8be22:	fb03 7718 	mls	r7, r3, r8, r7
   8be26:	fb0c f508 	mul.w	r5, ip, r8
   8be2a:	ea49 0901 	orr.w	r9, r9, r1
   8be2e:	ea4f 4119 	mov.w	r1, r9, lsr #16
   8be32:	ea41 4707 	orr.w	r7, r1, r7, lsl #16
   8be36:	40b0      	lsls	r0, r6
   8be38:	42bd      	cmp	r5, r7
   8be3a:	d90a      	bls.n	8be52 <__divdi3+0x19e>
   8be3c:	18bf      	adds	r7, r7, r2
   8be3e:	f108 36ff 	add.w	r6, r8, #4294967295
   8be42:	f080 808e 	bcs.w	8bf62 <__divdi3+0x2ae>
   8be46:	42bd      	cmp	r5, r7
   8be48:	f240 808b 	bls.w	8bf62 <__divdi3+0x2ae>
   8be4c:	f1a8 0802 	sub.w	r8, r8, #2
   8be50:	18bf      	adds	r7, r7, r2
   8be52:	1b79      	subs	r1, r7, r5
   8be54:	fbb1 f5f3 	udiv	r5, r1, r3
   8be58:	fb03 1715 	mls	r7, r3, r5, r1
   8be5c:	fb0c f605 	mul.w	r6, ip, r5
   8be60:	fa1f f989 	uxth.w	r9, r9
   8be64:	ea49 4107 	orr.w	r1, r9, r7, lsl #16
   8be68:	428e      	cmp	r6, r1
   8be6a:	d906      	bls.n	8be7a <__divdi3+0x1c6>
   8be6c:	1e6f      	subs	r7, r5, #1
   8be6e:	1889      	adds	r1, r1, r2
   8be70:	d271      	bcs.n	8bf56 <__divdi3+0x2a2>
   8be72:	428e      	cmp	r6, r1
   8be74:	d96f      	bls.n	8bf56 <__divdi3+0x2a2>
   8be76:	3d02      	subs	r5, #2
   8be78:	1889      	adds	r1, r1, r2
   8be7a:	1b8e      	subs	r6, r1, r6
   8be7c:	ea45 4508 	orr.w	r5, r5, r8, lsl #16
   8be80:	e78c      	b.n	8bd9c <__divdi3+0xe8>
   8be82:	f1c5 0120 	rsb	r1, r5, #32
   8be86:	fa22 f301 	lsr.w	r3, r2, r1
   8be8a:	fa06 f605 	lsl.w	r6, r6, r5
   8be8e:	fa27 f201 	lsr.w	r2, r7, r1
   8be92:	fa07 f705 	lsl.w	r7, r7, r5
   8be96:	fa20 f101 	lsr.w	r1, r0, r1
   8be9a:	431e      	orrs	r6, r3
   8be9c:	ea4f 4916 	mov.w	r9, r6, lsr #16
   8bea0:	fbb2 f8f9 	udiv	r8, r2, r9
   8bea4:	fa1f fa86 	uxth.w	sl, r6
   8bea8:	fb09 2218 	mls	r2, r9, r8, r2
   8beac:	fb0a fb08 	mul.w	fp, sl, r8
   8beb0:	430f      	orrs	r7, r1
   8beb2:	0c3b      	lsrs	r3, r7, #16
   8beb4:	ea43 4202 	orr.w	r2, r3, r2, lsl #16
   8beb8:	4593      	cmp	fp, r2
   8beba:	fa0c fc05 	lsl.w	ip, ip, r5
   8bebe:	d908      	bls.n	8bed2 <__divdi3+0x21e>
   8bec0:	1992      	adds	r2, r2, r6
   8bec2:	f108 31ff 	add.w	r1, r8, #4294967295
   8bec6:	d24a      	bcs.n	8bf5e <__divdi3+0x2aa>
   8bec8:	4593      	cmp	fp, r2
   8beca:	d948      	bls.n	8bf5e <__divdi3+0x2aa>
   8becc:	f1a8 0802 	sub.w	r8, r8, #2
   8bed0:	1992      	adds	r2, r2, r6
   8bed2:	ebcb 0302 	rsb	r3, fp, r2
   8bed6:	fbb3 f1f9 	udiv	r1, r3, r9
   8beda:	fb09 3211 	mls	r2, r9, r1, r3
   8bede:	fb0a fa01 	mul.w	sl, sl, r1
   8bee2:	b2bf      	uxth	r7, r7
   8bee4:	ea47 4302 	orr.w	r3, r7, r2, lsl #16
   8bee8:	459a      	cmp	sl, r3
   8beea:	d906      	bls.n	8befa <__divdi3+0x246>
   8beec:	1e4a      	subs	r2, r1, #1
   8beee:	199b      	adds	r3, r3, r6
   8bef0:	d233      	bcs.n	8bf5a <__divdi3+0x2a6>
   8bef2:	459a      	cmp	sl, r3
   8bef4:	d931      	bls.n	8bf5a <__divdi3+0x2a6>
   8bef6:	3902      	subs	r1, #2
   8bef8:	199b      	adds	r3, r3, r6
   8befa:	ea41 4108 	orr.w	r1, r1, r8, lsl #16
   8befe:	0c0f      	lsrs	r7, r1, #16
   8bf00:	fa1f f88c 	uxth.w	r8, ip
   8bf04:	fb08 f607 	mul.w	r6, r8, r7
   8bf08:	b28a      	uxth	r2, r1
   8bf0a:	ea4f 4c1c 	mov.w	ip, ip, lsr #16
   8bf0e:	fb08 f802 	mul.w	r8, r8, r2
   8bf12:	fb0c 6202 	mla	r2, ip, r2, r6
   8bf16:	fb0c fc07 	mul.w	ip, ip, r7
   8bf1a:	eb02 4218 	add.w	r2, r2, r8, lsr #16
   8bf1e:	4296      	cmp	r6, r2
   8bf20:	bf88      	it	hi
   8bf22:	f50c 3c80 	addhi.w	ip, ip, #65536	; 0x10000
   8bf26:	ebca 0303 	rsb	r3, sl, r3
   8bf2a:	eb0c 4c12 	add.w	ip, ip, r2, lsr #16
   8bf2e:	4563      	cmp	r3, ip
   8bf30:	d30e      	bcc.n	8bf50 <__divdi3+0x29c>
   8bf32:	d005      	beq.n	8bf40 <__divdi3+0x28c>
   8bf34:	2500      	movs	r5, #0
   8bf36:	e70d      	b.n	8bd54 <__divdi3+0xa0>
   8bf38:	460e      	mov	r6, r1
   8bf3a:	e6ef      	b.n	8bd1c <__divdi3+0x68>
   8bf3c:	461d      	mov	r5, r3
   8bf3e:	e701      	b.n	8bd44 <__divdi3+0x90>
   8bf40:	fa00 f005 	lsl.w	r0, r0, r5
   8bf44:	fa1f f888 	uxth.w	r8, r8
   8bf48:	eb08 4502 	add.w	r5, r8, r2, lsl #16
   8bf4c:	42a8      	cmp	r0, r5
   8bf4e:	d2f1      	bcs.n	8bf34 <__divdi3+0x280>
   8bf50:	3901      	subs	r1, #1
   8bf52:	2500      	movs	r5, #0
   8bf54:	e6fe      	b.n	8bd54 <__divdi3+0xa0>
   8bf56:	463d      	mov	r5, r7
   8bf58:	e78f      	b.n	8be7a <__divdi3+0x1c6>
   8bf5a:	4611      	mov	r1, r2
   8bf5c:	e7cd      	b.n	8befa <__divdi3+0x246>
   8bf5e:	4688      	mov	r8, r1
   8bf60:	e7b7      	b.n	8bed2 <__divdi3+0x21e>
   8bf62:	46b0      	mov	r8, r6
   8bf64:	e775      	b.n	8be52 <__divdi3+0x19e>
   8bf66:	3f02      	subs	r7, #2
   8bf68:	18b6      	adds	r6, r6, r2
   8bf6a:	e72a      	b.n	8bdc2 <__divdi3+0x10e>
   8bf6c:	3902      	subs	r1, #2
   8bf6e:	e73c      	b.n	8bdea <__divdi3+0x136>

0008bf70 <__udivdi3>:
   8bf70:	e92d 07f0 	stmdb	sp!, {r4, r5, r6, r7, r8, r9, sl}
   8bf74:	4614      	mov	r4, r2
   8bf76:	4605      	mov	r5, r0
   8bf78:	460e      	mov	r6, r1
   8bf7a:	2b00      	cmp	r3, #0
   8bf7c:	d13d      	bne.n	8bffa <__udivdi3+0x8a>
   8bf7e:	428a      	cmp	r2, r1
   8bf80:	d949      	bls.n	8c016 <__udivdi3+0xa6>
   8bf82:	fab2 f782 	clz	r7, r2
   8bf86:	b147      	cbz	r7, 8bf9a <__udivdi3+0x2a>
   8bf88:	f1c7 0120 	rsb	r1, r7, #32
   8bf8c:	fa20 f201 	lsr.w	r2, r0, r1
   8bf90:	fa06 f607 	lsl.w	r6, r6, r7
   8bf94:	40bc      	lsls	r4, r7
   8bf96:	40bd      	lsls	r5, r7
   8bf98:	4316      	orrs	r6, r2
   8bf9a:	0c22      	lsrs	r2, r4, #16
   8bf9c:	fbb6 f0f2 	udiv	r0, r6, r2
   8bfa0:	b2a1      	uxth	r1, r4
   8bfa2:	fb02 6610 	mls	r6, r2, r0, r6
   8bfa6:	fb01 f300 	mul.w	r3, r1, r0
   8bfaa:	0c2f      	lsrs	r7, r5, #16
   8bfac:	ea47 4606 	orr.w	r6, r7, r6, lsl #16
   8bfb0:	42b3      	cmp	r3, r6
   8bfb2:	d908      	bls.n	8bfc6 <__udivdi3+0x56>
   8bfb4:	1e47      	subs	r7, r0, #1
   8bfb6:	1936      	adds	r6, r6, r4
   8bfb8:	f080 80fa 	bcs.w	8c1b0 <__udivdi3+0x240>
   8bfbc:	42b3      	cmp	r3, r6
   8bfbe:	f240 80f7 	bls.w	8c1b0 <__udivdi3+0x240>
   8bfc2:	3802      	subs	r0, #2
   8bfc4:	1936      	adds	r6, r6, r4
   8bfc6:	1af6      	subs	r6, r6, r3
   8bfc8:	fbb6 f3f2 	udiv	r3, r6, r2
   8bfcc:	fb02 6213 	mls	r2, r2, r3, r6
   8bfd0:	fb01 f103 	mul.w	r1, r1, r3
   8bfd4:	b2ad      	uxth	r5, r5
   8bfd6:	ea45 4202 	orr.w	r2, r5, r2, lsl #16
   8bfda:	4291      	cmp	r1, r2
   8bfdc:	d907      	bls.n	8bfee <__udivdi3+0x7e>
   8bfde:	1e5e      	subs	r6, r3, #1
   8bfe0:	1912      	adds	r2, r2, r4
   8bfe2:	f080 80e7 	bcs.w	8c1b4 <__udivdi3+0x244>
   8bfe6:	4291      	cmp	r1, r2
   8bfe8:	f240 80e4 	bls.w	8c1b4 <__udivdi3+0x244>
   8bfec:	3b02      	subs	r3, #2
   8bfee:	ea43 4000 	orr.w	r0, r3, r0, lsl #16
   8bff2:	2100      	movs	r1, #0
   8bff4:	e8bd 07f0 	ldmia.w	sp!, {r4, r5, r6, r7, r8, r9, sl}
   8bff8:	4770      	bx	lr
   8bffa:	428b      	cmp	r3, r1
   8bffc:	d843      	bhi.n	8c086 <__udivdi3+0x116>
   8bffe:	fab3 f483 	clz	r4, r3
   8c002:	2c00      	cmp	r4, #0
   8c004:	d142      	bne.n	8c08c <__udivdi3+0x11c>
   8c006:	428b      	cmp	r3, r1
   8c008:	d302      	bcc.n	8c010 <__udivdi3+0xa0>
   8c00a:	4282      	cmp	r2, r0
   8c00c:	f200 80e1 	bhi.w	8c1d2 <__udivdi3+0x262>
   8c010:	2100      	movs	r1, #0
   8c012:	2001      	movs	r0, #1
   8c014:	e7ee      	b.n	8bff4 <__udivdi3+0x84>
   8c016:	b912      	cbnz	r2, 8c01e <__udivdi3+0xae>
   8c018:	2701      	movs	r7, #1
   8c01a:	fbb7 f4f2 	udiv	r4, r7, r2
   8c01e:	fab4 f284 	clz	r2, r4
   8c022:	2a00      	cmp	r2, #0
   8c024:	f040 8089 	bne.w	8c13a <__udivdi3+0x1ca>
   8c028:	1b0a      	subs	r2, r1, r4
   8c02a:	0c23      	lsrs	r3, r4, #16
   8c02c:	b2a7      	uxth	r7, r4
   8c02e:	2101      	movs	r1, #1
   8c030:	fbb2 f6f3 	udiv	r6, r2, r3
   8c034:	fb03 2216 	mls	r2, r3, r6, r2
   8c038:	fb07 f006 	mul.w	r0, r7, r6
   8c03c:	ea4f 4c15 	mov.w	ip, r5, lsr #16
   8c040:	ea4c 4202 	orr.w	r2, ip, r2, lsl #16
   8c044:	4290      	cmp	r0, r2
   8c046:	d907      	bls.n	8c058 <__udivdi3+0xe8>
   8c048:	1912      	adds	r2, r2, r4
   8c04a:	f106 3cff 	add.w	ip, r6, #4294967295
   8c04e:	d202      	bcs.n	8c056 <__udivdi3+0xe6>
   8c050:	4290      	cmp	r0, r2
   8c052:	f200 80d0 	bhi.w	8c1f6 <__udivdi3+0x286>
   8c056:	4666      	mov	r6, ip
   8c058:	1a12      	subs	r2, r2, r0
   8c05a:	fbb2 f0f3 	udiv	r0, r2, r3
   8c05e:	fb03 2310 	mls	r3, r3, r0, r2
   8c062:	fb07 f700 	mul.w	r7, r7, r0
   8c066:	b2ad      	uxth	r5, r5
   8c068:	ea45 4303 	orr.w	r3, r5, r3, lsl #16
   8c06c:	429f      	cmp	r7, r3
   8c06e:	d907      	bls.n	8c080 <__udivdi3+0x110>
   8c070:	1e42      	subs	r2, r0, #1
   8c072:	191b      	adds	r3, r3, r4
   8c074:	f080 80a0 	bcs.w	8c1b8 <__udivdi3+0x248>
   8c078:	429f      	cmp	r7, r3
   8c07a:	f240 809d 	bls.w	8c1b8 <__udivdi3+0x248>
   8c07e:	3802      	subs	r0, #2
   8c080:	ea40 4006 	orr.w	r0, r0, r6, lsl #16
   8c084:	e7b6      	b.n	8bff4 <__udivdi3+0x84>
   8c086:	2100      	movs	r1, #0
   8c088:	4608      	mov	r0, r1
   8c08a:	e7b3      	b.n	8bff4 <__udivdi3+0x84>
   8c08c:	f1c4 0620 	rsb	r6, r4, #32
   8c090:	fa22 f706 	lsr.w	r7, r2, r6
   8c094:	fa03 f304 	lsl.w	r3, r3, r4
   8c098:	fa21 f506 	lsr.w	r5, r1, r6
   8c09c:	fa01 f104 	lsl.w	r1, r1, r4
   8c0a0:	fa20 f606 	lsr.w	r6, r0, r6
   8c0a4:	433b      	orrs	r3, r7
   8c0a6:	ea4f 4c13 	mov.w	ip, r3, lsr #16
   8c0aa:	fbb5 f7fc 	udiv	r7, r5, ip
   8c0ae:	fa1f f883 	uxth.w	r8, r3
   8c0b2:	fb0c 5517 	mls	r5, ip, r7, r5
   8c0b6:	fb08 f907 	mul.w	r9, r8, r7
   8c0ba:	ea46 0a01 	orr.w	sl, r6, r1
   8c0be:	ea4f 411a 	mov.w	r1, sl, lsr #16
   8c0c2:	ea41 4505 	orr.w	r5, r1, r5, lsl #16
   8c0c6:	45a9      	cmp	r9, r5
   8c0c8:	fa02 f204 	lsl.w	r2, r2, r4
   8c0cc:	d904      	bls.n	8c0d8 <__udivdi3+0x168>
   8c0ce:	1e7e      	subs	r6, r7, #1
   8c0d0:	18ed      	adds	r5, r5, r3
   8c0d2:	f0c0 8081 	bcc.w	8c1d8 <__udivdi3+0x268>
   8c0d6:	4637      	mov	r7, r6
   8c0d8:	ebc9 0105 	rsb	r1, r9, r5
   8c0dc:	fbb1 f6fc 	udiv	r6, r1, ip
   8c0e0:	fb0c 1516 	mls	r5, ip, r6, r1
   8c0e4:	fb08 f806 	mul.w	r8, r8, r6
   8c0e8:	fa1f fa8a 	uxth.w	sl, sl
   8c0ec:	ea4a 4105 	orr.w	r1, sl, r5, lsl #16
   8c0f0:	4588      	cmp	r8, r1
   8c0f2:	d903      	bls.n	8c0fc <__udivdi3+0x18c>
   8c0f4:	1e75      	subs	r5, r6, #1
   8c0f6:	18c9      	adds	r1, r1, r3
   8c0f8:	d374      	bcc.n	8c1e4 <__udivdi3+0x274>
   8c0fa:	462e      	mov	r6, r5
   8c0fc:	ea46 4607 	orr.w	r6, r6, r7, lsl #16
   8c100:	0c37      	lsrs	r7, r6, #16
   8c102:	fa1f fc82 	uxth.w	ip, r2
   8c106:	fb0c f507 	mul.w	r5, ip, r7
   8c10a:	0c12      	lsrs	r2, r2, #16
   8c10c:	b2b3      	uxth	r3, r6
   8c10e:	fb0c fc03 	mul.w	ip, ip, r3
   8c112:	fb02 5303 	mla	r3, r2, r3, r5
   8c116:	fb02 f207 	mul.w	r2, r2, r7
   8c11a:	eb03 431c 	add.w	r3, r3, ip, lsr #16
   8c11e:	429d      	cmp	r5, r3
   8c120:	bf88      	it	hi
   8c122:	f502 3280 	addhi.w	r2, r2, #65536	; 0x10000
   8c126:	ebc8 0101 	rsb	r1, r8, r1
   8c12a:	eb02 4213 	add.w	r2, r2, r3, lsr #16
   8c12e:	4291      	cmp	r1, r2
   8c130:	d34c      	bcc.n	8c1cc <__udivdi3+0x25c>
   8c132:	d043      	beq.n	8c1bc <__udivdi3+0x24c>
   8c134:	4630      	mov	r0, r6
   8c136:	2100      	movs	r1, #0
   8c138:	e75c      	b.n	8bff4 <__udivdi3+0x84>
   8c13a:	4094      	lsls	r4, r2
   8c13c:	f1c2 0520 	rsb	r5, r2, #32
   8c140:	fa21 f605 	lsr.w	r6, r1, r5
   8c144:	fa20 f505 	lsr.w	r5, r0, r5
   8c148:	fa01 f102 	lsl.w	r1, r1, r2
   8c14c:	0c23      	lsrs	r3, r4, #16
   8c14e:	fbb6 fcf3 	udiv	ip, r6, r3
   8c152:	b2a7      	uxth	r7, r4
   8c154:	fb03 661c 	mls	r6, r3, ip, r6
   8c158:	fb07 f80c 	mul.w	r8, r7, ip
   8c15c:	4329      	orrs	r1, r5
   8c15e:	0c0d      	lsrs	r5, r1, #16
   8c160:	ea45 4606 	orr.w	r6, r5, r6, lsl #16
   8c164:	45b0      	cmp	r8, r6
   8c166:	fa00 f502 	lsl.w	r5, r0, r2
   8c16a:	d908      	bls.n	8c17e <__udivdi3+0x20e>
   8c16c:	1936      	adds	r6, r6, r4
   8c16e:	f10c 30ff 	add.w	r0, ip, #4294967295
   8c172:	d23e      	bcs.n	8c1f2 <__udivdi3+0x282>
   8c174:	45b0      	cmp	r8, r6
   8c176:	d93c      	bls.n	8c1f2 <__udivdi3+0x282>
   8c178:	f1ac 0c02 	sub.w	ip, ip, #2
   8c17c:	1936      	adds	r6, r6, r4
   8c17e:	ebc8 0206 	rsb	r2, r8, r6
   8c182:	fbb2 f0f3 	udiv	r0, r2, r3
   8c186:	fb03 2610 	mls	r6, r3, r0, r2
   8c18a:	fb07 f800 	mul.w	r8, r7, r0
   8c18e:	b289      	uxth	r1, r1
   8c190:	ea41 4206 	orr.w	r2, r1, r6, lsl #16
   8c194:	4590      	cmp	r8, r2
   8c196:	d906      	bls.n	8c1a6 <__udivdi3+0x236>
   8c198:	1e46      	subs	r6, r0, #1
   8c19a:	1912      	adds	r2, r2, r4
   8c19c:	d227      	bcs.n	8c1ee <__udivdi3+0x27e>
   8c19e:	4590      	cmp	r8, r2
   8c1a0:	d925      	bls.n	8c1ee <__udivdi3+0x27e>
   8c1a2:	3802      	subs	r0, #2
   8c1a4:	1912      	adds	r2, r2, r4
   8c1a6:	ebc8 0202 	rsb	r2, r8, r2
   8c1aa:	ea40 410c 	orr.w	r1, r0, ip, lsl #16
   8c1ae:	e73f      	b.n	8c030 <__udivdi3+0xc0>
   8c1b0:	4638      	mov	r0, r7
   8c1b2:	e708      	b.n	8bfc6 <__udivdi3+0x56>
   8c1b4:	4633      	mov	r3, r6
   8c1b6:	e71a      	b.n	8bfee <__udivdi3+0x7e>
   8c1b8:	4610      	mov	r0, r2
   8c1ba:	e761      	b.n	8c080 <__udivdi3+0x110>
   8c1bc:	fa00 f004 	lsl.w	r0, r0, r4
   8c1c0:	fa1f fc8c 	uxth.w	ip, ip
   8c1c4:	eb0c 4303 	add.w	r3, ip, r3, lsl #16
   8c1c8:	4298      	cmp	r0, r3
   8c1ca:	d2b3      	bcs.n	8c134 <__udivdi3+0x1c4>
   8c1cc:	1e70      	subs	r0, r6, #1
   8c1ce:	2100      	movs	r1, #0
   8c1d0:	e710      	b.n	8bff4 <__udivdi3+0x84>
   8c1d2:	4621      	mov	r1, r4
   8c1d4:	4620      	mov	r0, r4
   8c1d6:	e70d      	b.n	8bff4 <__udivdi3+0x84>
   8c1d8:	45a9      	cmp	r9, r5
   8c1da:	f67f af7c 	bls.w	8c0d6 <__udivdi3+0x166>
   8c1de:	3f02      	subs	r7, #2
   8c1e0:	18ed      	adds	r5, r5, r3
   8c1e2:	e779      	b.n	8c0d8 <__udivdi3+0x168>
   8c1e4:	4588      	cmp	r8, r1
   8c1e6:	d988      	bls.n	8c0fa <__udivdi3+0x18a>
   8c1e8:	3e02      	subs	r6, #2
   8c1ea:	18c9      	adds	r1, r1, r3
   8c1ec:	e786      	b.n	8c0fc <__udivdi3+0x18c>
   8c1ee:	4630      	mov	r0, r6
   8c1f0:	e7d9      	b.n	8c1a6 <__udivdi3+0x236>
   8c1f2:	4684      	mov	ip, r0
   8c1f4:	e7c3      	b.n	8c17e <__udivdi3+0x20e>
   8c1f6:	3e02      	subs	r6, #2
   8c1f8:	1912      	adds	r2, r2, r4
   8c1fa:	e72d      	b.n	8c058 <__udivdi3+0xe8>

0008c1fc <sd_trans_multipliers>:
   8c1fc:	0000 0000 000a 0000 000c 0000 000d 0000     ................
   8c20c:	000f 0000 0014 0000 0019 0000 001e 0000     ................
   8c21c:	0023 0000 0028 0000 002d 0000 0032 0000     #...(...-...2...
   8c22c:	0037 0000 003c 0000 0046 0000 0050 0000     7...<...F...P...

0008c23c <sd_mmc_trans_units>:
   8c23c:	000a 0000 0064 0000 03e8 0000 2710 0000     ....d........'..
	...

0008c258 <mmc_trans_multipliers>:
   8c258:	0000 0000 000a 0000 000c 0000 000d 0000     ................
   8c268:	000f 0000 0014 0000 001a 0000 001e 0000     ................
   8c278:	0023 0000 0028 0000 002d 0000 0034 0000     #...(...-...4...
   8c288:	0037 0000 003c 0000 0046 0000 0050 0000     7...<...F...P...
   8c298:	0001 0000 0002 0000 0004 0000 0008 0000     ................
   8c2a8:	0010 0000 0020 0000 0040 0000 0080 0000     .... ...@.......
   8c2b8:	0100 0000 0200 0000 0400 0000 432a 534c     ............*CLS
   8c2c8:	0000 0000 452a 4553 0000 0000 452a 4553     ....*ESE....*ESE
   8c2d8:	003f 0000 452a 5253 003f 0000 492a 4e44     ?...*ESR?...*IDN
   8c2e8:	003f 0000 4f2a 4350 0000 0000 4f2a 4350     ?...*OPC....*OPC
   8c2f8:	003f 0000 522a 5453 0000 0000 532a 4552     ?...*RST....*SRE
   8c308:	0000 0000 532a 4552 003f 0000 532a 4254     ....*SRE?...*STB
   8c318:	003f 0000 542a 5453 003f 0000 572a 4941     ?...*TST?...*WAI
   8c328:	0000 0000 5953 5453 6d65 453a 5252 726f     ....SYSTem:ERRor
   8c338:	003f 0000 5953 5453 6d65 453a 5252 726f     ?...SYSTem:ERRor
   8c348:	4e3a 5845 3f54 0000 5953 5453 6d65 453a     :NEXT?..SYSTem:E
   8c358:	5252 726f 433a 554f 744e 003f 5953 5453     RRor:COUNt?.SYST
   8c368:	6d65 563a 5245 6953 6e6f 003f 5953 5453     em:VERSion?.SYST
   8c378:	6d65 543a 5059 3f45 0000 0000 5953 5453     em:TYPE?....SYST
   8c388:	6d65 4e3a 4d41 3f45 0000 0000 5953 5453     em:NAME?....SYST
   8c398:	6d65 443a 5345 3f43 0000 0000 5953 5453     em:DESC?....SYST
   8c3a8:	6d65 533a 3f4e 0000 5953 5453 6d65 443a     em:SN?..SYSTem:D
   8c3b8:	4f50 6557 3f72 0000 5953 5453 6d65 4d3a     POWer?..SYSTem:M
   8c3c8:	5841 7543 7272 6e65 3f74 0000 5953 5453     AXCurrent?..SYST
   8c3d8:	6d65 4e3a 4d4f 7543 7272 6e65 3f74 0000     em:NOMCurrent?..
   8c3e8:	5453 5441 7375 533a 4344 7261 7364 6174     STATus:SDCardsta
   8c3f8:	7574 3f73 0000 0000 5453 5441 7375 4c3a     tus?....STATus:L
   8c408:	4445 7453 7461 7375 003f 0000 5453 5441     EDStatus?...STAT
   8c418:	7375 423a 5455 6f74 736e 6174 7574 3f73     us:BUTtonstatus?
   8c428:	0000 0000 4f43 464e 6769 7275 3a65 454c     ....CONFigure:LE
   8c438:	0044 0000 4f43 464e 6769 7275 3a65 4f50     D...CONFigure:PO
   8c448:	6557 0072 4f43 464e 6769 7275 3a65 4545     Wer.CONFigure:EE
   8c458:	5250 4d4f 0000 0000 454d 5341 7275 3a65     PROM....MEASure:
   8c468:	4545 5250 4d4f 003f 4f43 464e 6769 7275     EEPROM?.CONFigur
   8c478:	3a65 4544 614c 3a79 3a41 4156 754c 0065     e:DELay:A:VALue.
   8c488:	4f43 464e 6769 7275 3a65 4544 614c 3a79     CONFigure:DELay:
   8c498:	3a42 4156 754c 0065 4f43 464e 6769 7275     B:VALue.CONFigur
   8c4a8:	3a65 4544 614c 3a79 3a41 4156 754c 3f65     e:DELay:A:VALue?
   8c4b8:	0000 0000 4f43 464e 6769 7275 3a65 4544     ....CONFigure:DE
   8c4c8:	614c 3a79 3a42 4156 754c 3f65 0000 0000     Lay:B:VALue?....
   8c4d8:	4f43 464e 6769 7275 3a65 4544 614c 3a79     CONFigure:DELay:
   8c4e8:	3a41 4e45 6261 656c 0000 0000 4f43 464e     A:ENable....CONF
   8c4f8:	6769 7275 3a65 4544 614c 3a79 3a42 4e45     igure:DELay:B:EN
   8c508:	6261 656c 0000 0000 4f43 464e 6769 7275     able....CONFigur
   8c518:	3a65 4544 614c 3a79 3a41 4e45 6261 656c     e:DELay:A:ENable
   8c528:	003f 0000 4f43 464e 6769 7275 3a65 4544     ?...CONFigure:DE
   8c538:	614c 3a79 3a42 4e45 6261 656c 003f 0000     Lay:B:ENable?...
   8c548:	5453 5441 7375 513a 4555 7453 6f69 616e     STATus:QUEStiona
   8c558:	6c62 3f65 0000 0000 5453 5441 7375 513a     ble?....STATus:Q
   8c568:	4555 7453 6f69 616e 6c62 3a65 5645 4e45     UEStionable:EVEN
   8c578:	3f74 0000 5453 5441 7375 513a 4555 7453     t?..STATus:QUESt
   8c588:	6f69 616e 6c62 3a65 4e45 4241 656c 0000     ionable:ENABle..
   8c598:	5453 5441 7375 513a 4555 7453 6f69 616e     STATus:QUEStiona
   8c5a8:	6c62 3a65 4e45 4241 656c 003f 5453 5441     ble:ENABle?.STAT
   8c5b8:	7375 503a 4552 6553 0074 0000 454d 5341     us:PRESet...MEAS
   8c5c8:	7275 3a65 4f56 544c 6761 3a65 4344 003f     ure:VOLTage:DC?.
   8c5d8:	4f43 464e 6769 7275 3a65 4f56 544c 6761     CONFigure:VOLTag
   8c5e8:	3a65 4344 0000 0000 454d 5341 7275 3a65     e:DC....MEASure:
   8c5f8:	4f56 544c 6761 3a65 4344 523a 5441 6f69     VOLTage:DC:RATio
   8c608:	003f 0000 454d 5341 7275 3a65 4f56 544c     ?...MEASure:VOLT
   8c618:	6761 3a65 4341 003f 454d 5341 7275 3a65     age:AC?.MEASure:
   8c628:	5543 5252 6e65 3a74 4344 003f 454d 5341     CURRent:DC?.MEAS
   8c638:	7275 3a65 5543 5252 6e65 3a74 4341 003f     ure:CURRent:AC?.
   8c648:	454d 5341 7275 3a65 4552 6953 7473 6e61     MEASure:RESistan
   8c658:	6563 003f 454d 5341 7275 3a65 5246 5345     ce?.MEASure:FRES
   8c668:	7369 6174 636e 3f65 0000 0000 454d 5341     istance?....MEAS
   8c678:	7275 3a65 5246 5145 6575 636e 3f79 0000     ure:FREQuency?..
   8c688:	454d 5341 7275 3a65 4550 6952 646f 003f     MEASure:PERiod?.

0008c698 <scpi_commands>:
   8c698:	c2c4 0008 2ad9 0008 c2cc 0008 2b19 0008     .....*.......+..
   8c6a8:	c2d4 0008 2b4d 0008 c2dc 0008 2b75 0008     ....M+......u+..
   8c6b8:	c2e4 0008 2bb1 0008 c2ec 0008 2be5 0008     .....+.......+..
   8c6c8:	c2f4 0008 2c01 0008 c2fc 0008 2c19 0008     .....,.......,..
   8c6d8:	c304 0008 2c3d 0008 c30c 0008 2c71 0008     ....=,......q,..
   8c6e8:	c314 0008 2c99 0008 c31c 0008 2cc1 0008     .....,.......,..
   8c6f8:	c324 0008 2cf9 0008 c32c 0008 2d39 0008     $....,..,...9-..
   8c708:	c33c 0008 2d39 0008 c350 0008 2d79 0008     <...9-..P...y-..
   8c718:	c364 0008 2d1d 0008 c374 0008 3905 0008     d....-..t....9..
   8c728:	c384 0008 3941 0008 c394 0008 397d 0008     ....A9......}9..
   8c738:	c3a4 0008 39b9 0008 c3b0 0008 39e5 0008     .....9.......9..
   8c748:	c3c0 0008 3a15 0008 c3d4 0008 3a41 0008     .....:......A:..
   8c758:	c3e8 0008 3a6d 0008 c400 0008 3a95 0008     ....m:.......:..
   8c768:	c414 0008 3abd 0008 c42c 0008 3bd9 0008     .....:..,....;..
   8c778:	c43c 0008 3b2d 0008 c44c 0008 3b25 0008     <...-;..L...%;..
   8c788:	c460 0008 3b1d 0008 c470 0008 3c9d 0008     `....;..p....<..
   8c798:	c488 0008 3d01 0008 c4a0 0008 3d65 0008     .....=......e=..
   8c7a8:	c4bc 0008 3da9 0008 c4d8 0008 3ded 0008     .....=.......=..
   8c7b8:	c4f4 0008 3e39 0008 c510 0008 3e85 0008     ....9>.......>..
   8c7c8:	c52c 0008 3ec5 0008 c548 0008 2d9d 0008     ,....>..H....-..
   8c7d8:	c560 0008 2d9d 0008 c57c 0008 2e01 0008     `....-..|.......
   8c7e8:	c598 0008 2dd9 0008 c5b4 0008 2e35 0008     .....-......5...
   8c7f8:	c5c4 0008 2d01 0008 c5d8 0008 2d01 0008     .....-.......-..
   8c808:	c5f0 0008 2d01 0008 c60c 0008 2d01 0008     .....-.......-..
   8c818:	c620 0008 2d01 0008 c634 0008 2d01 0008      ....-..4....-..
   8c828:	c648 0008 2d01 0008 c65c 0008 2d01 0008     H....-..\....-..
   8c838:	c674 0008 2d01 0008 c688 0008 2d01 0008     t....-.......-..
	...
   8c850:	6f4e 6520 7272 726f 0000 0000 7953 746e     No error....Synt
   8c860:	7861 6520 7272 726f 0000 0000 6e49 6176     ax error....Inva
   8c870:	696c 2064 6573 6170 6172 6f74 0072 0000     lid separator...
   8c880:	6e55 6564 6966 656e 2064 6568 6461 7265     Undefined header
   8c890:	0000 0000 6150 6172 656d 6574 2072 6f6e     ....Parameter no
   8c8a0:	2074 6c61 6f6c 6577 0064 0000 694d 7373     t allowed...Miss
   8c8b0:	6e69 2067 6170 6172 656d 6574 0072 0000     ing parameter...
   8c8c0:	6e49 6176 696c 2064 7573 6666 7869 0000     Invalid suffix..
   8c8d0:	7553 6666 7869 6e20 746f 6120 6c6c 776f     Suffix not allow
   8c8e0:	6465 0000 6e55 6e6b 776f 206e 7265 6f72     ed..Unknown erro
   8c8f0:	0072 0000 5443 2055 4546 0045 4554 5453     r...CTU FEE.TEST
   8c900:	5320 5043 2049 4e49 5453 5552 454d 544e      SCPI INSTRUMENT
   8c910:	5420 4953 3233 3532 0000 0000 3176 302e      TSI3225....v1.0
   8c920:	0000 0000 202c 0000 0d3b 000a 203b 0a0d     ...., ..;...; ..
   8c930:	0009 0000 0020 0000 494d 694e 756d 006d     .... ...MINimum.
   8c940:	414d 6958 756d 006d 4544 6146 6c75 0074     MAXimum.DEFault.
   8c950:	5055 0000 4f44 4e57 0000 0000 414e 004e     UP..DOWN....NAN.
   8c960:	4e49 0046 494e 464e 0000 0000 5655 0000     INF.NINF....UV..
   8c970:	564d 0000 0056 0000 564b 0000 4155 0000     MV..V...KV..UA..
   8c980:	414d 0000 0041 0000 414b 0000 484f 004d     MA..A...KA..OHM.
   8c990:	4f4b 4d48 0000 0000 4f4d 4d48 0000 0000     KOHM....MOHM....
   8c9a0:	5a48 0000 484b 005a 484d 005a 4847 005a     HZ..KHZ.MHZ.GHZ.
   8c9b0:	4543 004c 5350 0000 534e 0000 5355 0000     CEL.PS..NS..US..
   8c9c0:	534d 0000 0053 0000 494d 004e 5248 0000     MS..S...MIN.HR..

0008c9d0 <scpi_units_def>:
   8c9d0:	c96c 0008 0001 0000 ed8d a0b5 c6f7 3eb0     l..............>
   8c9e0:	c970 0008 0001 0000 a9fc d2f1 624d 3f50     p...........MbP?
   8c9f0:	c974 0008 0001 0000 0000 0000 0000 3ff0     t..............?
   8ca00:	c978 0008 0001 0000 0000 0000 4000 408f     x............@.@
   8ca10:	c97c 0008 0002 0000 ed8d a0b5 c6f7 3eb0     |..............>
   8ca20:	c980 0008 0002 0000 a9fc d2f1 624d 3f50     ............MbP?
   8ca30:	c984 0008 0002 0000 0000 0000 0000 3ff0     ...............?
   8ca40:	c988 0008 0002 0000 0000 0000 4000 408f     .............@.@
   8ca50:	c98c 0008 0003 0000 0000 0000 0000 3ff0     ...............?
   8ca60:	c990 0008 0003 0000 0000 0000 4000 408f     .............@.@
   8ca70:	c998 0008 0003 0000 0000 0000 8480 412e     ...............A
   8ca80:	c9a0 0008 0004 0000 0000 0000 0000 3ff0     ...............?
   8ca90:	c9a4 0008 0004 0000 0000 0000 4000 408f     .............@.@
   8caa0:	c9a8 0008 0004 0000 0000 0000 8480 412e     ...............A
   8cab0:	c9ac 0008 0004 0000 0000 0000 cd65 41cd     ............e..A
   8cac0:	c9b0 0008 0005 0000 0000 0000 0000 3ff0     ...............?
   8cad0:	c9b4 0008 0006 0000 ea11 812d 9799 3d71     ..........-...q=
   8cae0:	c9b8 0008 0006 0000 d695 e826 2e0b 3e11     ..........&....>
   8caf0:	c9bc 0008 0006 0000 ed8d a0b5 c6f7 3eb0     ...............>
   8cb00:	c9c0 0008 0006 0000 a9fc d2f1 624d 3f50     ............MbP?
   8cb10:	c9c4 0008 0006 0000 0000 0000 0000 3ff0     ...............?
   8cb20:	c9c8 0008 0006 0000 0000 0000 0000 404e     ..............N@
   8cb30:	c9cc 0008 0006 0000 0000 0000 2000 40ac     ............. .@
	...

0008cb50 <scpi_special_numbers_def>:
   8cb50:	c938 0008 0001 0000 c940 0008 0002 0000     8.......@.......
   8cb60:	c948 0008 0003 0000 c950 0008 0004 0000     H.......P.......
   8cb70:	c954 0008 0005 0000 c95c 0008 0006 0000     T.......\.......
   8cb80:	c960 0008 0007 0000 c964 0008 0008 0000     `.......d.......
	...
   8cb98:	6c25 0067 3a3f 5d5b 0000 0000 3f3a 0000     %lg.?:[]....:?..
   8cba8:	6948 6867 7320 6570 6465 6420 6175 206c     High speed dual 
   8cbb8:	6564 616c 2079 696c 656e 0d73 0000 0000     delay lines.....
   8cbc8:	7830 3030 3030 000d 3438 6d30 0d57 0000     0x0000..840mW...
   8cbd8:	6d30 0d41 0000 0000 4b4f 000d 7570 6873     0mA.....OK..push
   8cbe8:	6465 000d 6572 656c 7361 6465 000d 0000     ed..released....
   8cbf8:	4e4f 0000 464f 0046 7525 000d 2e25 732a     ON..OFF.%u..%.*s
   8cc08:	0000 0000 2a2a 5245 4f52 3a52 2520 2c64     ....**ERROR: %d,
   8cc18:	2220 7325 0d22 000a 2a2a 5253 3a51 3020      "%s"...**SRQ: 0
   8cc28:	2578 2058 2528 2964 0a0d 0000 2a2a 5443     x%X (%d)....**CT
   8cc38:	4c52 2520 3230 3a78 3020 2578 2058 2528     RL %02x: 0x%X (%
   8cc48:	2964 0a0d 0000 0000 2a2a 6554 7473 0a0d     d)......**Test..
   8cc58:	0000 0000 2a2a 6552 6573 0d74 000a 0000     ....**Reset.....
   8cc68:	5322 2f44 4d4d 2043 6143 6472 6f20 6576     "SD/MMC Card ove
   8cc78:	2072 434d 2049 6c53 746f 3020 0022 0000     r MCI Slot 0"...
   8cc88:	3231 3133 3332 3231 3133 3332 0000 0000     123123123123....
	...
   8cca0:	aa00 aaaa aaaa aaaa eeaa eeee eeee eeee     ................
   8ccb0:	feee ffff ffff ffff ffff ffff 7fff dfbf     ................
   8ccc0:	f7ef fdfb 7efc dfbf f7ef fdfb 007e 0000     .....~......~...

0008ccd0 <_ctype_>:
   8ccd0:	2000 2020 2020 2020 2020 2828 2828 2028     .         ((((( 
   8cce0:	2020 2020 2020 2020 2020 2020 2020 2020                     
   8ccf0:	8820 1010 1010 1010 1010 1010 1010 1010      ...............
   8cd00:	0410 0404 0404 0404 0404 1004 1010 1010     ................
   8cd10:	1010 4141 4141 4141 0101 0101 0101 0101     ..AAAAAA........
   8cd20:	0101 0101 0101 0101 0101 0101 1010 1010     ................
   8cd30:	1010 4242 4242 4242 0202 0202 0202 0202     ..BBBBBB........
   8cd40:	0202 0202 0202 0202 0202 0202 1010 1010     ................
   8cd50:	0020 0000 0000 0000 0000 0000 0000 0000      ...............
	...

0008cdd4 <_global_impure_ptr>:
   8cdd4:	02b0 2007 0043                              ... C.

0008cdda <blanks.6650>:
   8cdda:	2020 2020 2020 2020 2020 2020 2020 2020                     

0008cdea <zeroes.6651>:
   8cdea:	3030 3030 3030 3030 3030 3030 3030 3030     0000000000000000
   8cdfa:	3130 3332 3534 3736 3938 4241 4443 4645     0123456789ABCDEF
   8ce0a:	3000 3231 3433 3635 3837 6139 6362 6564     .0123456789abcde
   8ce1a:	0066                                        f.

0008ce1c <blanks.6664>:
   8ce1c:	2020 2020 2020 2020 2020 2020 2020 2020                     

0008ce2c <zeroes.6665>:
   8ce2c:	3030 3030 3030 3030 3030 3030 3030 3030     0000000000000000

0008ce3c <_init>:
   8ce3c:	b5f8      	push	{r3, r4, r5, r6, r7, lr}
   8ce3e:	bf00      	nop
   8ce40:	bcf8      	pop	{r3, r4, r5, r6, r7}
   8ce42:	bc08      	pop	{r3}
   8ce44:	469e      	mov	lr, r3
   8ce46:	4770      	bx	lr

0008ce48 <__init_array_start>:
   8ce48:	0008a9e9 	.word	0x0008a9e9

0008ce4c <__frame_dummy_init_array_entry>:
   8ce4c:	0008016d                                m...

0008ce50 <_fini>:
   8ce50:	b5f8      	push	{r3, r4, r5, r6, r7, lr}
   8ce52:	bf00      	nop
   8ce54:	bcf8      	pop	{r3, r4, r5, r6, r7}
   8ce56:	bc08      	pop	{r3}
   8ce58:	469e      	mov	lr, r3
   8ce5a:	4770      	bx	lr

0008ce5c <__fini_array_start>:
   8ce5c:	00080145 	.word	0x00080145

Disassembly of section .relocate:

20070000 <portable_delay_cycles>:
20070000:	f3bf 8f5f 	dmb	sy
20070004:	3801      	subs	r0, #1
20070006:	d1fb      	bne.n	20070000 <portable_delay_cycles>
20070008:	4770      	bx	lr
2007000a:	bf00      	nop

2007000c <sd_mmc_cards>:
	...
20070014:	0067 0000 0000 0000 0000 0000 0000 0000     g...............
	...

20070030 <ch2_in_color>:
20070030:	0003                                        ..

20070032 <ch1_in_color>:
20070032:	0003                                        ..

20070034 <ch1_out_color>:
20070034:	0002                                        ..

20070036 <ch2_out_color>:
20070036:	0002                                        ..

20070038 <scpi_context>:
20070038:	c698 0008 0100 0000 0000 0000 0b28 2007     ............(.. 
	...
20070054:	0078 2007 0000 0000 0000 0000 0000 0000     x.. ............
20070064:	0000 0000 0b18 2007 c9d0 0008 cb50 0008     ....... ....P...
20070074:	0000 0000                                   ....

20070078 <scpi_interface>:
20070078:	4939 0008 48f5 0008 4985 0008 4931 0008     9I...H...I..1I..
20070088:	4a2d 0008 49fd 0008                         -J...I..

20070090 <udi_msc_name.9525>:
20070090:	534d 2043 6e69 6574 6672 6361 0065 0000     MSC interface...

200700a0 <extra_strings_desc.9529>:
200700a0:	0300 0000 0000 0000 0000 0000 0000 0000     ................
	...

200700bc <udi_cdc_name.9524>:
200700bc:	4443 2043 6e69 6574 6672 6361 0065 0000     CDC interface...

200700cc <udi_api_cdc_data>:
200700cc:	543d 0008 519d 0008 4e6d 0008 4e75 0008     =T...Q..mN..uN..
200700dc:	5059 0008                                   YP..

200700e0 <udi_api_cdc_comm>:
200700e0:	51cd 0008 4e59 0008 50b1 0008 4e75 0008     .Q..YN...P..uN..
200700f0:	0000 0000                                   ....

200700f4 <udc_config_hs>:
200700f4:	0104 2007 0188 2007                         ... ... 

200700fc <udc_config_lsfs>:
200700fc:	01a8 2007 0188 2007                         ... ... 

20070104 <udc_desc_hs>:
20070104:	0209 0062 0103 c000 0832 000b 0202 0102     ..b.....2.......
20070114:	0900 0004 0100 0202 0001 2405 1000 0401     ...........$....
20070124:	0224 0502 0624 0100 2405 0301 0701 8305     $...$....$......
20070134:	4003 1000 0409 0001 0a02 0000 0700 8405     .@..............
20070144:	0002 0002 0507 0205 0200 0900 0204 0200     ................
20070154:	0608 0550 0507 0281 0200 0700 0205 0002     ..P.............
20070164:	0002 0000                                   ....

20070168 <udc_config>:
20070168:	0194 2007 00fc 2007 0194 2007 017c 2007     ... ... ... |.. 
20070178:	00f4 2007                                   ... 

2007017c <udc_device_qual>:
2007017c:	060a 0200 0000 4000 0001 0000               .......@....

20070188 <udi_apis>:
20070188:	00e0 2007 00cc 2007 0234 2007               ... ... 4.. 

20070194 <udc_device_desc>:
20070194:	0112 0200 0000 4000 03eb 2424 0100 0201     .......@..$$....
200701a4:	0103 0000                                   ....

200701a8 <udc_desc_fs>:
200701a8:	0209 0062 0103 c000 0832 000b 0202 0102     ..b.....2.......
200701b8:	0900 0004 0100 0202 0001 2405 1000 0401     ...........$....
200701c8:	0224 0502 0624 0100 2405 0301 0701 8305     $...$....$......
200701d8:	4003 1000 0409 0001 0a02 0000 0700 8405     .@..............
200701e8:	4002 0000 0507 0205 0040 0900 0204 0200     .@......@.......
200701f8:	0608 0550 0507 0281 0040 0700 0205 4002     ..P.....@......@
20070208:	0000 0000                                   ....

2007020c <udi_msc_inquiry_data.10004>:
2007020c:	0000 0203 001f 0000 5441 454d 204c 2020     ........ATMEL   
	...
2007022c:	2e31 3030                                   1.00

20070230 <udi_msc_b_ack_trans>:
20070230:	0001 0000                                   ....

20070234 <udi_api_msc>:
20070234:	62d9 0008 62bd 0008 61c5 0008 5751 0008     .b...b...a..QW..
20070244:	0000 0000                                   ....

20070248 <udi_msc_csw>:
20070248:	5355 5342 0000 0000 0000 0000 0000 0000     USBS............

20070258 <udc_string_product_name>:
20070258:	6554 706d 616c 6574 4220 616f 6472 0000     Template Board..

20070268 <udc_string_manufacturer_name>:
20070268:	6145 7973 702d 6968 0000 0000               Easy-phi....

20070274 <udc_string_desc>:
20070274:	0300 0000 0000 0000 0000 0000 0000 0000     ................
	...

20070294 <udc_string_desc_languageid>:
20070294:	0304 0409                                   ....

20070298 <g_interrupt_enabled>:
20070298:	0001 0000                                   ....

2007029c <SystemCoreClock>:
2007029c:	0900 003d                                   ..=.

200702a0 <__ctype_ptr__>:
200702a0:	ccd0 0008 0000 0000                         ........

200702a8 <_impure_ptr>:
200702a8:	02b0 2007 0000 0000                         ... ....

200702b0 <impure_data>:
200702b0:	0000 0000 059c 2007 0604 2007 066c 2007     ....... ... l.. 
	...
200702e4:	cdd8 0008 0000 0000 0000 0000 0000 0000     ................
	...
20070358:	0001 0000 0000 0000 330e abcd 1234 e66d     .........3..4.m.
20070368:	deec 0005 000b 0000 0000 0000 0000 0000     ................
	...

200706d8 <__malloc_av_>:
	...
200706e0:	06d8 2007 06d8 2007 06e0 2007 06e0 2007     ... ... ... ... 
200706f0:	06e8 2007 06e8 2007 06f0 2007 06f0 2007     ... ... ... ... 
20070700:	06f8 2007 06f8 2007 0700 2007 0700 2007     ... ... ... ... 
20070710:	0708 2007 0708 2007 0710 2007 0710 2007     ... ... ... ... 
20070720:	0718 2007 0718 2007 0720 2007 0720 2007     ... ...  ..  .. 
20070730:	0728 2007 0728 2007 0730 2007 0730 2007     (.. (.. 0.. 0.. 
20070740:	0738 2007 0738 2007 0740 2007 0740 2007     8.. 8.. @.. @.. 
20070750:	0748 2007 0748 2007 0750 2007 0750 2007     H.. H.. P.. P.. 
20070760:	0758 2007 0758 2007 0760 2007 0760 2007     X.. X.. `.. `.. 
20070770:	0768 2007 0768 2007 0770 2007 0770 2007     h.. h.. p.. p.. 
20070780:	0778 2007 0778 2007 0780 2007 0780 2007     x.. x.. ... ... 
20070790:	0788 2007 0788 2007 0790 2007 0790 2007     ... ... ... ... 
200707a0:	0798 2007 0798 2007 07a0 2007 07a0 2007     ... ... ... ... 
200707b0:	07a8 2007 07a8 2007 07b0 2007 07b0 2007     ... ... ... ... 
200707c0:	07b8 2007 07b8 2007 07c0 2007 07c0 2007     ... ... ... ... 
200707d0:	07c8 2007 07c8 2007 07d0 2007 07d0 2007     ... ... ... ... 
200707e0:	07d8 2007 07d8 2007 07e0 2007 07e0 2007     ... ... ... ... 
200707f0:	07e8 2007 07e8 2007 07f0 2007 07f0 2007     ... ... ... ... 
20070800:	07f8 2007 07f8 2007 0800 2007 0800 2007     ... ... ... ... 
20070810:	0808 2007 0808 2007 0810 2007 0810 2007     ... ... ... ... 
20070820:	0818 2007 0818 2007 0820 2007 0820 2007     ... ...  ..  .. 
20070830:	0828 2007 0828 2007 0830 2007 0830 2007     (.. (.. 0.. 0.. 
20070840:	0838 2007 0838 2007 0840 2007 0840 2007     8.. 8.. @.. @.. 
20070850:	0848 2007 0848 2007 0850 2007 0850 2007     H.. H.. P.. P.. 
20070860:	0858 2007 0858 2007 0860 2007 0860 2007     X.. X.. `.. `.. 
20070870:	0868 2007 0868 2007 0870 2007 0870 2007     h.. h.. p.. p.. 
20070880:	0878 2007 0878 2007 0880 2007 0880 2007     x.. x.. ... ... 
20070890:	0888 2007 0888 2007 0890 2007 0890 2007     ... ... ... ... 
200708a0:	0898 2007 0898 2007 08a0 2007 08a0 2007     ... ... ... ... 
200708b0:	08a8 2007 08a8 2007 08b0 2007 08b0 2007     ... ... ... ... 
200708c0:	08b8 2007 08b8 2007 08c0 2007 08c0 2007     ... ... ... ... 
200708d0:	08c8 2007 08c8 2007 08d0 2007 08d0 2007     ... ... ... ... 
200708e0:	08d8 2007 08d8 2007 08e0 2007 08e0 2007     ... ... ... ... 
200708f0:	08e8 2007 08e8 2007 08f0 2007 08f0 2007     ... ... ... ... 
20070900:	08f8 2007 08f8 2007 0900 2007 0900 2007     ... ... ... ... 
20070910:	0908 2007 0908 2007 0910 2007 0910 2007     ... ... ... ... 
20070920:	0918 2007 0918 2007 0920 2007 0920 2007     ... ...  ..  .. 
20070930:	0928 2007 0928 2007 0930 2007 0930 2007     (.. (.. 0.. 0.. 
20070940:	0938 2007 0938 2007 0940 2007 0940 2007     8.. 8.. @.. @.. 
20070950:	0948 2007 0948 2007 0950 2007 0950 2007     H.. H.. P.. P.. 
20070960:	0958 2007 0958 2007 0960 2007 0960 2007     X.. X.. `.. `.. 
20070970:	0968 2007 0968 2007 0970 2007 0970 2007     h.. h.. p.. p.. 
20070980:	0978 2007 0978 2007 0980 2007 0980 2007     x.. x.. ... ... 
20070990:	0988 2007 0988 2007 0990 2007 0990 2007     ... ... ... ... 
200709a0:	0998 2007 0998 2007 09a0 2007 09a0 2007     ... ... ... ... 
200709b0:	09a8 2007 09a8 2007 09b0 2007 09b0 2007     ... ... ... ... 
200709c0:	09b8 2007 09b8 2007 09c0 2007 09c0 2007     ... ... ... ... 
200709d0:	09c8 2007 09c8 2007 09d0 2007 09d0 2007     ... ... ... ... 
200709e0:	09d8 2007 09d8 2007 09e0 2007 09e0 2007     ... ... ... ... 
200709f0:	09e8 2007 09e8 2007 09f0 2007 09f0 2007     ... ... ... ... 
20070a00:	09f8 2007 09f8 2007 0a00 2007 0a00 2007     ... ... ... ... 
20070a10:	0a08 2007 0a08 2007 0a10 2007 0a10 2007     ... ... ... ... 
20070a20:	0a18 2007 0a18 2007 0a20 2007 0a20 2007     ... ...  ..  .. 
20070a30:	0a28 2007 0a28 2007 0a30 2007 0a30 2007     (.. (.. 0.. 0.. 
20070a40:	0a38 2007 0a38 2007 0a40 2007 0a40 2007     8.. 8.. @.. @.. 
20070a50:	0a48 2007 0a48 2007 0a50 2007 0a50 2007     H.. H.. P.. P.. 
20070a60:	0a58 2007 0a58 2007 0a60 2007 0a60 2007     X.. X.. `.. `.. 
20070a70:	0a68 2007 0a68 2007 0a70 2007 0a70 2007     h.. h.. p.. p.. 
20070a80:	0a78 2007 0a78 2007 0a80 2007 0a80 2007     x.. x.. ... ... 
20070a90:	0a88 2007 0a88 2007 0a90 2007 0a90 2007     ... ... ... ... 
20070aa0:	0a98 2007 0a98 2007 0aa0 2007 0aa0 2007     ... ... ... ... 
20070ab0:	0aa8 2007 0aa8 2007 0ab0 2007 0ab0 2007     ... ... ... ... 
20070ac0:	0ab8 2007 0ab8 2007 0ac0 2007 0ac0 2007     ... ... ... ... 
20070ad0:	0ac8 2007 0ac8 2007 0ad0 2007 0ad0 2007     ... ... ... ... 

20070ae0 <__malloc_sbrk_base>:
20070ae0:	ffff ffff                                   ....

20070ae4 <__malloc_trim_threshold>:
20070ae4:	0000 0002                                   ....
